(lp0
ccopy_reg
_reconstructor
p1
(cnativeChain
NativeChain
p2
c__builtin__
object
p3
Ntp4
Rp5
(dp6
S'nativeEnergy'
p7
I1
sS'hpstring'
p8
S'HPPH'
p9
sS'ifCat'
p10
I01
sS'generatedNumber'
p11
I0
sS'ifSub'
p12
I00
sS'coordinates'
p13
(lp14
g1
(ccoordinate
Coordinate
p15
g3
Ntp16
Rp17
(dp18
S'coordTuple'
p19
(I0
I0
tp20
sbag1
(g15
g3
Ntp21
Rp22
(dp23
g19
(I0
I1
tp24
sbag1
(g15
g3
Ntp25
Rp26
(dp27
g19
(I1
I1
tp28
sbag1
(g15
g3
Ntp29
Rp30
(dp31
g19
(I1
I0
tp32
sbasS'n'
p33
I4
sS'catalystPattern'
p34
S'HHPH'
p35
sS'vec'
p36
S'URD'
p37
sS'Type'
p38
NsS'substratePattern'
p39
S''
p40
sbag1
(g2
g3
Ntp41
Rp42
(dp43
g7
I1
sg8
S'HHPH'
p44
sg10
I01
sg11
I1
sg12
I01
sg13
(lp45
g1
(g15
g3
Ntp46
Rp47
(dp48
g19
g20
sbag1
(g15
g3
Ntp49
Rp50
(dp51
g19
(I0
I1
tp52
sbag1
(g15
g3
Ntp53
Rp54
(dp55
g19
(I1
I1
tp56
sbag1
(g15
g3
Ntp57
Rp58
(dp59
g19
(I1
I0
tp60
sbasg33
I4
sg34
S'HHPHH'
p61
sg36
g37
sg38
(I4
S'HHPH'
p62
g61
tp63
sg39
g62
sbag1
(g2
g3
Ntp64
Rp65
(dp66
g7
I1
sg8
S'HPHH'
p67
sg10
I01
sg11
I1
sg12
I00
sg13
(lp68
g1
(g15
g3
Ntp69
Rp70
(dp71
g19
g20
sbag1
(g15
g3
Ntp72
Rp73
(dp74
g19
(I0
I1
tp75
sbag1
(g15
g3
Ntp76
Rp77
(dp78
g19
(I1
I1
tp79
sbag1
(g15
g3
Ntp80
Rp81
(dp82
g19
(I1
I0
tp83
sbasg33
I4
sg34
S'HHPHH'
p84
sg36
g37
sg38
Nsg39
g40
sbag1
(g2
g3
Ntp85
Rp86
(dp87
g7
I1
sg8
S'HHHH'
p88
sg10
I01
sg11
I1
sg12
I00
sg13
(lp89
g1
(g15
g3
Ntp90
Rp91
(dp92
g19
g20
sbag1
(g15
g3
Ntp93
Rp94
(dp95
g19
(I0
I1
tp96
sbag1
(g15
g3
Ntp97
Rp98
(dp99
g19
(I1
I1
tp100
sbag1
(g15
g3
Ntp101
Rp102
(dp103
g19
(I1
I0
tp104
sbasg33
I4
sg34
S'HHPHH'
p105
sg36
g37
sg38
Nsg39
g40
sbag1
(g2
g3
Ntp106
Rp107
(dp108
g7
I2
sg8
S'HHPPHH'
p109
sg10
I01
sg11
I2
sg12
I01
sg13
(lp110
g1
(g15
g3
Ntp111
Rp112
(dp113
g19
g20
sbag1
(g15
g3
Ntp114
Rp115
(dp116
g19
(I0
I1
tp117
sbag1
(g15
g3
Ntp118
Rp119
(dp120
g19
(I0
I2
tp121
sbag1
(g15
g3
Ntp122
Rp123
(dp124
g19
(I1
I2
tp125
sbag1
(g15
g3
Ntp126
Rp127
(dp128
g19
(I1
I1
tp129
sbag1
(g15
g3
Ntp130
Rp131
(dp132
g19
(I1
I0
tp133
sbasg33
I6
sg34
S'HHPHH'
p134
sg36
S'UURDD'
p135
sg38
(I6
S'HHPP'
p136
g134
tp137
sg39
g136
sbag1
(g2
g3
Ntp138
Rp139
(dp140
g7
I2
sg8
S'PHPPHPH'
p141
sg10
I00
sg11
I2
sg12
I00
sg13
(lp142
g1
(g15
g3
Ntp143
Rp144
(dp145
g19
g20
sbag1
(g15
g3
Ntp146
Rp147
(dp148
g19
(I0
I1
tp149
sbag1
(g15
g3
Ntp150
Rp151
(dp152
g19
(I1
I1
tp153
sbag1
(g15
g3
Ntp154
Rp155
(dp156
g19
(I1
I2
tp157
sbag1
(g15
g3
Ntp158
Rp159
(dp160
g19
(I0
I2
tp161
sbag1
(g15
g3
Ntp162
Rp163
(dp164
g19
(I-1
I2
tp165
sbag1
(g15
g3
Ntp166
Rp167
(dp168
g19
(I-1
I1
tp169
sbasg33
I7
sg34
g40
sg36
S'URULLD'
p170
sg38
Nsg39
g40
sbag1
(g2
g3
Ntp171
Rp172
(dp173
g7
I2
sg8
S'HHPPHPH'
p174
sg10
I00
sg11
I2
sg12
I01
sg13
(lp175
g1
(g15
g3
Ntp176
Rp177
(dp178
g19
g20
sbag1
(g15
g3
Ntp179
Rp180
(dp181
g19
(I0
I1
tp182
sbag1
(g15
g3
Ntp183
Rp184
(dp185
g19
(I1
I1
tp186
sbag1
(g15
g3
Ntp187
Rp188
(dp189
g19
(I1
I2
tp190
sbag1
(g15
g3
Ntp191
Rp192
(dp193
g19
(I0
I2
tp194
sbag1
(g15
g3
Ntp195
Rp196
(dp197
g19
(I-1
I2
tp198
sbag1
(g15
g3
Ntp199
Rp200
(dp201
g19
(I-1
I1
tp202
sbasg33
I7
sg34
g40
sg36
g170
sg38
Nsg39
S'HHPP'
p203
sbag1
(g2
g3
Ntp204
Rp205
(dp206
g7
I2
sg8
S'PHHPHPH'
p207
sg10
I00
sg11
I2
sg12
I01
sg13
(lp208
g1
(g15
g3
Ntp209
Rp210
(dp211
g19
g20
sbag1
(g15
g3
Ntp212
Rp213
(dp214
g19
(I0
I1
tp215
sbag1
(g15
g3
Ntp216
Rp217
(dp218
g19
(I1
I1
tp219
sbag1
(g15
g3
Ntp220
Rp221
(dp222
g19
(I1
I2
tp223
sbag1
(g15
g3
Ntp224
Rp225
(dp226
g19
(I0
I2
tp227
sbag1
(g15
g3
Ntp228
Rp229
(dp230
g19
(I-1
I2
tp231
sbag1
(g15
g3
Ntp232
Rp233
(dp234
g19
(I-1
I1
tp235
sbasg33
I7
sg34
g40
sg36
g170
sg38
Nsg39
S'HHPH'
p236
sbag1
(g2
g3
Ntp237
Rp238
(dp239
g7
I2
sg8
S'HHHPHPH'
p240
sg10
I00
sg11
I2
sg12
I01
sg13
(lp241
g1
(g15
g3
Ntp242
Rp243
(dp244
g19
g20
sbag1
(g15
g3
Ntp245
Rp246
(dp247
g19
(I0
I1
tp248
sbag1
(g15
g3
Ntp249
Rp250
(dp251
g19
(I1
I1
tp252
sbag1
(g15
g3
Ntp253
Rp254
(dp255
g19
(I1
I2
tp256
sbag1
(g15
g3
Ntp257
Rp258
(dp259
g19
(I0
I2
tp260
sbag1
(g15
g3
Ntp261
Rp262
(dp263
g19
(I-1
I2
tp264
sbag1
(g15
g3
Ntp265
Rp266
(dp267
g19
(I-1
I1
tp268
sbasg33
I7
sg34
g40
sg36
g170
sg38
Nsg39
S'HHHPH'
p269
sbag1
(g2
g3
Ntp270
Rp271
(dp272
g7
I2
sg8
S'PHPPHHH'
p273
sg10
I01
sg11
I2
sg12
I00
sg13
(lp274
g1
(g15
g3
Ntp275
Rp276
(dp277
g19
g20
sbag1
(g15
g3
Ntp278
Rp279
(dp280
g19
(I0
I1
tp281
sbag1
(g15
g3
Ntp282
Rp283
(dp284
g19
(I1
I1
tp285
sbag1
(g15
g3
Ntp286
Rp287
(dp288
g19
(I1
I2
tp289
sbag1
(g15
g3
Ntp290
Rp291
(dp292
g19
(I0
I2
tp293
sbag1
(g15
g3
Ntp294
Rp295
(dp296
g19
(I-1
I2
tp297
sbag1
(g15
g3
Ntp298
Rp299
(dp300
g19
(I-1
I1
tp301
sbasg33
I7
sg34
S'HHPHH'
p302
sg36
g170
sg38
Nsg39
g40
sbag1
(g2
g3
Ntp303
Rp304
(dp305
g7
I3
sg8
S'HPHPHPPH'
p306
sg10
I00
sg11
I2
sg12
I00
sg13
(lp307
g1
(g15
g3
Ntp308
Rp309
(dp310
g19
g20
sbag1
(g15
g3
Ntp311
Rp312
(dp313
g19
(I0
I1
tp314
sbag1
(g15
g3
Ntp315
Rp316
(dp317
g19
(I1
I1
tp318
sbag1
(g15
g3
Ntp319
Rp320
(dp321
g19
(I2
I1
tp322
sbag1
(g15
g3
Ntp323
Rp324
(dp325
g19
(I2
I0
tp326
sbag1
(g15
g3
Ntp327
Rp328
(dp329
g19
(I2
I-1
tp330
sbag1
(g15
g3
Ntp331
Rp332
(dp333
g19
(I1
I-1
tp334
sbag1
(g15
g3
Ntp335
Rp336
(dp337
g19
(I1
I0
tp338
sbasg33
I8
sg34
g40
sg36
S'URRDDLU'
p339
sg38
Nsg39
g40
sbag1
(g2
g3
Ntp340
Rp341
(dp342
g7
I3
sg8
S'HPHPHPHH'
p343
sg10
I00
sg11
I2
sg12
I00
sg13
(lp344
g1
(g15
g3
Ntp345
Rp346
(dp347
g19
g20
sbag1
(g15
g3
Ntp348
Rp349
(dp350
g19
(I0
I1
tp351
sbag1
(g15
g3
Ntp352
Rp353
(dp354
g19
(I1
I1
tp355
sbag1
(g15
g3
Ntp356
Rp357
(dp358
g19
(I2
I1
tp359
sbag1
(g15
g3
Ntp360
Rp361
(dp362
g19
(I2
I0
tp363
sbag1
(g15
g3
Ntp364
Rp365
(dp366
g19
(I2
I-1
tp367
sbag1
(g15
g3
Ntp368
Rp369
(dp370
g19
(I1
I-1
tp371
sbag1
(g15
g3
Ntp372
Rp373
(dp374
g19
(I1
I0
tp375
sbasg33
I8
sg34
g40
sg36
g339
sg38
Nsg39
g40
sbag1
(g2
g3
Ntp376
Rp377
(dp378
g7
I2
sg8
S'HPPHPH'
p379
sg10
I01
sg11
I2
sg12
I00
sg13
(lp380
g1
(g15
g3
Ntp381
Rp382
(dp383
g19
g20
sbag1
(g15
g3
Ntp384
Rp385
(dp386
g19
(I0
I1
tp387
sbag1
(g15
g3
Ntp388
Rp389
(dp390
g19
(I1
I1
tp391
sbag1
(g15
g3
Ntp392
Rp393
(dp394
g19
(I1
I0
tp395
sbag1
(g15
g3
Ntp396
Rp397
(dp398
g19
(I1
I-1
tp399
sbag1
(g15
g3
Ntp400
Rp401
(dp402
g19
(I0
I-1
tp403
sbasg33
I6
sg34
S'HHPH'
p404
sg36
S'URDDL'
p405
sg38
Nsg39
g40
sbag1
(g2
g3
Ntp406
Rp407
(dp408
g7
I2
sg8
S'HHPHPH'
p409
sg10
I01
sg11
I3
sg12
I01
sg13
(lp410
g1
(g15
g3
Ntp411
Rp412
(dp413
g19
g20
sbag1
(g15
g3
Ntp414
Rp415
(dp416
g19
(I0
I1
tp417
sbag1
(g15
g3
Ntp418
Rp419
(dp420
g19
(I1
I1
tp421
sbag1
(g15
g3
Ntp422
Rp423
(dp424
g19
(I1
I0
tp425
sbag1
(g15
g3
Ntp426
Rp427
(dp428
g19
(I1
I-1
tp429
sbag1
(g15
g3
Ntp430
Rp431
(dp432
g19
(I0
I-1
tp433
sbasg33
I6
sg34
S'HHHPH'
p434
sg36
g405
sg38
(I6
S'HHPH'
p435
g434
tp436
sg39
g435
sbag1
(g2
g3
Ntp437
Rp438
(dp439
g7
I2
sg8
S'HPPHHH'
p440
sg10
I01
sg11
I3
sg12
I00
sg13
(lp441
g1
(g15
g3
Ntp442
Rp443
(dp444
g19
g20
sbag1
(g15
g3
Ntp445
Rp446
(dp447
g19
(I0
I1
tp448
sbag1
(g15
g3
Ntp449
Rp450
(dp451
g19
(I1
I1
tp452
sbag1
(g15
g3
Ntp453
Rp454
(dp455
g19
(I1
I0
tp456
sbag1
(g15
g3
Ntp457
Rp458
(dp459
g19
(I1
I-1
tp460
sbag1
(g15
g3
Ntp461
Rp462
(dp463
g19
(I0
I-1
tp464
sbasg33
I6
sg34
S'HHPHH'
p465
sg36
g405
sg38
Nsg39
g40
sbag1
(g2
g3
Ntp466
Rp467
(dp468
g7
I3
sg8
S'HPPHHPPH'
p469
sg10
I01
sg11
I4
sg12
I01
sg13
(lp470
g1
(g15
g3
Ntp471
Rp472
(dp473
g19
g20
sbag1
(g15
g3
Ntp474
Rp475
(dp476
g19
(I0
I1
tp477
sbag1
(g15
g3
Ntp478
Rp479
(dp480
g19
(I1
I1
tp481
sbag1
(g15
g3
Ntp482
Rp483
(dp484
g19
(I1
I0
tp485
sbag1
(g15
g3
Ntp486
Rp487
(dp488
g19
(I1
I-1
tp489
sbag1
(g15
g3
Ntp490
Rp491
(dp492
g19
(I1
I-2
tp493
sbag1
(g15
g3
Ntp494
Rp495
(dp496
g19
(I0
I-2
tp497
sbag1
(g15
g3
Ntp498
Rp499
(dp500
g19
(I0
I-1
tp501
sbasg33
I8
sg34
S'HHPP'
p502
sg36
S'URDDDLU'
p503
sg38
(I8
S'HHPP'
p504
g502
tp505
sg39
g504
sbag1
(g2
g3
Ntp506
Rp507
(dp508
g7
I3
sg8
S'HPPHPPHH'
p509
sg10
I01
sg11
I4
sg12
I00
sg13
(lp510
g1
(g15
g3
Ntp511
Rp512
(dp513
g19
g20
sbag1
(g15
g3
Ntp514
Rp515
(dp516
g19
(I0
I1
tp517
sbag1
(g15
g3
Ntp518
Rp519
(dp520
g19
(I1
I1
tp521
sbag1
(g15
g3
Ntp522
Rp523
(dp524
g19
(I1
I0
tp525
sbag1
(g15
g3
Ntp526
Rp527
(dp528
g19
(I2
I0
tp529
sbag1
(g15
g3
Ntp530
Rp531
(dp532
g19
(I2
I-1
tp533
sbag1
(g15
g3
Ntp534
Rp535
(dp536
g19
(I1
I-1
tp537
sbag1
(g15
g3
Ntp538
Rp539
(dp540
g19
(I0
I-1
tp541
sbasg33
I8
sg34
S'HHPHH'
p542
sg36
S'URDRDLL'
p543
sg38
Nsg39
g40
sbag1
(g2
g3
Ntp544
Rp545
(dp546
g7
I3
sg8
S'HPPHPHPH'
p547
sg10
I00
sg11
I4
sg12
I00
sg13
(lp548
g1
(g15
g3
Ntp549
Rp550
(dp551
g19
g20
sbag1
(g15
g3
Ntp552
Rp553
(dp554
g19
(I0
I1
tp555
sbag1
(g15
g3
Ntp556
Rp557
(dp558
g19
(I1
I1
tp559
sbag1
(g15
g3
Ntp560
Rp561
(dp562
g19
(I1
I0
tp563
sbag1
(g15
g3
Ntp564
Rp565
(dp566
g19
(I1
I-1
tp567
sbag1
(g15
g3
Ntp568
Rp569
(dp570
g19
(I0
I-1
tp571
sbag1
(g15
g3
Ntp572
Rp573
(dp574
g19
(I-1
I-1
tp575
sbag1
(g15
g3
Ntp576
Rp577
(dp578
g19
(I-1
I0
tp579
sbasg33
I8
sg34
g40
sg36
S'URDDLLU'
p580
sg38
Nsg39
g40
sbag1
(g2
g3
Ntp581
Rp582
(dp583
g7
I3
sg8
S'HHPHPHPH'
p584
sg10
I00
sg11
I4
sg12
I01
sg13
(lp585
g1
(g15
g3
Ntp586
Rp587
(dp588
g19
g20
sbag1
(g15
g3
Ntp589
Rp590
(dp591
g19
(I0
I1
tp592
sbag1
(g15
g3
Ntp593
Rp594
(dp595
g19
(I1
I1
tp596
sbag1
(g15
g3
Ntp597
Rp598
(dp599
g19
(I1
I0
tp600
sbag1
(g15
g3
Ntp601
Rp602
(dp603
g19
(I1
I-1
tp604
sbag1
(g15
g3
Ntp605
Rp606
(dp607
g19
(I0
I-1
tp608
sbag1
(g15
g3
Ntp609
Rp610
(dp611
g19
(I-1
I-1
tp612
sbag1
(g15
g3
Ntp613
Rp614
(dp615
g19
(I-1
I0
tp616
sbasg33
I8
sg34
g40
sg36
g580
sg38
Nsg39
S'HHPH'
p617
sbag1
(g2
g3
Ntp618
Rp619
(dp620
g7
I2
sg8
S'HPHPPH'
p621
sg10
I01
sg11
I4
sg12
I00
sg13
(lp622
g1
(g15
g3
Ntp623
Rp624
(dp625
g19
g20
sbag1
(g15
g3
Ntp626
Rp627
(dp628
g19
(I0
I1
tp629
sbag1
(g15
g3
Ntp630
Rp631
(dp632
g19
(I1
I1
tp633
sbag1
(g15
g3
Ntp634
Rp635
(dp636
g19
(I2
I1
tp637
sbag1
(g15
g3
Ntp638
Rp639
(dp640
g19
(I2
I0
tp641
sbag1
(g15
g3
Ntp642
Rp643
(dp644
g19
(I1
I0
tp645
sbasg33
I6
sg34
S'HHPH'
p646
sg36
S'URRDL'
p647
sg38
Nsg39
g40
sbag1
(g2
g3
Ntp648
Rp649
(dp650
g7
I2
sg8
S'HHHPPH'
p651
sg10
I01
sg11
I5
sg12
I01
sg13
(lp652
g1
(g15
g3
Ntp653
Rp654
(dp655
g19
g20
sbag1
(g15
g3
Ntp656
Rp657
(dp658
g19
(I0
I1
tp659
sbag1
(g15
g3
Ntp660
Rp661
(dp662
g19
(I1
I1
tp663
sbag1
(g15
g3
Ntp664
Rp665
(dp666
g19
(I2
I1
tp667
sbag1
(g15
g3
Ntp668
Rp669
(dp670
g19
(I2
I0
tp671
sbag1
(g15
g3
Ntp672
Rp673
(dp674
g19
(I1
I0
tp675
sbasg33
I6
sg34
S'HHPHH'
p676
sg36
g647
sg38
(I6
S'HHHPP'
p677
g676
tp678
sg39
g677
sbag1
(g2
g3
Ntp679
Rp680
(dp681
g7
I2
sg8
S'HPHPHH'
p682
sg10
I01
sg11
I5
sg12
I00
sg13
(lp683
g1
(g15
g3
Ntp684
Rp685
(dp686
g19
g20
sbag1
(g15
g3
Ntp687
Rp688
(dp689
g19
(I0
I1
tp690
sbag1
(g15
g3
Ntp691
Rp692
(dp693
g19
(I1
I1
tp694
sbag1
(g15
g3
Ntp695
Rp696
(dp697
g19
(I2
I1
tp698
sbag1
(g15
g3
Ntp699
Rp700
(dp701
g19
(I2
I0
tp702
sbag1
(g15
g3
Ntp703
Rp704
(dp705
g19
(I1
I0
tp706
sbasg33
I6
sg34
S'HHHPH'
p707
sg36
g647
sg38
Nsg39
g40
sbag1
(g2
g3
Ntp708
Rp709
(dp710
g7
I3
sg8
S'HHPPHPPH'
p711
sg10
I01
sg11
I6
sg12
I01
sg13
(lp712
g1
(g15
g3
Ntp713
Rp714
(dp715
g19
g20
sbag1
(g15
g3
Ntp716
Rp717
(dp718
g19
(I0
I1
tp719
sbag1
(g15
g3
Ntp720
Rp721
(dp722
g19
(I0
I2
tp723
sbag1
(g15
g3
Ntp724
Rp725
(dp726
g19
(I1
I2
tp727
sbag1
(g15
g3
Ntp728
Rp729
(dp730
g19
(I1
I1
tp731
sbag1
(g15
g3
Ntp732
Rp733
(dp734
g19
(I2
I1
tp735
sbag1
(g15
g3
Ntp736
Rp737
(dp738
g19
(I2
I0
tp739
sbag1
(g15
g3
Ntp740
Rp741
(dp742
g19
(I1
I0
tp743
sbasg33
I8
sg34
S'HHPHH'
p744
sg36
S'UURDRDL'
p745
sg38
(I8
S'HHPP'
p746
g744
tp747
sg39
g746
sbag1
(g2
g3
Ntp748
Rp749
(dp750
g7
I2
sg8
S'HPHPPHP'
p751
sg10
I00
sg11
I6
sg12
I00
sg13
(lp752
g1
(g15
g3
Ntp753
Rp754
(dp755
g19
g20
sbag1
(g15
g3
Ntp756
Rp757
(dp758
g19
(I0
I1
tp759
sbag1
(g15
g3
Ntp760
Rp761
(dp762
g19
(I1
I1
tp763
sbag1
(g15
g3
Ntp764
Rp765
(dp766
g19
(I2
I1
tp767
sbag1
(g15
g3
Ntp768
Rp769
(dp770
g19
(I2
I0
tp771
sbag1
(g15
g3
Ntp772
Rp773
(dp774
g19
(I1
I0
tp775
sbag1
(g15
g3
Ntp776
Rp777
(dp778
g19
(I1
I-1
tp779
sbasg33
I7
sg34
g40
sg36
S'URRDLD'
p780
sg38
Nsg39
g40
sbag1
(g2
g3
Ntp781
Rp782
(dp783
g7
I2
sg8
S'HHHPPHP'
p784
sg10
I01
sg11
I7
sg12
I01
sg13
(lp785
g1
(g15
g3
Ntp786
Rp787
(dp788
g19
g20
sbag1
(g15
g3
Ntp789
Rp790
(dp791
g19
(I0
I1
tp792
sbag1
(g15
g3
Ntp793
Rp794
(dp795
g19
(I1
I1
tp796
sbag1
(g15
g3
Ntp797
Rp798
(dp799
g19
(I2
I1
tp800
sbag1
(g15
g3
Ntp801
Rp802
(dp803
g19
(I2
I0
tp804
sbag1
(g15
g3
Ntp805
Rp806
(dp807
g19
(I1
I0
tp808
sbag1
(g15
g3
Ntp809
Rp810
(dp811
g19
(I1
I-1
tp812
sbasg33
I7
sg34
S'HHPHH'
p813
sg36
g780
sg38
(I7
S'HHHPP'
p814
g813
tp815
sg39
g814
sbag1
(g2
g3
Ntp816
Rp817
(dp818
g7
I2
sg8
S'HPHPHHP'
p819
sg10
I00
sg11
I7
sg12
I00
sg13
(lp820
g1
(g15
g3
Ntp821
Rp822
(dp823
g19
g20
sbag1
(g15
g3
Ntp824
Rp825
(dp826
g19
(I0
I1
tp827
sbag1
(g15
g3
Ntp828
Rp829
(dp830
g19
(I1
I1
tp831
sbag1
(g15
g3
Ntp832
Rp833
(dp834
g19
(I2
I1
tp835
sbag1
(g15
g3
Ntp836
Rp837
(dp838
g19
(I2
I0
tp839
sbag1
(g15
g3
Ntp840
Rp841
(dp842
g19
(I1
I0
tp843
sbag1
(g15
g3
Ntp844
Rp845
(dp846
g19
(I1
I-1
tp847
sbasg33
I7
sg34
g40
sg36
g780
sg38
Nsg39
g40
sbag1
(g2
g3
Ntp848
Rp849
(dp850
g7
I2
sg8
S'HPHPPHH'
p851
sg10
I00
sg11
I7
sg12
I00
sg13
(lp852
g1
(g15
g3
Ntp853
Rp854
(dp855
g19
g20
sbag1
(g15
g3
Ntp856
Rp857
(dp858
g19
(I0
I1
tp859
sbag1
(g15
g3
Ntp860
Rp861
(dp862
g19
(I1
I1
tp863
sbag1
(g15
g3
Ntp864
Rp865
(dp866
g19
(I2
I1
tp867
sbag1
(g15
g3
Ntp868
Rp869
(dp870
g19
(I2
I0
tp871
sbag1
(g15
g3
Ntp872
Rp873
(dp874
g19
(I1
I0
tp875
sbag1
(g15
g3
Ntp876
Rp877
(dp878
g19
(I1
I-1
tp879
sbasg33
I7
sg34
g40
sg36
g780
sg38
Nsg39
g40
sbag1
(g2
g3
Ntp880
Rp881
(dp882
g7
I2
sg8
S'HPHPHHH'
p883
sg10
I00
sg11
I7
sg12
I00
sg13
(lp884
g1
(g15
g3
Ntp885
Rp886
(dp887
g19
g20
sbag1
(g15
g3
Ntp888
Rp889
(dp890
g19
(I0
I1
tp891
sbag1
(g15
g3
Ntp892
Rp893
(dp894
g19
(I1
I1
tp895
sbag1
(g15
g3
Ntp896
Rp897
(dp898
g19
(I2
I1
tp899
sbag1
(g15
g3
Ntp900
Rp901
(dp902
g19
(I2
I0
tp903
sbag1
(g15
g3
Ntp904
Rp905
(dp906
g19
(I1
I0
tp907
sbag1
(g15
g3
Ntp908
Rp909
(dp910
g19
(I1
I-1
tp911
sbasg33
I7
sg34
g40
sg36
g780
sg38
Nsg39
g40
sba.