(lp0
ccopy_reg
_reconstructor
p1
(cnativeChain
NativeChain
p2
c__builtin__
object
p3
Ntp4
Rp5
(dp6
S'nativeEnergy'
p7
I1
sS'hpstring'
p8
S'HPPH'
p9
sS'ifCat'
p10
NsS'generatedNumber'
p11
I0
sS'ifSub'
p12
NsS'coordinates'
p13
(lp14
g1
(ccoordinate
Coordinate
p15
g3
Ntp16
Rp17
(dp18
S'coordTuple'
p19
(I0
I0
tp20
sbag1
(g15
g3
Ntp21
Rp22
(dp23
g19
(I0
I1
tp24
sbag1
(g15
g3
Ntp25
Rp26
(dp27
g19
(I1
I1
tp28
sbag1
(g15
g3
Ntp29
Rp30
(dp31
g19
(I1
I0
tp32
sbasS'n'
p33
I4
sS'catalystPattern'
p34
NsS'vec'
p35
S'URD'
p36
sS'hpbinary'
p37
S'1001'
p38
sS'Type'
p39
NsS'substratePattern'
p40
Nsbag1
(g2
g3
Ntp41
Rp42
(dp43
g7
I1
sg8
S'HHPH'
p44
sg10
Nsg11
I0
sg12
Nsg13
(lp45
g1
(g15
g3
Ntp46
Rp47
(dp48
g19
g20
sbag1
(g15
g3
Ntp49
Rp50
(dp51
g19
(I0
I1
tp52
sbag1
(g15
g3
Ntp53
Rp54
(dp55
g19
(I1
I1
tp56
sbag1
(g15
g3
Ntp57
Rp58
(dp59
g19
(I1
I0
tp60
sbasg33
I4
sg34
Nsg35
g36
sg37
S'1101'
p61
sg39
Nsg40
Nsbag1
(g2
g3
Ntp62
Rp63
(dp64
g7
I1
sg8
S'HPHH'
p65
sg10
Nsg11
I0
sg12
Nsg13
(lp66
g1
(g15
g3
Ntp67
Rp68
(dp69
g19
g20
sbag1
(g15
g3
Ntp70
Rp71
(dp72
g19
(I0
I1
tp73
sbag1
(g15
g3
Ntp74
Rp75
(dp76
g19
(I1
I1
tp77
sbag1
(g15
g3
Ntp78
Rp79
(dp80
g19
(I1
I0
tp81
sbasg33
I4
sg34
Nsg35
g36
sg37
S'1011'
p82
sg39
Nsg40
Nsbag1
(g2
g3
Ntp83
Rp84
(dp85
g7
I1
sg8
S'HHHH'
p86
sg10
Nsg11
I0
sg12
Nsg13
(lp87
g1
(g15
g3
Ntp88
Rp89
(dp90
g19
g20
sbag1
(g15
g3
Ntp91
Rp92
(dp93
g19
(I0
I1
tp94
sbag1
(g15
g3
Ntp95
Rp96
(dp97
g19
(I1
I1
tp98
sbag1
(g15
g3
Ntp99
Rp100
(dp101
g19
(I1
I0
tp102
sbasg33
I4
sg34
Nsg35
g36
sg37
S'1111'
p103
sg39
Nsg40
Nsbag1
(g2
g3
Ntp104
Rp105
(dp106
g7
I2
sg8
S'HHPPHH'
p107
sg10
Nsg11
I0
sg12
Nsg13
(lp108
g1
(g15
g3
Ntp109
Rp110
(dp111
g19
g20
sbag1
(g15
g3
Ntp112
Rp113
(dp114
g19
(I0
I1
tp115
sbag1
(g15
g3
Ntp116
Rp117
(dp118
g19
(I0
I2
tp119
sbag1
(g15
g3
Ntp120
Rp121
(dp122
g19
(I1
I2
tp123
sbag1
(g15
g3
Ntp124
Rp125
(dp126
g19
(I1
I1
tp127
sbag1
(g15
g3
Ntp128
Rp129
(dp130
g19
(I1
I0
tp131
sbasg33
I6
sg34
Nsg35
S'UURDD'
p132
sg37
S'110011'
p133
sg39
Nsg40
Nsbag1
(g2
g3
Ntp134
Rp135
(dp136
g7
I3
sg8
S'HHPPHPPHP'
p137
sg10
Nsg11
I0
sg12
Nsg13
(lp138
g1
(g15
g3
Ntp139
Rp140
(dp141
g19
g20
sbag1
(g15
g3
Ntp142
Rp143
(dp144
g19
(I0
I1
tp145
sbag1
(g15
g3
Ntp146
Rp147
(dp148
g19
(I0
I2
tp149
sbag1
(g15
g3
Ntp150
Rp151
(dp152
g19
(I1
I2
tp153
sbag1
(g15
g3
Ntp154
Rp155
(dp156
g19
(I1
I1
tp157
sbag1
(g15
g3
Ntp158
Rp159
(dp160
g19
(I2
I1
tp161
sbag1
(g15
g3
Ntp162
Rp163
(dp164
g19
(I2
I0
tp165
sbag1
(g15
g3
Ntp166
Rp167
(dp168
g19
(I1
I0
tp169
sbag1
(g15
g3
Ntp170
Rp171
(dp172
g19
(I1
I-1
tp173
sbasg33
I9
sg34
Nsg35
S'UURDRDLD'
p174
sg37
S'110010010'
p175
sg39
Nsg40
Nsbag1
(g2
g3
Ntp176
Rp177
(dp178
g7
I3
sg8
S'HHHPHPPHP'
p179
sg10
Nsg11
I0
sg12
Nsg13
(lp180
g1
(g15
g3
Ntp181
Rp182
(dp183
g19
g20
sbag1
(g15
g3
Ntp184
Rp185
(dp186
g19
(I0
I1
tp187
sbag1
(g15
g3
Ntp188
Rp189
(dp190
g19
(I0
I2
tp191
sbag1
(g15
g3
Ntp192
Rp193
(dp194
g19
(I1
I2
tp195
sbag1
(g15
g3
Ntp196
Rp197
(dp198
g19
(I1
I1
tp199
sbag1
(g15
g3
Ntp200
Rp201
(dp202
g19
(I2
I1
tp203
sbag1
(g15
g3
Ntp204
Rp205
(dp206
g19
(I2
I0
tp207
sbag1
(g15
g3
Ntp208
Rp209
(dp210
g19
(I1
I0
tp211
sbag1
(g15
g3
Ntp212
Rp213
(dp214
g19
(I1
I-1
tp215
sbasg33
I9
sg34
Nsg35
g174
sg37
S'111010010'
p216
sg39
Nsg40
Nsbag1
(g2
g3
Ntp217
Rp218
(dp219
g7
I4
sg8
S'HPHPPHPPHH'
p220
sg10
Nsg11
I0
sg12
Nsg13
(lp221
g1
(g15
g3
Ntp222
Rp223
(dp224
g19
g20
sbag1
(g15
g3
Ntp225
Rp226
(dp227
g19
(I0
I1
tp228
sbag1
(g15
g3
Ntp229
Rp230
(dp231
g19
(I1
I1
tp232
sbag1
(g15
g3
Ntp233
Rp234
(dp235
g19
(I1
I2
tp236
sbag1
(g15
g3
Ntp237
Rp238
(dp239
g19
(I2
I2
tp240
sbag1
(g15
g3
Ntp241
Rp242
(dp243
g19
(I2
I1
tp244
sbag1
(g15
g3
Ntp245
Rp246
(dp247
g19
(I3
I1
tp248
sbag1
(g15
g3
Ntp249
Rp250
(dp251
g19
(I3
I0
tp252
sbag1
(g15
g3
Ntp253
Rp254
(dp255
g19
(I2
I0
tp256
sbag1
(g15
g3
Ntp257
Rp258
(dp259
g19
(I1
I0
tp260
sbasg33
I10
sg34
Nsg35
S'URURDRDLL'
p261
sg37
S'1010010011'
p262
sg39
Nsg40
Nsbag1
(g2
g3
Ntp263
Rp264
(dp265
g7
I2
sg8
S'PHPPHPH'
p266
sg10
Nsg11
I0
sg12
Nsg13
(lp267
g1
(g15
g3
Ntp268
Rp269
(dp270
g19
g20
sbag1
(g15
g3
Ntp271
Rp272
(dp273
g19
(I0
I1
tp274
sbag1
(g15
g3
Ntp275
Rp276
(dp277
g19
(I1
I1
tp278
sbag1
(g15
g3
Ntp279
Rp280
(dp281
g19
(I1
I2
tp282
sbag1
(g15
g3
Ntp283
Rp284
(dp285
g19
(I0
I2
tp286
sbag1
(g15
g3
Ntp287
Rp288
(dp289
g19
(I-1
I2
tp290
sbag1
(g15
g3
Ntp291
Rp292
(dp293
g19
(I-1
I1
tp294
sbasg33
I7
sg34
Nsg35
S'URULLD'
p295
sg37
S'0100101'
p296
sg39
Nsg40
Nsbag1
(g2
g3
Ntp297
Rp298
(dp299
g7
I2
sg8
S'HHPPHPH'
p300
sg10
Nsg11
I0
sg12
Nsg13
(lp301
g1
(g15
g3
Ntp302
Rp303
(dp304
g19
g20
sbag1
(g15
g3
Ntp305
Rp306
(dp307
g19
(I0
I1
tp308
sbag1
(g15
g3
Ntp309
Rp310
(dp311
g19
(I1
I1
tp312
sbag1
(g15
g3
Ntp313
Rp314
(dp315
g19
(I1
I2
tp316
sbag1
(g15
g3
Ntp317
Rp318
(dp319
g19
(I0
I2
tp320
sbag1
(g15
g3
Ntp321
Rp322
(dp323
g19
(I-1
I2
tp324
sbag1
(g15
g3
Ntp325
Rp326
(dp327
g19
(I-1
I1
tp328
sbasg33
I7
sg34
Nsg35
g295
sg37
S'1100101'
p329
sg39
Nsg40
Nsbag1
(g2
g3
Ntp330
Rp331
(dp332
g7
I2
sg8
S'PHHPHPH'
p333
sg10
Nsg11
I0
sg12
Nsg13
(lp334
g1
(g15
g3
Ntp335
Rp336
(dp337
g19
g20
sbag1
(g15
g3
Ntp338
Rp339
(dp340
g19
(I0
I1
tp341
sbag1
(g15
g3
Ntp342
Rp343
(dp344
g19
(I1
I1
tp345
sbag1
(g15
g3
Ntp346
Rp347
(dp348
g19
(I1
I2
tp349
sbag1
(g15
g3
Ntp350
Rp351
(dp352
g19
(I0
I2
tp353
sbag1
(g15
g3
Ntp354
Rp355
(dp356
g19
(I-1
I2
tp357
sbag1
(g15
g3
Ntp358
Rp359
(dp360
g19
(I-1
I1
tp361
sbasg33
I7
sg34
Nsg35
g295
sg37
S'0110101'
p362
sg39
Nsg40
Nsbag1
(g2
g3
Ntp363
Rp364
(dp365
g7
I2
sg8
S'HHHPHPH'
p366
sg10
Nsg11
I0
sg12
Nsg13
(lp367
g1
(g15
g3
Ntp368
Rp369
(dp370
g19
g20
sbag1
(g15
g3
Ntp371
Rp372
(dp373
g19
(I0
I1
tp374
sbag1
(g15
g3
Ntp375
Rp376
(dp377
g19
(I1
I1
tp378
sbag1
(g15
g3
Ntp379
Rp380
(dp381
g19
(I1
I2
tp382
sbag1
(g15
g3
Ntp383
Rp384
(dp385
g19
(I0
I2
tp386
sbag1
(g15
g3
Ntp387
Rp388
(dp389
g19
(I-1
I2
tp390
sbag1
(g15
g3
Ntp391
Rp392
(dp393
g19
(I-1
I1
tp394
sbasg33
I7
sg34
Nsg35
g295
sg37
S'1110101'
p395
sg39
Nsg40
Nsbag1
(g2
g3
Ntp396
Rp397
(dp398
g7
I2
sg8
S'PHPPHHH'
p399
sg10
Nsg11
I0
sg12
Nsg13
(lp400
g1
(g15
g3
Ntp401
Rp402
(dp403
g19
g20
sbag1
(g15
g3
Ntp404
Rp405
(dp406
g19
(I0
I1
tp407
sbag1
(g15
g3
Ntp408
Rp409
(dp410
g19
(I1
I1
tp411
sbag1
(g15
g3
Ntp412
Rp413
(dp414
g19
(I1
I2
tp415
sbag1
(g15
g3
Ntp416
Rp417
(dp418
g19
(I0
I2
tp419
sbag1
(g15
g3
Ntp420
Rp421
(dp422
g19
(I-1
I2
tp423
sbag1
(g15
g3
Ntp424
Rp425
(dp426
g19
(I-1
I1
tp427
sbasg33
I7
sg34
Nsg35
g295
sg37
S'0100111'
p428
sg39
Nsg40
Nsbag1
(g2
g3
Ntp429
Rp430
(dp431
g7
I3
sg8
S'PHPPHPPHH'
p432
sg10
Nsg11
I0
sg12
Nsg13
(lp433
g1
(g15
g3
Ntp434
Rp435
(dp436
g19
g20
sbag1
(g15
g3
Ntp437
Rp438
(dp439
g19
(I0
I1
tp440
sbag1
(g15
g3
Ntp441
Rp442
(dp443
g19
(I1
I1
tp444
sbag1
(g15
g3
Ntp445
Rp446
(dp447
g19
(I1
I2
tp448
sbag1
(g15
g3
Ntp449
Rp450
(dp451
g19
(I0
I2
tp452
sbag1
(g15
g3
Ntp453
Rp454
(dp455
g19
(I0
I3
tp456
sbag1
(g15
g3
Ntp457
Rp458
(dp459
g19
(I-1
I3
tp460
sbag1
(g15
g3
Ntp461
Rp462
(dp463
g19
(I-1
I2
tp464
sbag1
(g15
g3
Ntp465
Rp466
(dp467
g19
(I-1
I1
tp468
sbasg33
I9
sg34
Nsg35
S'URULULDD'
p469
sg37
S'010010011'
p470
sg39
Nsg40
Nsbag1
(g2
g3
Ntp471
Rp472
(dp473
g7
I3
sg8
S'PHPPHPHHH'
p474
sg10
Nsg11
I0
sg12
Nsg13
(lp475
g1
(g15
g3
Ntp476
Rp477
(dp478
g19
g20
sbag1
(g15
g3
Ntp479
Rp480
(dp481
g19
(I0
I1
tp482
sbag1
(g15
g3
Ntp483
Rp484
(dp485
g19
(I1
I1
tp486
sbag1
(g15
g3
Ntp487
Rp488
(dp489
g19
(I1
I2
tp490
sbag1
(g15
g3
Ntp491
Rp492
(dp493
g19
(I0
I2
tp494
sbag1
(g15
g3
Ntp495
Rp496
(dp497
g19
(I0
I3
tp498
sbag1
(g15
g3
Ntp499
Rp500
(dp501
g19
(I-1
I3
tp502
sbag1
(g15
g3
Ntp503
Rp504
(dp505
g19
(I-1
I2
tp506
sbag1
(g15
g3
Ntp507
Rp508
(dp509
g19
(I-1
I1
tp510
sbasg33
I9
sg34
Nsg35
g469
sg37
S'010010111'
p511
sg39
Nsg40
Nsbag1
(g2
g3
Ntp512
Rp513
(dp514
g7
I3
sg8
S'HPHPHPPH'
p515
sg10
Nsg11
I0
sg12
Nsg13
(lp516
g1
(g15
g3
Ntp517
Rp518
(dp519
g19
g20
sbag1
(g15
g3
Ntp520
Rp521
(dp522
g19
(I0
I1
tp523
sbag1
(g15
g3
Ntp524
Rp525
(dp526
g19
(I1
I1
tp527
sbag1
(g15
g3
Ntp528
Rp529
(dp530
g19
(I2
I1
tp531
sbag1
(g15
g3
Ntp532
Rp533
(dp534
g19
(I2
I0
tp535
sbag1
(g15
g3
Ntp536
Rp537
(dp538
g19
(I2
I-1
tp539
sbag1
(g15
g3
Ntp540
Rp541
(dp542
g19
(I1
I-1
tp543
sbag1
(g15
g3
Ntp544
Rp545
(dp546
g19
(I1
I0
tp547
sbasg33
I8
sg34
Nsg35
S'URRDDLU'
p548
sg37
S'10101001'
p549
sg39
Nsg40
Nsbag1
(g2
g3
Ntp550
Rp551
(dp552
g7
I3
sg8
S'HPHPHPHH'
p553
sg10
Nsg11
I0
sg12
Nsg13
(lp554
g1
(g15
g3
Ntp555
Rp556
(dp557
g19
g20
sbag1
(g15
g3
Ntp558
Rp559
(dp560
g19
(I0
I1
tp561
sbag1
(g15
g3
Ntp562
Rp563
(dp564
g19
(I1
I1
tp565
sbag1
(g15
g3
Ntp566
Rp567
(dp568
g19
(I2
I1
tp569
sbag1
(g15
g3
Ntp570
Rp571
(dp572
g19
(I2
I0
tp573
sbag1
(g15
g3
Ntp574
Rp575
(dp576
g19
(I2
I-1
tp577
sbag1
(g15
g3
Ntp578
Rp579
(dp580
g19
(I1
I-1
tp581
sbag1
(g15
g3
Ntp582
Rp583
(dp584
g19
(I1
I0
tp585
sbasg33
I8
sg34
Nsg35
g548
sg37
S'10101011'
p586
sg39
Nsg40
Nsbag1
(g2
g3
Ntp587
Rp588
(dp589
g7
I4
sg8
S'HPPHPPHPPH'
p590
sg10
Nsg11
I0
sg12
Nsg13
(lp591
g1
(g15
g3
Ntp592
Rp593
(dp594
g19
g20
sbag1
(g15
g3
Ntp595
Rp596
(dp597
g19
(I0
I1
tp598
sbag1
(g15
g3
Ntp599
Rp600
(dp601
g19
(I1
I1
tp602
sbag1
(g15
g3
Ntp603
Rp604
(dp605
g19
(I1
I0
tp606
sbag1
(g15
g3
Ntp607
Rp608
(dp609
g19
(I2
I0
tp610
sbag1
(g15
g3
Ntp611
Rp612
(dp613
g19
(I2
I-1
tp614
sbag1
(g15
g3
Ntp615
Rp616
(dp617
g19
(I1
I-1
tp618
sbag1
(g15
g3
Ntp619
Rp620
(dp621
g19
(I1
I-2
tp622
sbag1
(g15
g3
Ntp623
Rp624
(dp625
g19
(I0
I-2
tp626
sbag1
(g15
g3
Ntp627
Rp628
(dp629
g19
(I0
I-1
tp630
sbasg33
I10
sg34
Nsg35
S'URDRDLDLU'
p631
sg37
S'1001001001'
p632
sg39
Nsg40
Nsbag1
(g2
g3
Ntp633
Rp634
(dp635
g7
I4
sg8
S'HHPHPPHPPH'
p636
sg10
Nsg11
I0
sg12
Nsg13
(lp637
g1
(g15
g3
Ntp638
Rp639
(dp640
g19
g20
sbag1
(g15
g3
Ntp641
Rp642
(dp643
g19
(I0
I1
tp644
sbag1
(g15
g3
Ntp645
Rp646
(dp647
g19
(I1
I1
tp648
sbag1
(g15
g3
Ntp649
Rp650
(dp651
g19
(I1
I0
tp652
sbag1
(g15
g3
Ntp653
Rp654
(dp655
g19
(I2
I0
tp656
sbag1
(g15
g3
Ntp657
Rp658
(dp659
g19
(I2
I-1
tp660
sbag1
(g15
g3
Ntp661
Rp662
(dp663
g19
(I1
I-1
tp664
sbag1
(g15
g3
Ntp665
Rp666
(dp667
g19
(I1
I-2
tp668
sbag1
(g15
g3
Ntp669
Rp670
(dp671
g19
(I0
I-2
tp672
sbag1
(g15
g3
Ntp673
Rp674
(dp675
g19
(I0
I-1
tp676
sbasg33
I10
sg34
Nsg35
g631
sg37
S'1101001001'
p677
sg39
Nsg40
Nsbag1
(g2
g3
Ntp678
Rp679
(dp680
g7
I4
sg8
S'HPPHPPHPHH'
p681
sg10
Nsg11
I0
sg12
Nsg13
(lp682
g1
(g15
g3
Ntp683
Rp684
(dp685
g19
g20
sbag1
(g15
g3
Ntp686
Rp687
(dp688
g19
(I0
I1
tp689
sbag1
(g15
g3
Ntp690
Rp691
(dp692
g19
(I1
I1
tp693
sbag1
(g15
g3
Ntp694
Rp695
(dp696
g19
(I1
I0
tp697
sbag1
(g15
g3
Ntp698
Rp699
(dp700
g19
(I2
I0
tp701
sbag1
(g15
g3
Ntp702
Rp703
(dp704
g19
(I2
I-1
tp705
sbag1
(g15
g3
Ntp706
Rp707
(dp708
g19
(I1
I-1
tp709
sbag1
(g15
g3
Ntp710
Rp711
(dp712
g19
(I1
I-2
tp713
sbag1
(g15
g3
Ntp714
Rp715
(dp716
g19
(I0
I-2
tp717
sbag1
(g15
g3
Ntp718
Rp719
(dp720
g19
(I0
I-1
tp721
sbasg33
I10
sg34
Nsg35
g631
sg37
S'1001001011'
p722
sg39
Nsg40
Nsbag1
(g2
g3
Ntp723
Rp724
(dp725
g7
I2
sg8
S'HPPHPH'
p726
sg10
Nsg11
I0
sg12
Nsg13
(lp727
g1
(g15
g3
Ntp728
Rp729
(dp730
g19
g20
sbag1
(g15
g3
Ntp731
Rp732
(dp733
g19
(I0
I1
tp734
sbag1
(g15
g3
Ntp735
Rp736
(dp737
g19
(I1
I1
tp738
sbag1
(g15
g3
Ntp739
Rp740
(dp741
g19
(I1
I0
tp742
sbag1
(g15
g3
Ntp743
Rp744
(dp745
g19
(I1
I-1
tp746
sbag1
(g15
g3
Ntp747
Rp748
(dp749
g19
(I0
I-1
tp750
sbasg33
I6
sg34
Nsg35
S'URDDL'
p751
sg37
S'100101'
p752
sg39
Nsg40
Nsbag1
(g2
g3
Ntp753
Rp754
(dp755
g7
I2
sg8
S'HHPHPH'
p756
sg10
Nsg11
I0
sg12
Nsg13
(lp757
g1
(g15
g3
Ntp758
Rp759
(dp760
g19
g20
sbag1
(g15
g3
Ntp761
Rp762
(dp763
g19
(I0
I1
tp764
sbag1
(g15
g3
Ntp765
Rp766
(dp767
g19
(I1
I1
tp768
sbag1
(g15
g3
Ntp769
Rp770
(dp771
g19
(I1
I0
tp772
sbag1
(g15
g3
Ntp773
Rp774
(dp775
g19
(I1
I-1
tp776
sbag1
(g15
g3
Ntp777
Rp778
(dp779
g19
(I0
I-1
tp780
sbasg33
I6
sg34
Nsg35
g751
sg37
S'110101'
p781
sg39
Nsg40
Nsbag1
(g2
g3
Ntp782
Rp783
(dp784
g7
I2
sg8
S'HPPHHH'
p785
sg10
Nsg11
I0
sg12
Nsg13
(lp786
g1
(g15
g3
Ntp787
Rp788
(dp789
g19
g20
sbag1
(g15
g3
Ntp790
Rp791
(dp792
g19
(I0
I1
tp793
sbag1
(g15
g3
Ntp794
Rp795
(dp796
g19
(I1
I1
tp797
sbag1
(g15
g3
Ntp798
Rp799
(dp800
g19
(I1
I0
tp801
sbag1
(g15
g3
Ntp802
Rp803
(dp804
g19
(I1
I-1
tp805
sbag1
(g15
g3
Ntp806
Rp807
(dp808
g19
(I0
I-1
tp809
sbasg33
I6
sg34
Nsg35
g751
sg37
S'100111'
p810
sg39
Nsg40
Nsbag1
(g2
g3
Ntp811
Rp812
(dp813
g7
I3
sg8
S'HPPHHPPH'
p814
sg10
Nsg11
I0
sg12
Nsg13
(lp815
g1
(g15
g3
Ntp816
Rp817
(dp818
g19
g20
sbag1
(g15
g3
Ntp819
Rp820
(dp821
g19
(I0
I1
tp822
sbag1
(g15
g3
Ntp823
Rp824
(dp825
g19
(I1
I1
tp826
sbag1
(g15
g3
Ntp827
Rp828
(dp829
g19
(I1
I0
tp830
sbag1
(g15
g3
Ntp831
Rp832
(dp833
g19
(I1
I-1
tp834
sbag1
(g15
g3
Ntp835
Rp836
(dp837
g19
(I1
I-2
tp838
sbag1
(g15
g3
Ntp839
Rp840
(dp841
g19
(I0
I-2
tp842
sbag1
(g15
g3
Ntp843
Rp844
(dp845
g19
(I0
I-1
tp846
sbasg33
I8
sg34
Nsg35
S'URDDDLU'
p847
sg37
S'10011001'
p848
sg39
Nsg40
Nsbag1
(g2
g3
Ntp849
Rp850
(dp851
g7
I3
sg8
S'HPPHHPPHP'
p852
sg10
Nsg11
I0
sg12
Nsg13
(lp853
g1
(g15
g3
Ntp854
Rp855
(dp856
g19
g20
sbag1
(g15
g3
Ntp857
Rp858
(dp859
g19
(I0
I1
tp860
sbag1
(g15
g3
Ntp861
Rp862
(dp863
g19
(I1
I1
tp864
sbag1
(g15
g3
Ntp865
Rp866
(dp867
g19
(I1
I0
tp868
sbag1
(g15
g3
Ntp869
Rp870
(dp871
g19
(I1
I-1
tp872
sbag1
(g15
g3
Ntp873
Rp874
(dp875
g19
(I1
I-2
tp876
sbag1
(g15
g3
Ntp877
Rp878
(dp879
g19
(I0
I-2
tp880
sbag1
(g15
g3
Ntp881
Rp882
(dp883
g19
(I0
I-1
tp884
sbag1
(g15
g3
Ntp885
Rp886
(dp887
g19
(I-1
I-1
tp888
sbasg33
I9
sg34
Nsg35
S'URDDDLUL'
p889
sg37
S'100110010'
p890
sg39
Nsg40
Nsbag1
(g2
g3
Ntp891
Rp892
(dp893
g7
I3
sg8
S'HPPHPPHH'
p894
sg10
Nsg11
I0
sg12
Nsg13
(lp895
g1
(g15
g3
Ntp896
Rp897
(dp898
g19
g20
sbag1
(g15
g3
Ntp899
Rp900
(dp901
g19
(I0
I1
tp902
sbag1
(g15
g3
Ntp903
Rp904
(dp905
g19
(I1
I1
tp906
sbag1
(g15
g3
Ntp907
Rp908
(dp909
g19
(I1
I0
tp910
sbag1
(g15
g3
Ntp911
Rp912
(dp913
g19
(I2
I0
tp914
sbag1
(g15
g3
Ntp915
Rp916
(dp917
g19
(I2
I-1
tp918
sbag1
(g15
g3
Ntp919
Rp920
(dp921
g19
(I1
I-1
tp922
sbag1
(g15
g3
Ntp923
Rp924
(dp925
g19
(I0
I-1
tp926
sbasg33
I8
sg34
Nsg35
S'URDRDLL'
p927
sg37
S'10010011'
p928
sg39
Nsg40
Nsbag1
(g2
g3
Ntp929
Rp930
(dp931
g7
I3
sg8
S'PHPPHHPPH'
p932
sg10
Nsg11
I0
sg12
Nsg13
(lp933
g1
(g15
g3
Ntp934
Rp935
(dp936
g19
g20
sbag1
(g15
g3
Ntp937
Rp938
(dp939
g19
(I0
I1
tp940
sbag1
(g15
g3
Ntp941
Rp942
(dp943
g19
(I1
I1
tp944
sbag1
(g15
g3
Ntp945
Rp946
(dp947
g19
(I1
I2
tp948
sbag1
(g15
g3
Ntp949
Rp950
(dp951
g19
(I0
I2
tp952
sbag1
(g15
g3
Ntp953
Rp954
(dp955
g19
(I-1
I2
tp956
sbag1
(g15
g3
Ntp957
Rp958
(dp959
g19
(I-2
I2
tp960
sbag1
(g15
g3
Ntp961
Rp962
(dp963
g19
(I-2
I1
tp964
sbag1
(g15
g3
Ntp965
Rp966
(dp967
g19
(I-1
I1
tp968
sbasg33
I9
sg34
Nsg35
S'URULLLDR'
p969
sg37
S'010011001'
p970
sg39
Nsg40
Nsbag1
(g2
g3
Ntp971
Rp972
(dp973
g7
I3
sg8
S'HPPHPHPH'
p974
sg10
Nsg11
I0
sg12
Nsg13
(lp975
g1
(g15
g3
Ntp976
Rp977
(dp978
g19
g20
sbag1
(g15
g3
Ntp979
Rp980
(dp981
g19
(I0
I1
tp982
sbag1
(g15
g3
Ntp983
Rp984
(dp985
g19
(I1
I1
tp986
sbag1
(g15
g3
Ntp987
Rp988
(dp989
g19
(I1
I0
tp990
sbag1
(g15
g3
Ntp991
Rp992
(dp993
g19
(I1
I-1
tp994
sbag1
(g15
g3
Ntp995
Rp996
(dp997
g19
(I0
I-1
tp998
sbag1
(g15
g3
Ntp999
Rp1000
(dp1001
g19
(I-1
I-1
tp1002
sbag1
(g15
g3
Ntp1003
Rp1004
(dp1005
g19
(I-1
I0
tp1006
sbasg33
I8
sg34
Nsg35
S'URDDLLU'
p1007
sg37
S'10010101'
p1008
sg39
Nsg40
Nsbag1
(g2
g3
Ntp1009
Rp1010
(dp1011
g7
I3
sg8
S'HHPHPHPH'
p1012
sg10
Nsg11
I0
sg12
Nsg13
(lp1013
g1
(g15
g3
Ntp1014
Rp1015
(dp1016
g19
g20
sbag1
(g15
g3
Ntp1017
Rp1018
(dp1019
g19
(I0
I1
tp1020
sbag1
(g15
g3
Ntp1021
Rp1022
(dp1023
g19
(I1
I1
tp1024
sbag1
(g15
g3
Ntp1025
Rp1026
(dp1027
g19
(I1
I0
tp1028
sbag1
(g15
g3
Ntp1029
Rp1030
(dp1031
g19
(I1
I-1
tp1032
sbag1
(g15
g3
Ntp1033
Rp1034
(dp1035
g19
(I0
I-1
tp1036
sbag1
(g15
g3
Ntp1037
Rp1038
(dp1039
g19
(I-1
I-1
tp1040
sbag1
(g15
g3
Ntp1041
Rp1042
(dp1043
g19
(I-1
I0
tp1044
sbasg33
I8
sg34
Nsg35
g1007
sg37
S'11010101'
p1045
sg39
Nsg40
Nsbag1
(g2
g3
Ntp1046
Rp1047
(dp1048
g7
I2
sg8
S'HPHPPH'
p1049
sg10
Nsg11
I0
sg12
Nsg13
(lp1050
g1
(g15
g3
Ntp1051
Rp1052
(dp1053
g19
g20
sbag1
(g15
g3
Ntp1054
Rp1055
(dp1056
g19
(I0
I1
tp1057
sbag1
(g15
g3
Ntp1058
Rp1059
(dp1060
g19
(I1
I1
tp1061
sbag1
(g15
g3
Ntp1062
Rp1063
(dp1064
g19
(I2
I1
tp1065
sbag1
(g15
g3
Ntp1066
Rp1067
(dp1068
g19
(I2
I0
tp1069
sbag1
(g15
g3
Ntp1070
Rp1071
(dp1072
g19
(I1
I0
tp1073
sbasg33
I6
sg34
Nsg35
S'URRDL'
p1074
sg37
S'101001'
p1075
sg39
Nsg40
Nsbag1
(g2
g3
Ntp1076
Rp1077
(dp1078
g7
I2
sg8
S'HHHPPH'
p1079
sg10
Nsg11
I0
sg12
Nsg13
(lp1080
g1
(g15
g3
Ntp1081
Rp1082
(dp1083
g19
g20
sbag1
(g15
g3
Ntp1084
Rp1085
(dp1086
g19
(I0
I1
tp1087
sbag1
(g15
g3
Ntp1088
Rp1089
(dp1090
g19
(I1
I1
tp1091
sbag1
(g15
g3
Ntp1092
Rp1093
(dp1094
g19
(I2
I1
tp1095
sbag1
(g15
g3
Ntp1096
Rp1097
(dp1098
g19
(I2
I0
tp1099
sbag1
(g15
g3
Ntp1100
Rp1101
(dp1102
g19
(I1
I0
tp1103
sbasg33
I6
sg34
Nsg35
g1074
sg37
S'111001'
p1104
sg39
Nsg40
Nsbag1
(g2
g3
Ntp1105
Rp1106
(dp1107
g7
I2
sg8
S'HPHPHH'
p1108
sg10
Nsg11
I0
sg12
Nsg13
(lp1109
g1
(g15
g3
Ntp1110
Rp1111
(dp1112
g19
g20
sbag1
(g15
g3
Ntp1113
Rp1114
(dp1115
g19
(I0
I1
tp1116
sbag1
(g15
g3
Ntp1117
Rp1118
(dp1119
g19
(I1
I1
tp1120
sbag1
(g15
g3
Ntp1121
Rp1122
(dp1123
g19
(I2
I1
tp1124
sbag1
(g15
g3
Ntp1125
Rp1126
(dp1127
g19
(I2
I0
tp1128
sbag1
(g15
g3
Ntp1129
Rp1130
(dp1131
g19
(I1
I0
tp1132
sbasg33
I6
sg34
Nsg35
g1074
sg37
S'101011'
p1133
sg39
Nsg40
Nsbag1
(g2
g3
Ntp1134
Rp1135
(dp1136
g7
I3
sg8
S'PHPPHHPPHP'
p1137
sg10
Nsg11
I0
sg12
Nsg13
(lp1138
g1
(g15
g3
Ntp1139
Rp1140
(dp1141
g19
g20
sbag1
(g15
g3
Ntp1142
Rp1143
(dp1144
g19
(I0
I1
tp1145
sbag1
(g15
g3
Ntp1146
Rp1147
(dp1148
g19
(I1
I1
tp1149
sbag1
(g15
g3
Ntp1150
Rp1151
(dp1152
g19
(I1
I2
tp1153
sbag1
(g15
g3
Ntp1154
Rp1155
(dp1156
g19
(I0
I2
tp1157
sbag1
(g15
g3
Ntp1158
Rp1159
(dp1160
g19
(I-1
I2
tp1161
sbag1
(g15
g3
Ntp1162
Rp1163
(dp1164
g19
(I-2
I2
tp1165
sbag1
(g15
g3
Ntp1166
Rp1167
(dp1168
g19
(I-2
I1
tp1169
sbag1
(g15
g3
Ntp1170
Rp1171
(dp1172
g19
(I-1
I1
tp1173
sbag1
(g15
g3
Ntp1174
Rp1175
(dp1176
g19
(I-1
I0
tp1177
sbasg33
I10
sg34
Nsg35
S'URULLLDRD'
p1178
sg37
S'0100110010'
p1179
sg39
Nsg40
Nsbag1
(g2
g3
Ntp1180
Rp1181
(dp1182
g7
I4
sg8
S'HHPPHPPHPH'
p1183
sg10
Nsg11
I0
sg12
Nsg13
(lp1184
g1
(g15
g3
Ntp1185
Rp1186
(dp1187
g19
g20
sbag1
(g15
g3
Ntp1188
Rp1189
(dp1190
g19
(I0
I1
tp1191
sbag1
(g15
g3
Ntp1192
Rp1193
(dp1194
g19
(I0
I2
tp1195
sbag1
(g15
g3
Ntp1196
Rp1197
(dp1198
g19
(I1
I2
tp1199
sbag1
(g15
g3
Ntp1200
Rp1201
(dp1202
g19
(I1
I1
tp1203
sbag1
(g15
g3
Ntp1204
Rp1205
(dp1206
g19
(I2
I1
tp1207
sbag1
(g15
g3
Ntp1208
Rp1209
(dp1210
g19
(I2
I0
tp1211
sbag1
(g15
g3
Ntp1212
Rp1213
(dp1214
g19
(I1
I0
tp1215
sbag1
(g15
g3
Ntp1216
Rp1217
(dp1218
g19
(I1
I-1
tp1219
sbag1
(g15
g3
Ntp1220
Rp1221
(dp1222
g19
(I0
I-1
tp1223
sbasg33
I10
sg34
Nsg35
S'UURDRDLDL'
p1224
sg37
S'1100100101'
p1225
sg39
Nsg40
Nsbag1
(g2
g3
Ntp1226
Rp1227
(dp1228
g7
I3
sg8
S'HHPPHPPH'
p1229
sg10
Nsg11
I0
sg12
Nsg13
(lp1230
g1
(g15
g3
Ntp1231
Rp1232
(dp1233
g19
g20
sbag1
(g15
g3
Ntp1234
Rp1235
(dp1236
g19
(I0
I1
tp1237
sbag1
(g15
g3
Ntp1238
Rp1239
(dp1240
g19
(I0
I2
tp1241
sbag1
(g15
g3
Ntp1242
Rp1243
(dp1244
g19
(I1
I2
tp1245
sbag1
(g15
g3
Ntp1246
Rp1247
(dp1248
g19
(I1
I1
tp1249
sbag1
(g15
g3
Ntp1250
Rp1251
(dp1252
g19
(I2
I1
tp1253
sbag1
(g15
g3
Ntp1254
Rp1255
(dp1256
g19
(I2
I0
tp1257
sbag1
(g15
g3
Ntp1258
Rp1259
(dp1260
g19
(I1
I0
tp1261
sbasg33
I8
sg34
Nsg35
S'UURDRDL'
p1262
sg37
S'11001001'
p1263
sg39
Nsg40
Nsbag1
(g2
g3
Ntp1264
Rp1265
(dp1266
g7
I2
sg8
S'HPHPPHP'
p1267
sg10
Nsg11
I0
sg12
Nsg13
(lp1268
g1
(g15
g3
Ntp1269
Rp1270
(dp1271
g19
g20
sbag1
(g15
g3
Ntp1272
Rp1273
(dp1274
g19
(I0
I1
tp1275
sbag1
(g15
g3
Ntp1276
Rp1277
(dp1278
g19
(I1
I1
tp1279
sbag1
(g15
g3
Ntp1280
Rp1281
(dp1282
g19
(I2
I1
tp1283
sbag1
(g15
g3
Ntp1284
Rp1285
(dp1286
g19
(I2
I0
tp1287
sbag1
(g15
g3
Ntp1288
Rp1289
(dp1290
g19
(I1
I0
tp1291
sbag1
(g15
g3
Ntp1292
Rp1293
(dp1294
g19
(I1
I-1
tp1295
sbasg33
I7
sg34
Nsg35
S'URRDLD'
p1296
sg37
S'1010010'
p1297
sg39
Nsg40
Nsbag1
(g2
g3
Ntp1298
Rp1299
(dp1300
g7
I2
sg8
S'HHHPPHP'
p1301
sg10
Nsg11
I0
sg12
Nsg13
(lp1302
g1
(g15
g3
Ntp1303
Rp1304
(dp1305
g19
g20
sbag1
(g15
g3
Ntp1306
Rp1307
(dp1308
g19
(I0
I1
tp1309
sbag1
(g15
g3
Ntp1310
Rp1311
(dp1312
g19
(I1
I1
tp1313
sbag1
(g15
g3
Ntp1314
Rp1315
(dp1316
g19
(I2
I1
tp1317
sbag1
(g15
g3
Ntp1318
Rp1319
(dp1320
g19
(I2
I0
tp1321
sbag1
(g15
g3
Ntp1322
Rp1323
(dp1324
g19
(I1
I0
tp1325
sbag1
(g15
g3
Ntp1326
Rp1327
(dp1328
g19
(I1
I-1
tp1329
sbasg33
I7
sg34
Nsg35
g1296
sg37
S'1110010'
p1330
sg39
Nsg40
Nsbag1
(g2
g3
Ntp1331
Rp1332
(dp1333
g7
I2
sg8
S'HPHPHHP'
p1334
sg10
Nsg11
I0
sg12
Nsg13
(lp1335
g1
(g15
g3
Ntp1336
Rp1337
(dp1338
g19
g20
sbag1
(g15
g3
Ntp1339
Rp1340
(dp1341
g19
(I0
I1
tp1342
sbag1
(g15
g3
Ntp1343
Rp1344
(dp1345
g19
(I1
I1
tp1346
sbag1
(g15
g3
Ntp1347
Rp1348
(dp1349
g19
(I2
I1
tp1350
sbag1
(g15
g3
Ntp1351
Rp1352
(dp1353
g19
(I2
I0
tp1354
sbag1
(g15
g3
Ntp1355
Rp1356
(dp1357
g19
(I1
I0
tp1358
sbag1
(g15
g3
Ntp1359
Rp1360
(dp1361
g19
(I1
I-1
tp1362
sbasg33
I7
sg34
Nsg35
g1296
sg37
S'1010110'
p1363
sg39
Nsg40
Nsbag1
(g2
g3
Ntp1364
Rp1365
(dp1366
g7
I2
sg8
S'HPHPPHH'
p1367
sg10
Nsg11
I0
sg12
Nsg13
(lp1368
g1
(g15
g3
Ntp1369
Rp1370
(dp1371
g19
g20
sbag1
(g15
g3
Ntp1372
Rp1373
(dp1374
g19
(I0
I1
tp1375
sbag1
(g15
g3
Ntp1376
Rp1377
(dp1378
g19
(I1
I1
tp1379
sbag1
(g15
g3
Ntp1380
Rp1381
(dp1382
g19
(I2
I1
tp1383
sbag1
(g15
g3
Ntp1384
Rp1385
(dp1386
g19
(I2
I0
tp1387
sbag1
(g15
g3
Ntp1388
Rp1389
(dp1390
g19
(I1
I0
tp1391
sbag1
(g15
g3
Ntp1392
Rp1393
(dp1394
g19
(I1
I-1
tp1395
sbasg33
I7
sg34
Nsg35
g1296
sg37
S'1010011'
p1396
sg39
Nsg40
Nsbag1
(g2
g3
Ntp1397
Rp1398
(dp1399
g7
I2
sg8
S'HPHPHHH'
p1400
sg10
Nsg11
I0
sg12
Nsg13
(lp1401
g1
(g15
g3
Ntp1402
Rp1403
(dp1404
g19
g20
sbag1
(g15
g3
Ntp1405
Rp1406
(dp1407
g19
(I0
I1
tp1408
sbag1
(g15
g3
Ntp1409
Rp1410
(dp1411
g19
(I1
I1
tp1412
sbag1
(g15
g3
Ntp1413
Rp1414
(dp1415
g19
(I2
I1
tp1416
sbag1
(g15
g3
Ntp1417
Rp1418
(dp1419
g19
(I2
I0
tp1420
sbag1
(g15
g3
Ntp1421
Rp1422
(dp1423
g19
(I1
I0
tp1424
sbag1
(g15
g3
Ntp1425
Rp1426
(dp1427
g19
(I1
I-1
tp1428
sbasg33
I7
sg34
Nsg35
g1296
sg37
S'1010111'
p1429
sg39
Nsg40
Nsba.