(lp0
ccopy_reg
_reconstructor
p1
(cnativeChain
NativeChain
p2
c__builtin__
object
p3
Ntp4
Rp5
(dp6
S'nativeEnergy'
p7
I1
sS'hpstring'
p8
S'HPPH'
p9
sS'ifCat'
p10
I01
sS'generatedNumber'
p11
I0
sS'ifSub'
p12
I00
sS'coordinates'
p13
(lp14
g1
(ccoordinate
Coordinate
p15
g3
Ntp16
Rp17
(dp18
S'coordTuple'
p19
(I0
I0
tp20
sbag1
(g15
g3
Ntp21
Rp22
(dp23
g19
(I0
I1
tp24
sbag1
(g15
g3
Ntp25
Rp26
(dp27
g19
(I1
I1
tp28
sbag1
(g15
g3
Ntp29
Rp30
(dp31
g19
(I1
I0
tp32
sbasS'n'
p33
I4
sS'catalystPattern'
p34
S'HHPH'
p35
sS'vec'
p36
S'URD'
p37
sS'Type'
p38
NsS'substratePattern'
p39
S''
p40
sbag1
(g2
g3
Ntp41
Rp42
(dp43
g7
I1
sg8
S'HHPH'
p44
sg10
I01
sg11
I1
sg12
I01
sg13
(lp45
g1
(g15
g3
Ntp46
Rp47
(dp48
g19
g20
sbag1
(g15
g3
Ntp49
Rp50
(dp51
g19
(I0
I1
tp52
sbag1
(g15
g3
Ntp53
Rp54
(dp55
g19
(I1
I1
tp56
sbag1
(g15
g3
Ntp57
Rp58
(dp59
g19
(I1
I0
tp60
sbasg33
I4
sg34
S'HHPHH'
p61
sg36
g37
sg38
(I4
S'HHPH'
p62
g61
tp63
sg39
g62
sbag1
(g2
g3
Ntp64
Rp65
(dp66
g7
I1
sg8
S'HPHH'
p67
sg10
I01
sg11
I1
sg12
I00
sg13
(lp68
g1
(g15
g3
Ntp69
Rp70
(dp71
g19
g20
sbag1
(g15
g3
Ntp72
Rp73
(dp74
g19
(I0
I1
tp75
sbag1
(g15
g3
Ntp76
Rp77
(dp78
g19
(I1
I1
tp79
sbag1
(g15
g3
Ntp80
Rp81
(dp82
g19
(I1
I0
tp83
sbasg33
I4
sg34
S'HHPHH'
p84
sg36
g37
sg38
Nsg39
g40
sbag1
(g2
g3
Ntp85
Rp86
(dp87
g7
I1
sg8
S'HHHH'
p88
sg10
I01
sg11
I1
sg12
I00
sg13
(lp89
g1
(g15
g3
Ntp90
Rp91
(dp92
g19
g20
sbag1
(g15
g3
Ntp93
Rp94
(dp95
g19
(I0
I1
tp96
sbag1
(g15
g3
Ntp97
Rp98
(dp99
g19
(I1
I1
tp100
sbag1
(g15
g3
Ntp101
Rp102
(dp103
g19
(I1
I0
tp104
sbasg33
I4
sg34
S'HHPHH'
p105
sg36
g37
sg38
Nsg39
g40
sbag1
(g2
g3
Ntp106
Rp107
(dp108
g7
I2
sg8
S'HHPPHH'
p109
sg10
I01
sg11
I2
sg12
I01
sg13
(lp110
g1
(g15
g3
Ntp111
Rp112
(dp113
g19
g20
sbag1
(g15
g3
Ntp114
Rp115
(dp116
g19
(I0
I1
tp117
sbag1
(g15
g3
Ntp118
Rp119
(dp120
g19
(I0
I2
tp121
sbag1
(g15
g3
Ntp122
Rp123
(dp124
g19
(I1
I2
tp125
sbag1
(g15
g3
Ntp126
Rp127
(dp128
g19
(I1
I1
tp129
sbag1
(g15
g3
Ntp130
Rp131
(dp132
g19
(I1
I0
tp133
sbasg33
I6
sg34
S'HHPHH'
p134
sg36
S'UURDD'
p135
sg38
(I6
S'HHPP'
p136
g134
tp137
sg39
g136
sbag1
(g2
g3
Ntp138
Rp139
(dp140
g7
I3
sg8
S'HHPPHPPHP'
p141
sg10
I01
sg11
I3
sg12
I01
sg13
(lp142
g1
(g15
g3
Ntp143
Rp144
(dp145
g19
g20
sbag1
(g15
g3
Ntp146
Rp147
(dp148
g19
(I0
I1
tp149
sbag1
(g15
g3
Ntp150
Rp151
(dp152
g19
(I0
I2
tp153
sbag1
(g15
g3
Ntp154
Rp155
(dp156
g19
(I1
I2
tp157
sbag1
(g15
g3
Ntp158
Rp159
(dp160
g19
(I1
I1
tp161
sbag1
(g15
g3
Ntp162
Rp163
(dp164
g19
(I2
I1
tp165
sbag1
(g15
g3
Ntp166
Rp167
(dp168
g19
(I2
I0
tp169
sbag1
(g15
g3
Ntp170
Rp171
(dp172
g19
(I1
I0
tp173
sbag1
(g15
g3
Ntp174
Rp175
(dp176
g19
(I1
I-1
tp177
sbasg33
I9
sg34
S'HHPH'
p178
sg36
S'UURDRDLD'
p179
sg38
(I9
S'HHPP'
p180
g178
tp181
sg39
g180
sbag1
(g2
g3
Ntp182
Rp183
(dp184
g7
I3
sg8
S'HHHPHPPHP'
p185
sg10
I01
sg11
I4
sg12
I01
sg13
(lp186
g1
(g15
g3
Ntp187
Rp188
(dp189
g19
g20
sbag1
(g15
g3
Ntp190
Rp191
(dp192
g19
(I0
I1
tp193
sbag1
(g15
g3
Ntp194
Rp195
(dp196
g19
(I0
I2
tp197
sbag1
(g15
g3
Ntp198
Rp199
(dp200
g19
(I1
I2
tp201
sbag1
(g15
g3
Ntp202
Rp203
(dp204
g19
(I1
I1
tp205
sbag1
(g15
g3
Ntp206
Rp207
(dp208
g19
(I2
I1
tp209
sbag1
(g15
g3
Ntp210
Rp211
(dp212
g19
(I2
I0
tp213
sbag1
(g15
g3
Ntp214
Rp215
(dp216
g19
(I1
I0
tp217
sbag1
(g15
g3
Ntp218
Rp219
(dp220
g19
(I1
I-1
tp221
sbasg33
I9
sg34
S'HHHPH'
p222
sg36
g179
sg38
(I9
S'HHHPH'
p223
g222
tp224
sg39
g223
sbag1
(g2
g3
Ntp225
Rp226
(dp227
g7
I4
sg8
S'HPHPPHPPHH'
p228
sg10
I01
sg11
I4
sg12
I00
sg13
(lp229
g1
(g15
g3
Ntp230
Rp231
(dp232
g19
g20
sbag1
(g15
g3
Ntp233
Rp234
(dp235
g19
(I0
I1
tp236
sbag1
(g15
g3
Ntp237
Rp238
(dp239
g19
(I1
I1
tp240
sbag1
(g15
g3
Ntp241
Rp242
(dp243
g19
(I1
I2
tp244
sbag1
(g15
g3
Ntp245
Rp246
(dp247
g19
(I2
I2
tp248
sbag1
(g15
g3
Ntp249
Rp250
(dp251
g19
(I2
I1
tp252
sbag1
(g15
g3
Ntp253
Rp254
(dp255
g19
(I3
I1
tp256
sbag1
(g15
g3
Ntp257
Rp258
(dp259
g19
(I3
I0
tp260
sbag1
(g15
g3
Ntp261
Rp262
(dp263
g19
(I2
I0
tp264
sbag1
(g15
g3
Ntp265
Rp266
(dp267
g19
(I1
I0
tp268
sbasg33
I10
sg34
S'HHHPH'
p269
sg36
S'URURDRDLL'
p270
sg38
Nsg39
g40
sbag1
(g2
g3
Ntp271
Rp272
(dp273
g7
I2
sg8
S'PHPPHPH'
p274
sg10
I00
sg11
I4
sg12
I00
sg13
(lp275
g1
(g15
g3
Ntp276
Rp277
(dp278
g19
g20
sbag1
(g15
g3
Ntp279
Rp280
(dp281
g19
(I0
I1
tp282
sbag1
(g15
g3
Ntp283
Rp284
(dp285
g19
(I1
I1
tp286
sbag1
(g15
g3
Ntp287
Rp288
(dp289
g19
(I1
I2
tp290
sbag1
(g15
g3
Ntp291
Rp292
(dp293
g19
(I0
I2
tp294
sbag1
(g15
g3
Ntp295
Rp296
(dp297
g19
(I-1
I2
tp298
sbag1
(g15
g3
Ntp299
Rp300
(dp301
g19
(I-1
I1
tp302
sbasg33
I7
sg34
g40
sg36
S'URULLD'
p303
sg38
Nsg39
g40
sbag1
(g2
g3
Ntp304
Rp305
(dp306
g7
I2
sg8
S'HHPPHPH'
p307
sg10
I00
sg11
I4
sg12
I01
sg13
(lp308
g1
(g15
g3
Ntp309
Rp310
(dp311
g19
g20
sbag1
(g15
g3
Ntp312
Rp313
(dp314
g19
(I0
I1
tp315
sbag1
(g15
g3
Ntp316
Rp317
(dp318
g19
(I1
I1
tp319
sbag1
(g15
g3
Ntp320
Rp321
(dp322
g19
(I1
I2
tp323
sbag1
(g15
g3
Ntp324
Rp325
(dp326
g19
(I0
I2
tp327
sbag1
(g15
g3
Ntp328
Rp329
(dp330
g19
(I-1
I2
tp331
sbag1
(g15
g3
Ntp332
Rp333
(dp334
g19
(I-1
I1
tp335
sbasg33
I7
sg34
g40
sg36
g303
sg38
Nsg39
S'HHPP'
p336
sbag1
(g2
g3
Ntp337
Rp338
(dp339
g7
I2
sg8
S'PHHPHPH'
p340
sg10
I00
sg11
I4
sg12
I01
sg13
(lp341
g1
(g15
g3
Ntp342
Rp343
(dp344
g19
g20
sbag1
(g15
g3
Ntp345
Rp346
(dp347
g19
(I0
I1
tp348
sbag1
(g15
g3
Ntp349
Rp350
(dp351
g19
(I1
I1
tp352
sbag1
(g15
g3
Ntp353
Rp354
(dp355
g19
(I1
I2
tp356
sbag1
(g15
g3
Ntp357
Rp358
(dp359
g19
(I0
I2
tp360
sbag1
(g15
g3
Ntp361
Rp362
(dp363
g19
(I-1
I2
tp364
sbag1
(g15
g3
Ntp365
Rp366
(dp367
g19
(I-1
I1
tp368
sbasg33
I7
sg34
g40
sg36
g303
sg38
Nsg39
S'HHPH'
p369
sbag1
(g2
g3
Ntp370
Rp371
(dp372
g7
I2
sg8
S'HHHPHPH'
p373
sg10
I00
sg11
I4
sg12
I01
sg13
(lp374
g1
(g15
g3
Ntp375
Rp376
(dp377
g19
g20
sbag1
(g15
g3
Ntp378
Rp379
(dp380
g19
(I0
I1
tp381
sbag1
(g15
g3
Ntp382
Rp383
(dp384
g19
(I1
I1
tp385
sbag1
(g15
g3
Ntp386
Rp387
(dp388
g19
(I1
I2
tp389
sbag1
(g15
g3
Ntp390
Rp391
(dp392
g19
(I0
I2
tp393
sbag1
(g15
g3
Ntp394
Rp395
(dp396
g19
(I-1
I2
tp397
sbag1
(g15
g3
Ntp398
Rp399
(dp400
g19
(I-1
I1
tp401
sbasg33
I7
sg34
g40
sg36
g303
sg38
Nsg39
S'HHHPH'
p402
sbag1
(g2
g3
Ntp403
Rp404
(dp405
g7
I2
sg8
S'PHPPHHH'
p406
sg10
I01
sg11
I4
sg12
I00
sg13
(lp407
g1
(g15
g3
Ntp408
Rp409
(dp410
g19
g20
sbag1
(g15
g3
Ntp411
Rp412
(dp413
g19
(I0
I1
tp414
sbag1
(g15
g3
Ntp415
Rp416
(dp417
g19
(I1
I1
tp418
sbag1
(g15
g3
Ntp419
Rp420
(dp421
g19
(I1
I2
tp422
sbag1
(g15
g3
Ntp423
Rp424
(dp425
g19
(I0
I2
tp426
sbag1
(g15
g3
Ntp427
Rp428
(dp429
g19
(I-1
I2
tp430
sbag1
(g15
g3
Ntp431
Rp432
(dp433
g19
(I-1
I1
tp434
sbasg33
I7
sg34
S'HHPHH'
p435
sg36
g303
sg38
Nsg39
g40
sbag1
(g2
g3
Ntp436
Rp437
(dp438
g7
I3
sg8
S'PHPPHPPHH'
p439
sg10
I01
sg11
I4
sg12
I00
sg13
(lp440
g1
(g15
g3
Ntp441
Rp442
(dp443
g19
g20
sbag1
(g15
g3
Ntp444
Rp445
(dp446
g19
(I0
I1
tp447
sbag1
(g15
g3
Ntp448
Rp449
(dp450
g19
(I1
I1
tp451
sbag1
(g15
g3
Ntp452
Rp453
(dp454
g19
(I1
I2
tp455
sbag1
(g15
g3
Ntp456
Rp457
(dp458
g19
(I0
I2
tp459
sbag1
(g15
g3
Ntp460
Rp461
(dp462
g19
(I0
I3
tp463
sbag1
(g15
g3
Ntp464
Rp465
(dp466
g19
(I-1
I3
tp467
sbag1
(g15
g3
Ntp468
Rp469
(dp470
g19
(I-1
I2
tp471
sbag1
(g15
g3
Ntp472
Rp473
(dp474
g19
(I-1
I1
tp475
sbasg33
I9
sg34
S'HHPP'
p476
sg36
S'URULULDD'
p477
sg38
Nsg39
g40
sbag1
(g2
g3
Ntp478
Rp479
(dp480
g7
I3
sg8
S'PHPPHPHHH'
p481
sg10
I01
sg11
I4
sg12
I00
sg13
(lp482
g1
(g15
g3
Ntp483
Rp484
(dp485
g19
g20
sbag1
(g15
g3
Ntp486
Rp487
(dp488
g19
(I0
I1
tp489
sbag1
(g15
g3
Ntp490
Rp491
(dp492
g19
(I1
I1
tp493
sbag1
(g15
g3
Ntp494
Rp495
(dp496
g19
(I1
I2
tp497
sbag1
(g15
g3
Ntp498
Rp499
(dp500
g19
(I0
I2
tp501
sbag1
(g15
g3
Ntp502
Rp503
(dp504
g19
(I0
I3
tp505
sbag1
(g15
g3
Ntp506
Rp507
(dp508
g19
(I-1
I3
tp509
sbag1
(g15
g3
Ntp510
Rp511
(dp512
g19
(I-1
I2
tp513
sbag1
(g15
g3
Ntp514
Rp515
(dp516
g19
(I-1
I1
tp517
sbasg33
I9
sg34
S'HHHPH'
p518
sg36
g477
sg38
Nsg39
g40
sbag1
(g2
g3
Ntp519
Rp520
(dp521
g7
I3
sg8
S'HPHPHPPH'
p522
sg10
I00
sg11
I4
sg12
I00
sg13
(lp523
g1
(g15
g3
Ntp524
Rp525
(dp526
g19
g20
sbag1
(g15
g3
Ntp527
Rp528
(dp529
g19
(I0
I1
tp530
sbag1
(g15
g3
Ntp531
Rp532
(dp533
g19
(I1
I1
tp534
sbag1
(g15
g3
Ntp535
Rp536
(dp537
g19
(I2
I1
tp538
sbag1
(g15
g3
Ntp539
Rp540
(dp541
g19
(I2
I0
tp542
sbag1
(g15
g3
Ntp543
Rp544
(dp545
g19
(I2
I-1
tp546
sbag1
(g15
g3
Ntp547
Rp548
(dp549
g19
(I1
I-1
tp550
sbag1
(g15
g3
Ntp551
Rp552
(dp553
g19
(I1
I0
tp554
sbasg33
I8
sg34
g40
sg36
S'URRDDLU'
p555
sg38
Nsg39
g40
sbag1
(g2
g3
Ntp556
Rp557
(dp558
g7
I3
sg8
S'HPHPHPHH'
p559
sg10
I00
sg11
I4
sg12
I00
sg13
(lp560
g1
(g15
g3
Ntp561
Rp562
(dp563
g19
g20
sbag1
(g15
g3
Ntp564
Rp565
(dp566
g19
(I0
I1
tp567
sbag1
(g15
g3
Ntp568
Rp569
(dp570
g19
(I1
I1
tp571
sbag1
(g15
g3
Ntp572
Rp573
(dp574
g19
(I2
I1
tp575
sbag1
(g15
g3
Ntp576
Rp577
(dp578
g19
(I2
I0
tp579
sbag1
(g15
g3
Ntp580
Rp581
(dp582
g19
(I2
I-1
tp583
sbag1
(g15
g3
Ntp584
Rp585
(dp586
g19
(I1
I-1
tp587
sbag1
(g15
g3
Ntp588
Rp589
(dp590
g19
(I1
I0
tp591
sbasg33
I8
sg34
g40
sg36
g555
sg38
Nsg39
g40
sbag1
(g2
g3
Ntp592
Rp593
(dp594
g7
I4
sg8
S'HPPHPPHPPH'
p595
sg10
I01
sg11
I4
sg12
I00
sg13
(lp596
g1
(g15
g3
Ntp597
Rp598
(dp599
g19
g20
sbag1
(g15
g3
Ntp600
Rp601
(dp602
g19
(I0
I1
tp603
sbag1
(g15
g3
Ntp604
Rp605
(dp606
g19
(I1
I1
tp607
sbag1
(g15
g3
Ntp608
Rp609
(dp610
g19
(I1
I0
tp611
sbag1
(g15
g3
Ntp612
Rp613
(dp614
g19
(I2
I0
tp615
sbag1
(g15
g3
Ntp616
Rp617
(dp618
g19
(I2
I-1
tp619
sbag1
(g15
g3
Ntp620
Rp621
(dp622
g19
(I1
I-1
tp623
sbag1
(g15
g3
Ntp624
Rp625
(dp626
g19
(I1
I-2
tp627
sbag1
(g15
g3
Ntp628
Rp629
(dp630
g19
(I0
I-2
tp631
sbag1
(g15
g3
Ntp632
Rp633
(dp634
g19
(I0
I-1
tp635
sbasg33
I10
sg34
S'HHPP'
p636
sg36
S'URDRDLDLU'
p637
sg38
Nsg39
g40
sbag1
(g2
g3
Ntp638
Rp639
(dp640
g7
I4
sg8
S'HHPHPPHPPH'
p641
sg10
I01
sg11
I5
sg12
I01
sg13
(lp642
g1
(g15
g3
Ntp643
Rp644
(dp645
g19
g20
sbag1
(g15
g3
Ntp646
Rp647
(dp648
g19
(I0
I1
tp649
sbag1
(g15
g3
Ntp650
Rp651
(dp652
g19
(I1
I1
tp653
sbag1
(g15
g3
Ntp654
Rp655
(dp656
g19
(I1
I0
tp657
sbag1
(g15
g3
Ntp658
Rp659
(dp660
g19
(I2
I0
tp661
sbag1
(g15
g3
Ntp662
Rp663
(dp664
g19
(I2
I-1
tp665
sbag1
(g15
g3
Ntp666
Rp667
(dp668
g19
(I1
I-1
tp669
sbag1
(g15
g3
Ntp670
Rp671
(dp672
g19
(I1
I-2
tp673
sbag1
(g15
g3
Ntp674
Rp675
(dp676
g19
(I0
I-2
tp677
sbag1
(g15
g3
Ntp678
Rp679
(dp680
g19
(I0
I-1
tp681
sbasg33
I10
sg34
S'HHHPP'
p682
sg36
g637
sg38
(I10
S'HHPH'
p683
g682
tp684
sg39
g683
sbag1
(g2
g3
Ntp685
Rp686
(dp687
g7
I4
sg8
S'HPPHPPHPHH'
p688
sg10
I01
sg11
I5
sg12
I00
sg13
(lp689
g1
(g15
g3
Ntp690
Rp691
(dp692
g19
g20
sbag1
(g15
g3
Ntp693
Rp694
(dp695
g19
(I0
I1
tp696
sbag1
(g15
g3
Ntp697
Rp698
(dp699
g19
(I1
I1
tp700
sbag1
(g15
g3
Ntp701
Rp702
(dp703
g19
(I1
I0
tp704
sbag1
(g15
g3
Ntp705
Rp706
(dp707
g19
(I2
I0
tp708
sbag1
(g15
g3
Ntp709
Rp710
(dp711
g19
(I2
I-1
tp712
sbag1
(g15
g3
Ntp713
Rp714
(dp715
g19
(I1
I-1
tp716
sbag1
(g15
g3
Ntp717
Rp718
(dp719
g19
(I1
I-2
tp720
sbag1
(g15
g3
Ntp721
Rp722
(dp723
g19
(I0
I-2
tp724
sbag1
(g15
g3
Ntp725
Rp726
(dp727
g19
(I0
I-1
tp728
sbasg33
I10
sg34
S'HHHPH'
p729
sg36
g637
sg38
Nsg39
g40
sbag1
(g2
g3
Ntp730
Rp731
(dp732
g7
I2
sg8
S'HPPHPH'
p733
sg10
I01
sg11
I5
sg12
I00
sg13
(lp734
g1
(g15
g3
Ntp735
Rp736
(dp737
g19
g20
sbag1
(g15
g3
Ntp738
Rp739
(dp740
g19
(I0
I1
tp741
sbag1
(g15
g3
Ntp742
Rp743
(dp744
g19
(I1
I1
tp745
sbag1
(g15
g3
Ntp746
Rp747
(dp748
g19
(I1
I0
tp749
sbag1
(g15
g3
Ntp750
Rp751
(dp752
g19
(I1
I-1
tp753
sbag1
(g15
g3
Ntp754
Rp755
(dp756
g19
(I0
I-1
tp757
sbasg33
I6
sg34
S'HHPH'
p758
sg36
S'URDDL'
p759
sg38
Nsg39
g40
sbag1
(g2
g3
Ntp760
Rp761
(dp762
g7
I2
sg8
S'HHPHPH'
p763
sg10
I01
sg11
I6
sg12
I01
sg13
(lp764
g1
(g15
g3
Ntp765
Rp766
(dp767
g19
g20
sbag1
(g15
g3
Ntp768
Rp769
(dp770
g19
(I0
I1
tp771
sbag1
(g15
g3
Ntp772
Rp773
(dp774
g19
(I1
I1
tp775
sbag1
(g15
g3
Ntp776
Rp777
(dp778
g19
(I1
I0
tp779
sbag1
(g15
g3
Ntp780
Rp781
(dp782
g19
(I1
I-1
tp783
sbag1
(g15
g3
Ntp784
Rp785
(dp786
g19
(I0
I-1
tp787
sbasg33
I6
sg34
S'HHHPH'
p788
sg36
g759
sg38
(I6
S'HHPH'
p789
g788
tp790
sg39
g789
sbag1
(g2
g3
Ntp791
Rp792
(dp793
g7
I2
sg8
S'HPPHHH'
p794
sg10
I01
sg11
I6
sg12
I00
sg13
(lp795
g1
(g15
g3
Ntp796
Rp797
(dp798
g19
g20
sbag1
(g15
g3
Ntp799
Rp800
(dp801
g19
(I0
I1
tp802
sbag1
(g15
g3
Ntp803
Rp804
(dp805
g19
(I1
I1
tp806
sbag1
(g15
g3
Ntp807
Rp808
(dp809
g19
(I1
I0
tp810
sbag1
(g15
g3
Ntp811
Rp812
(dp813
g19
(I1
I-1
tp814
sbag1
(g15
g3
Ntp815
Rp816
(dp817
g19
(I0
I-1
tp818
sbasg33
I6
sg34
S'HHPHH'
p819
sg36
g759
sg38
Nsg39
g40
sbag1
(g2
g3
Ntp820
Rp821
(dp822
g7
I3
sg8
S'HPPHHPPH'
p823
sg10
I01
sg11
I7
sg12
I01
sg13
(lp824
g1
(g15
g3
Ntp825
Rp826
(dp827
g19
g20
sbag1
(g15
g3
Ntp828
Rp829
(dp830
g19
(I0
I1
tp831
sbag1
(g15
g3
Ntp832
Rp833
(dp834
g19
(I1
I1
tp835
sbag1
(g15
g3
Ntp836
Rp837
(dp838
g19
(I1
I0
tp839
sbag1
(g15
g3
Ntp840
Rp841
(dp842
g19
(I1
I-1
tp843
sbag1
(g15
g3
Ntp844
Rp845
(dp846
g19
(I1
I-2
tp847
sbag1
(g15
g3
Ntp848
Rp849
(dp850
g19
(I0
I-2
tp851
sbag1
(g15
g3
Ntp852
Rp853
(dp854
g19
(I0
I-1
tp855
sbasg33
I8
sg34
S'HHPP'
p856
sg36
S'URDDDLU'
p857
sg38
(I8
S'HHPP'
p858
g856
tp859
sg39
g858
sbag1
(g2
g3
Ntp860
Rp861
(dp862
g7
I3
sg8
S'HPPHHPPHP'
p863
sg10
I01
sg11
I8
sg12
I01
sg13
(lp864
g1
(g15
g3
Ntp865
Rp866
(dp867
g19
g20
sbag1
(g15
g3
Ntp868
Rp869
(dp870
g19
(I0
I1
tp871
sbag1
(g15
g3
Ntp872
Rp873
(dp874
g19
(I1
I1
tp875
sbag1
(g15
g3
Ntp876
Rp877
(dp878
g19
(I1
I0
tp879
sbag1
(g15
g3
Ntp880
Rp881
(dp882
g19
(I1
I-1
tp883
sbag1
(g15
g3
Ntp884
Rp885
(dp886
g19
(I1
I-2
tp887
sbag1
(g15
g3
Ntp888
Rp889
(dp890
g19
(I0
I-2
tp891
sbag1
(g15
g3
Ntp892
Rp893
(dp894
g19
(I0
I-1
tp895
sbag1
(g15
g3
Ntp896
Rp897
(dp898
g19
(I-1
I-1
tp899
sbasg33
I9
sg34
S'HHPP'
p900
sg36
S'URDDDLUL'
p901
sg38
(I9
S'HHPP'
p902
g900
tp903
sg39
g902
sbag1
(g2
g3
Ntp904
Rp905
(dp906
g7
I3
sg8
S'HPPHPPHH'
p907
sg10
I01
sg11
I8
sg12
I00
sg13
(lp908
g1
(g15
g3
Ntp909
Rp910
(dp911
g19
g20
sbag1
(g15
g3
Ntp912
Rp913
(dp914
g19
(I0
I1
tp915
sbag1
(g15
g3
Ntp916
Rp917
(dp918
g19
(I1
I1
tp919
sbag1
(g15
g3
Ntp920
Rp921
(dp922
g19
(I1
I0
tp923
sbag1
(g15
g3
Ntp924
Rp925
(dp926
g19
(I2
I0
tp927
sbag1
(g15
g3
Ntp928
Rp929
(dp930
g19
(I2
I-1
tp931
sbag1
(g15
g3
Ntp932
Rp933
(dp934
g19
(I1
I-1
tp935
sbag1
(g15
g3
Ntp936
Rp937
(dp938
g19
(I0
I-1
tp939
sbasg33
I8
sg34
S'HHPHH'
p940
sg36
S'URDRDLL'
p941
sg38
Nsg39
g40
sbag1
(g2
g3
Ntp942
Rp943
(dp944
g7
I3
sg8
S'PHPPHHPPH'
p945
sg10
I01
sg11
I9
sg12
I01
sg13
(lp946
g1
(g15
g3
Ntp947
Rp948
(dp949
g19
g20
sbag1
(g15
g3
Ntp950
Rp951
(dp952
g19
(I0
I1
tp953
sbag1
(g15
g3
Ntp954
Rp955
(dp956
g19
(I1
I1
tp957
sbag1
(g15
g3
Ntp958
Rp959
(dp960
g19
(I1
I2
tp961
sbag1
(g15
g3
Ntp962
Rp963
(dp964
g19
(I0
I2
tp965
sbag1
(g15
g3
Ntp966
Rp967
(dp968
g19
(I-1
I2
tp969
sbag1
(g15
g3
Ntp970
Rp971
(dp972
g19
(I-2
I2
tp973
sbag1
(g15
g3
Ntp974
Rp975
(dp976
g19
(I-2
I1
tp977
sbag1
(g15
g3
Ntp978
Rp979
(dp980
g19
(I-1
I1
tp981
sbasg33
I9
sg34
S'HHPP'
p982
sg36
S'URULLLDR'
p983
sg38
(I9
S'HHPP'
p984
g982
tp985
sg39
g984
sbag1
(g2
g3
Ntp986
Rp987
(dp988
g7
I3
sg8
S'HPPHPHPH'
p989
sg10
I00
sg11
I9
sg12
I00
sg13
(lp990
g1
(g15
g3
Ntp991
Rp992
(dp993
g19
g20
sbag1
(g15
g3
Ntp994
Rp995
(dp996
g19
(I0
I1
tp997
sbag1
(g15
g3
Ntp998
Rp999
(dp1000
g19
(I1
I1
tp1001
sbag1
(g15
g3
Ntp1002
Rp1003
(dp1004
g19
(I1
I0
tp1005
sbag1
(g15
g3
Ntp1006
Rp1007
(dp1008
g19
(I1
I-1
tp1009
sbag1
(g15
g3
Ntp1010
Rp1011
(dp1012
g19
(I0
I-1
tp1013
sbag1
(g15
g3
Ntp1014
Rp1015
(dp1016
g19
(I-1
I-1
tp1017
sbag1
(g15
g3
Ntp1018
Rp1019
(dp1020
g19
(I-1
I0
tp1021
sbasg33
I8
sg34
g40
sg36
S'URDDLLU'
p1022
sg38
Nsg39
g40
sbag1
(g2
g3
Ntp1023
Rp1024
(dp1025
g7
I3
sg8
S'HHPHPHPH'
p1026
sg10
I00
sg11
I9
sg12
I01
sg13
(lp1027
g1
(g15
g3
Ntp1028
Rp1029
(dp1030
g19
g20
sbag1
(g15
g3
Ntp1031
Rp1032
(dp1033
g19
(I0
I1
tp1034
sbag1
(g15
g3
Ntp1035
Rp1036
(dp1037
g19
(I1
I1
tp1038
sbag1
(g15
g3
Ntp1039
Rp1040
(dp1041
g19
(I1
I0
tp1042
sbag1
(g15
g3
Ntp1043
Rp1044
(dp1045
g19
(I1
I-1
tp1046
sbag1
(g15
g3
Ntp1047
Rp1048
(dp1049
g19
(I0
I-1
tp1050
sbag1
(g15
g3
Ntp1051
Rp1052
(dp1053
g19
(I-1
I-1
tp1054
sbag1
(g15
g3
Ntp1055
Rp1056
(dp1057
g19
(I-1
I0
tp1058
sbasg33
I8
sg34
g40
sg36
g1022
sg38
Nsg39
S'HHPH'
p1059
sbag1
(g2
g3
Ntp1060
Rp1061
(dp1062
g7
I2
sg8
S'HPHPPH'
p1063
sg10
I01
sg11
I9
sg12
I00
sg13
(lp1064
g1
(g15
g3
Ntp1065
Rp1066
(dp1067
g19
g20
sbag1
(g15
g3
Ntp1068
Rp1069
(dp1070
g19
(I0
I1
tp1071
sbag1
(g15
g3
Ntp1072
Rp1073
(dp1074
g19
(I1
I1
tp1075
sbag1
(g15
g3
Ntp1076
Rp1077
(dp1078
g19
(I2
I1
tp1079
sbag1
(g15
g3
Ntp1080
Rp1081
(dp1082
g19
(I2
I0
tp1083
sbag1
(g15
g3
Ntp1084
Rp1085
(dp1086
g19
(I1
I0
tp1087
sbasg33
I6
sg34
S'HHPH'
p1088
sg36
S'URRDL'
p1089
sg38
Nsg39
g40
sbag1
(g2
g3
Ntp1090
Rp1091
(dp1092
g7
I2
sg8
S'HHHPPH'
p1093
sg10
I01
sg11
I10
sg12
I01
sg13
(lp1094
g1
(g15
g3
Ntp1095
Rp1096
(dp1097
g19
g20
sbag1
(g15
g3
Ntp1098
Rp1099
(dp1100
g19
(I0
I1
tp1101
sbag1
(g15
g3
Ntp1102
Rp1103
(dp1104
g19
(I1
I1
tp1105
sbag1
(g15
g3
Ntp1106
Rp1107
(dp1108
g19
(I2
I1
tp1109
sbag1
(g15
g3
Ntp1110
Rp1111
(dp1112
g19
(I2
I0
tp1113
sbag1
(g15
g3
Ntp1114
Rp1115
(dp1116
g19
(I1
I0
tp1117
sbasg33
I6
sg34
S'HHPHH'
p1118
sg36
g1089
sg38
(I6
S'HHHPP'
p1119
g1118
tp1120
sg39
g1119
sbag1
(g2
g3
Ntp1121
Rp1122
(dp1123
g7
I2
sg8
S'HPHPHH'
p1124
sg10
I01
sg11
I10
sg12
I00
sg13
(lp1125
g1
(g15
g3
Ntp1126
Rp1127
(dp1128
g19
g20
sbag1
(g15
g3
Ntp1129
Rp1130
(dp1131
g19
(I0
I1
tp1132
sbag1
(g15
g3
Ntp1133
Rp1134
(dp1135
g19
(I1
I1
tp1136
sbag1
(g15
g3
Ntp1137
Rp1138
(dp1139
g19
(I2
I1
tp1140
sbag1
(g15
g3
Ntp1141
Rp1142
(dp1143
g19
(I2
I0
tp1144
sbag1
(g15
g3
Ntp1145
Rp1146
(dp1147
g19
(I1
I0
tp1148
sbasg33
I6
sg34
S'HHHPH'
p1149
sg36
g1089
sg38
Nsg39
g40
sbag1
(g2
g3
Ntp1150
Rp1151
(dp1152
g7
I3
sg8
S'PHPPHHPPHP'
p1153
sg10
I01
sg11
I11
sg12
I01
sg13
(lp1154
g1
(g15
g3
Ntp1155
Rp1156
(dp1157
g19
g20
sbag1
(g15
g3
Ntp1158
Rp1159
(dp1160
g19
(I0
I1
tp1161
sbag1
(g15
g3
Ntp1162
Rp1163
(dp1164
g19
(I1
I1
tp1165
sbag1
(g15
g3
Ntp1166
Rp1167
(dp1168
g19
(I1
I2
tp1169
sbag1
(g15
g3
Ntp1170
Rp1171
(dp1172
g19
(I0
I2
tp1173
sbag1
(g15
g3
Ntp1174
Rp1175
(dp1176
g19
(I-1
I2
tp1177
sbag1
(g15
g3
Ntp1178
Rp1179
(dp1180
g19
(I-2
I2
tp1181
sbag1
(g15
g3
Ntp1182
Rp1183
(dp1184
g19
(I-2
I1
tp1185
sbag1
(g15
g3
Ntp1186
Rp1187
(dp1188
g19
(I-1
I1
tp1189
sbag1
(g15
g3
Ntp1190
Rp1191
(dp1192
g19
(I-1
I0
tp1193
sbasg33
I10
sg34
S'HHPP'
p1194
sg36
S'URULLLDRD'
p1195
sg38
(I10
S'HHPP'
p1196
g1194
tp1197
sg39
g1196
sbag1
(g2
g3
Ntp1198
Rp1199
(dp1200
g7
I4
sg8
S'HHPPHPPHPH'
p1201
sg10
I01
sg11
I12
sg12
I01
sg13
(lp1202
g1
(g15
g3
Ntp1203
Rp1204
(dp1205
g19
g20
sbag1
(g15
g3
Ntp1206
Rp1207
(dp1208
g19
(I0
I1
tp1209
sbag1
(g15
g3
Ntp1210
Rp1211
(dp1212
g19
(I0
I2
tp1213
sbag1
(g15
g3
Ntp1214
Rp1215
(dp1216
g19
(I1
I2
tp1217
sbag1
(g15
g3
Ntp1218
Rp1219
(dp1220
g19
(I1
I1
tp1221
sbag1
(g15
g3
Ntp1222
Rp1223
(dp1224
g19
(I2
I1
tp1225
sbag1
(g15
g3
Ntp1226
Rp1227
(dp1228
g19
(I2
I0
tp1229
sbag1
(g15
g3
Ntp1230
Rp1231
(dp1232
g19
(I1
I0
tp1233
sbag1
(g15
g3
Ntp1234
Rp1235
(dp1236
g19
(I1
I-1
tp1237
sbag1
(g15
g3
Ntp1238
Rp1239
(dp1240
g19
(I0
I-1
tp1241
sbasg33
I10
sg34
S'HHHPH'
p1242
sg36
S'UURDRDLDL'
p1243
sg38
(I10
S'HHPP'
p1244
g1242
tp1245
sg39
g1244
sbag1
(g2
g3
Ntp1246
Rp1247
(dp1248
g7
I3
sg8
S'HHPPHPPH'
p1249
sg10
I01
sg11
I13
sg12
I01
sg13
(lp1250
g1
(g15
g3
Ntp1251
Rp1252
(dp1253
g19
g20
sbag1
(g15
g3
Ntp1254
Rp1255
(dp1256
g19
(I0
I1
tp1257
sbag1
(g15
g3
Ntp1258
Rp1259
(dp1260
g19
(I0
I2
tp1261
sbag1
(g15
g3
Ntp1262
Rp1263
(dp1264
g19
(I1
I2
tp1265
sbag1
(g15
g3
Ntp1266
Rp1267
(dp1268
g19
(I1
I1
tp1269
sbag1
(g15
g3
Ntp1270
Rp1271
(dp1272
g19
(I2
I1
tp1273
sbag1
(g15
g3
Ntp1274
Rp1275
(dp1276
g19
(I2
I0
tp1277
sbag1
(g15
g3
Ntp1278
Rp1279
(dp1280
g19
(I1
I0
tp1281
sbasg33
I8
sg34
S'HHPHH'
p1282
sg36
S'UURDRDL'
p1283
sg38
(I8
S'HHPP'
p1284
g1282
tp1285
sg39
g1284
sbag1
(g2
g3
Ntp1286
Rp1287
(dp1288
g7
I2
sg8
S'HPHPPHP'
p1289
sg10
I00
sg11
I13
sg12
I00
sg13
(lp1290
g1
(g15
g3
Ntp1291
Rp1292
(dp1293
g19
g20
sbag1
(g15
g3
Ntp1294
Rp1295
(dp1296
g19
(I0
I1
tp1297
sbag1
(g15
g3
Ntp1298
Rp1299
(dp1300
g19
(I1
I1
tp1301
sbag1
(g15
g3
Ntp1302
Rp1303
(dp1304
g19
(I2
I1
tp1305
sbag1
(g15
g3
Ntp1306
Rp1307
(dp1308
g19
(I2
I0
tp1309
sbag1
(g15
g3
Ntp1310
Rp1311
(dp1312
g19
(I1
I0
tp1313
sbag1
(g15
g3
Ntp1314
Rp1315
(dp1316
g19
(I1
I-1
tp1317
sbasg33
I7
sg34
g40
sg36
S'URRDLD'
p1318
sg38
Nsg39
g40
sbag1
(g2
g3
Ntp1319
Rp1320
(dp1321
g7
I2
sg8
S'HHHPPHP'
p1322
sg10
I01
sg11
I14
sg12
I01
sg13
(lp1323
g1
(g15
g3
Ntp1324
Rp1325
(dp1326
g19
g20
sbag1
(g15
g3
Ntp1327
Rp1328
(dp1329
g19
(I0
I1
tp1330
sbag1
(g15
g3
Ntp1331
Rp1332
(dp1333
g19
(I1
I1
tp1334
sbag1
(g15
g3
Ntp1335
Rp1336
(dp1337
g19
(I2
I1
tp1338
sbag1
(g15
g3
Ntp1339
Rp1340
(dp1341
g19
(I2
I0
tp1342
sbag1
(g15
g3
Ntp1343
Rp1344
(dp1345
g19
(I1
I0
tp1346
sbag1
(g15
g3
Ntp1347
Rp1348
(dp1349
g19
(I1
I-1
tp1350
sbasg33
I7
sg34
S'HHPHH'
p1351
sg36
g1318
sg38
(I7
S'HHHPP'
p1352
g1351
tp1353
sg39
g1352
sbag1
(g2
g3
Ntp1354
Rp1355
(dp1356
g7
I2
sg8
S'HPHPHHP'
p1357
sg10
I00
sg11
I14
sg12
I00
sg13
(lp1358
g1
(g15
g3
Ntp1359
Rp1360
(dp1361
g19
g20
sbag1
(g15
g3
Ntp1362
Rp1363
(dp1364
g19
(I0
I1
tp1365
sbag1
(g15
g3
Ntp1366
Rp1367
(dp1368
g19
(I1
I1
tp1369
sbag1
(g15
g3
Ntp1370
Rp1371
(dp1372
g19
(I2
I1
tp1373
sbag1
(g15
g3
Ntp1374
Rp1375
(dp1376
g19
(I2
I0
tp1377
sbag1
(g15
g3
Ntp1378
Rp1379
(dp1380
g19
(I1
I0
tp1381
sbag1
(g15
g3
Ntp1382
Rp1383
(dp1384
g19
(I1
I-1
tp1385
sbasg33
I7
sg34
g40
sg36
g1318
sg38
Nsg39
g40
sbag1
(g2
g3
Ntp1386
Rp1387
(dp1388
g7
I2
sg8
S'HPHPPHH'
p1389
sg10
I00
sg11
I14
sg12
I00
sg13
(lp1390
g1
(g15
g3
Ntp1391
Rp1392
(dp1393
g19
g20
sbag1
(g15
g3
Ntp1394
Rp1395
(dp1396
g19
(I0
I1
tp1397
sbag1
(g15
g3
Ntp1398
Rp1399
(dp1400
g19
(I1
I1
tp1401
sbag1
(g15
g3
Ntp1402
Rp1403
(dp1404
g19
(I2
I1
tp1405
sbag1
(g15
g3
Ntp1406
Rp1407
(dp1408
g19
(I2
I0
tp1409
sbag1
(g15
g3
Ntp1410
Rp1411
(dp1412
g19
(I1
I0
tp1413
sbag1
(g15
g3
Ntp1414
Rp1415
(dp1416
g19
(I1
I-1
tp1417
sbasg33
I7
sg34
g40
sg36
g1318
sg38
Nsg39
g40
sbag1
(g2
g3
Ntp1418
Rp1419
(dp1420
g7
I2
sg8
S'HPHPHHH'
p1421
sg10
I00
sg11
I14
sg12
I00
sg13
(lp1422
g1
(g15
g3
Ntp1423
Rp1424
(dp1425
g19
g20
sbag1
(g15
g3
Ntp1426
Rp1427
(dp1428
g19
(I0
I1
tp1429
sbag1
(g15
g3
Ntp1430
Rp1431
(dp1432
g19
(I1
I1
tp1433
sbag1
(g15
g3
Ntp1434
Rp1435
(dp1436
g19
(I2
I1
tp1437
sbag1
(g15
g3
Ntp1438
Rp1439
(dp1440
g19
(I2
I0
tp1441
sbag1
(g15
g3
Ntp1442
Rp1443
(dp1444
g19
(I1
I0
tp1445
sbag1
(g15
g3
Ntp1446
Rp1447
(dp1448
g19
(I1
I-1
tp1449
sbasg33
I7
sg34
g40
sg36
g1318
sg38
Nsg39
g40
sba.