(lp0
ccopy_reg
_reconstructor
p1
(cnativeChain
NativeChain
p2
c__builtin__
object
p3
Ntp4
Rp5
(dp6
S'nativeEnergy'
p7
I1
sS'hpstring'
p8
S'HPPH'
p9
sS'ifCat'
p10
I01
sS'generatedNumber'
p11
I0
sS'ifSub'
p12
I00
sS'coordinates'
p13
(lp14
g1
(ccoordinate
Coordinate
p15
g3
Ntp16
Rp17
(dp18
S'coordTuple'
p19
(I0
I0
tp20
sbag1
(g15
g3
Ntp21
Rp22
(dp23
g19
(I0
I1
tp24
sbag1
(g15
g3
Ntp25
Rp26
(dp27
g19
(I1
I1
tp28
sbag1
(g15
g3
Ntp29
Rp30
(dp31
g19
(I1
I0
tp32
sbasS'n'
p33
I4
sS'catalystPattern'
p34
S'HHPH'
p35
sS'vec'
p36
S'URD'
p37
sS'hpbinary'
p38
S'1001'
p39
sS'Type'
p40
NsS'substratePattern'
p41
S''
p42
sbag1
(g2
g3
Ntp43
Rp44
(dp45
g7
I1
sg8
S'HHPH'
p46
sg10
I01
sg11
I1
sg12
I01
sg13
(lp47
g1
(g15
g3
Ntp48
Rp49
(dp50
g19
g20
sbag1
(g15
g3
Ntp51
Rp52
(dp53
g19
(I0
I1
tp54
sbag1
(g15
g3
Ntp55
Rp56
(dp57
g19
(I1
I1
tp58
sbag1
(g15
g3
Ntp59
Rp60
(dp61
g19
(I1
I0
tp62
sbasg33
I4
sg34
S'HHPHH'
p63
sg36
g37
sg38
S'1101'
p64
sg40
(I4
S'HHPH'
p65
g63
tp66
sg41
g65
sbag1
(g2
g3
Ntp67
Rp68
(dp69
g7
I1
sg8
S'HPHH'
p70
sg10
I01
sg11
I1
sg12
I00
sg13
(lp71
g1
(g15
g3
Ntp72
Rp73
(dp74
g19
g20
sbag1
(g15
g3
Ntp75
Rp76
(dp77
g19
(I0
I1
tp78
sbag1
(g15
g3
Ntp79
Rp80
(dp81
g19
(I1
I1
tp82
sbag1
(g15
g3
Ntp83
Rp84
(dp85
g19
(I1
I0
tp86
sbasg33
I4
sg34
g63
sg36
g37
sg38
S'1011'
p87
sg40
Nsg41
g42
sbag1
(g2
g3
Ntp88
Rp89
(dp90
g7
I1
sg8
S'HHHH'
p91
sg10
I01
sg11
I1
sg12
I00
sg13
(lp92
g1
(g15
g3
Ntp93
Rp94
(dp95
g19
g20
sbag1
(g15
g3
Ntp96
Rp97
(dp98
g19
(I0
I1
tp99
sbag1
(g15
g3
Ntp100
Rp101
(dp102
g19
(I1
I1
tp103
sbag1
(g15
g3
Ntp104
Rp105
(dp106
g19
(I1
I0
tp107
sbasg33
I4
sg34
g63
sg36
g37
sg38
S'1111'
p108
sg40
Nsg41
g42
sbag1
(g2
g3
Ntp109
Rp110
(dp111
g7
I2
sg8
S'HHPPHH'
p112
sg10
I01
sg11
I2
sg12
I01
sg13
(lp113
g1
(g15
g3
Ntp114
Rp115
(dp116
g19
g20
sbag1
(g15
g3
Ntp117
Rp118
(dp119
g19
(I0
I1
tp120
sbag1
(g15
g3
Ntp121
Rp122
(dp123
g19
(I0
I2
tp124
sbag1
(g15
g3
Ntp125
Rp126
(dp127
g19
(I1
I2
tp128
sbag1
(g15
g3
Ntp129
Rp130
(dp131
g19
(I1
I1
tp132
sbag1
(g15
g3
Ntp133
Rp134
(dp135
g19
(I1
I0
tp136
sbasg33
I6
sg34
g63
sg36
S'UURDD'
p137
sg38
S'110011'
p138
sg40
(I6
S'HHPP'
p139
g63
tp140
sg41
g139
sbag1
(g2
g3
Ntp141
Rp142
(dp143
g7
I3
sg8
S'HHPPHPPHP'
p144
sg10
I01
sg11
I3
sg12
I01
sg13
(lp145
g1
(g15
g3
Ntp146
Rp147
(dp148
g19
g20
sbag1
(g15
g3
Ntp149
Rp150
(dp151
g19
(I0
I1
tp152
sbag1
(g15
g3
Ntp153
Rp154
(dp155
g19
(I0
I2
tp156
sbag1
(g15
g3
Ntp157
Rp158
(dp159
g19
(I1
I2
tp160
sbag1
(g15
g3
Ntp161
Rp162
(dp163
g19
(I1
I1
tp164
sbag1
(g15
g3
Ntp165
Rp166
(dp167
g19
(I2
I1
tp168
sbag1
(g15
g3
Ntp169
Rp170
(dp171
g19
(I2
I0
tp172
sbag1
(g15
g3
Ntp173
Rp174
(dp175
g19
(I1
I0
tp176
sbag1
(g15
g3
Ntp177
Rp178
(dp179
g19
(I1
I-1
tp180
sbasg33
I9
sg34
g35
sg36
S'UURDRDLD'
p181
sg38
S'110010010'
p182
sg40
(I9
g139
g35
tp183
sg41
g139
sbag1
(g2
g3
Ntp184
Rp185
(dp186
g7
I3
sg8
S'HHHPHPPHP'
p187
sg10
I01
sg11
I4
sg12
I01
sg13
(lp188
g1
(g15
g3
Ntp189
Rp190
(dp191
g19
g20
sbag1
(g15
g3
Ntp192
Rp193
(dp194
g19
(I0
I1
tp195
sbag1
(g15
g3
Ntp196
Rp197
(dp198
g19
(I0
I2
tp199
sbag1
(g15
g3
Ntp200
Rp201
(dp202
g19
(I1
I2
tp203
sbag1
(g15
g3
Ntp204
Rp205
(dp206
g19
(I1
I1
tp207
sbag1
(g15
g3
Ntp208
Rp209
(dp210
g19
(I2
I1
tp211
sbag1
(g15
g3
Ntp212
Rp213
(dp214
g19
(I2
I0
tp215
sbag1
(g15
g3
Ntp216
Rp217
(dp218
g19
(I1
I0
tp219
sbag1
(g15
g3
Ntp220
Rp221
(dp222
g19
(I1
I-1
tp223
sbasg33
I9
sg34
S'HHHPH'
p224
sg36
g181
sg38
S'111010010'
p225
sg40
(I9
S'HHHPH'
p226
g224
tp227
sg41
g226
sbag1
(g2
g3
Ntp228
Rp229
(dp230
g7
I2
sg8
S'PHPPHPH'
p231
sg10
I00
sg11
I4
sg12
I00
sg13
(lp232
g1
(g15
g3
Ntp233
Rp234
(dp235
g19
g20
sbag1
(g15
g3
Ntp236
Rp237
(dp238
g19
(I0
I1
tp239
sbag1
(g15
g3
Ntp240
Rp241
(dp242
g19
(I1
I1
tp243
sbag1
(g15
g3
Ntp244
Rp245
(dp246
g19
(I1
I2
tp247
sbag1
(g15
g3
Ntp248
Rp249
(dp250
g19
(I0
I2
tp251
sbag1
(g15
g3
Ntp252
Rp253
(dp254
g19
(I-1
I2
tp255
sbag1
(g15
g3
Ntp256
Rp257
(dp258
g19
(I-1
I1
tp259
sbasg33
I7
sg34
g42
sg36
S'URULLD'
p260
sg38
S'0100101'
p261
sg40
Nsg41
g42
sbag1
(g2
g3
Ntp262
Rp263
(dp264
g7
I2
sg8
S'HHPPHPH'
p265
sg10
I00
sg11
I4
sg12
I01
sg13
(lp266
g1
(g15
g3
Ntp267
Rp268
(dp269
g19
g20
sbag1
(g15
g3
Ntp270
Rp271
(dp272
g19
(I0
I1
tp273
sbag1
(g15
g3
Ntp274
Rp275
(dp276
g19
(I1
I1
tp277
sbag1
(g15
g3
Ntp278
Rp279
(dp280
g19
(I1
I2
tp281
sbag1
(g15
g3
Ntp282
Rp283
(dp284
g19
(I0
I2
tp285
sbag1
(g15
g3
Ntp286
Rp287
(dp288
g19
(I-1
I2
tp289
sbag1
(g15
g3
Ntp290
Rp291
(dp292
g19
(I-1
I1
tp293
sbasg33
I7
sg34
g42
sg36
g260
sg38
S'1100101'
p294
sg40
Nsg41
g139
sbag1
(g2
g3
Ntp295
Rp296
(dp297
g7
I2
sg8
S'PHHPHPH'
p298
sg10
I00
sg11
I4
sg12
I01
sg13
(lp299
g1
(g15
g3
Ntp300
Rp301
(dp302
g19
g20
sbag1
(g15
g3
Ntp303
Rp304
(dp305
g19
(I0
I1
tp306
sbag1
(g15
g3
Ntp307
Rp308
(dp309
g19
(I1
I1
tp310
sbag1
(g15
g3
Ntp311
Rp312
(dp313
g19
(I1
I2
tp314
sbag1
(g15
g3
Ntp315
Rp316
(dp317
g19
(I0
I2
tp318
sbag1
(g15
g3
Ntp319
Rp320
(dp321
g19
(I-1
I2
tp322
sbag1
(g15
g3
Ntp323
Rp324
(dp325
g19
(I-1
I1
tp326
sbasg33
I7
sg34
g42
sg36
g260
sg38
S'0110101'
p327
sg40
Nsg41
g65
sbag1
(g2
g3
Ntp328
Rp329
(dp330
g7
I2
sg8
S'HHHPHPH'
p331
sg10
I00
sg11
I4
sg12
I01
sg13
(lp332
g1
(g15
g3
Ntp333
Rp334
(dp335
g19
g20
sbag1
(g15
g3
Ntp336
Rp337
(dp338
g19
(I0
I1
tp339
sbag1
(g15
g3
Ntp340
Rp341
(dp342
g19
(I1
I1
tp343
sbag1
(g15
g3
Ntp344
Rp345
(dp346
g19
(I1
I2
tp347
sbag1
(g15
g3
Ntp348
Rp349
(dp350
g19
(I0
I2
tp351
sbag1
(g15
g3
Ntp352
Rp353
(dp354
g19
(I-1
I2
tp355
sbag1
(g15
g3
Ntp356
Rp357
(dp358
g19
(I-1
I1
tp359
sbasg33
I7
sg34
g42
sg36
g260
sg38
S'1110101'
p360
sg40
Nsg41
g226
sbag1
(g2
g3
Ntp361
Rp362
(dp363
g7
I2
sg8
S'PHPPHHH'
p364
sg10
I01
sg11
I4
sg12
I00
sg13
(lp365
g1
(g15
g3
Ntp366
Rp367
(dp368
g19
g20
sbag1
(g15
g3
Ntp369
Rp370
(dp371
g19
(I0
I1
tp372
sbag1
(g15
g3
Ntp373
Rp374
(dp375
g19
(I1
I1
tp376
sbag1
(g15
g3
Ntp377
Rp378
(dp379
g19
(I1
I2
tp380
sbag1
(g15
g3
Ntp381
Rp382
(dp383
g19
(I0
I2
tp384
sbag1
(g15
g3
Ntp385
Rp386
(dp387
g19
(I-1
I2
tp388
sbag1
(g15
g3
Ntp389
Rp390
(dp391
g19
(I-1
I1
tp392
sbasg33
I7
sg34
g63
sg36
g260
sg38
S'0100111'
p393
sg40
Nsg41
g42
sbag1
(g2
g3
Ntp394
Rp395
(dp396
g7
I3
sg8
S'PHPPHPPHH'
p397
sg10
I01
sg11
I4
sg12
I00
sg13
(lp398
g1
(g15
g3
Ntp399
Rp400
(dp401
g19
g20
sbag1
(g15
g3
Ntp402
Rp403
(dp404
g19
(I0
I1
tp405
sbag1
(g15
g3
Ntp406
Rp407
(dp408
g19
(I1
I1
tp409
sbag1
(g15
g3
Ntp410
Rp411
(dp412
g19
(I1
I2
tp413
sbag1
(g15
g3
Ntp414
Rp415
(dp416
g19
(I0
I2
tp417
sbag1
(g15
g3
Ntp418
Rp419
(dp420
g19
(I0
I3
tp421
sbag1
(g15
g3
Ntp422
Rp423
(dp424
g19
(I-1
I3
tp425
sbag1
(g15
g3
Ntp426
Rp427
(dp428
g19
(I-1
I2
tp429
sbag1
(g15
g3
Ntp430
Rp431
(dp432
g19
(I-1
I1
tp433
sbasg33
I9
sg34
S'HHPP'
p434
sg36
S'URULULDD'
p435
sg38
S'010010011'
p436
sg40
Nsg41
g42
sbag1
(g2
g3
Ntp437
Rp438
(dp439
g7
I3
sg8
S'PHPPHPHHH'
p440
sg10
I01
sg11
I4
sg12
I00
sg13
(lp441
g1
(g15
g3
Ntp442
Rp443
(dp444
g19
g20
sbag1
(g15
g3
Ntp445
Rp446
(dp447
g19
(I0
I1
tp448
sbag1
(g15
g3
Ntp449
Rp450
(dp451
g19
(I1
I1
tp452
sbag1
(g15
g3
Ntp453
Rp454
(dp455
g19
(I1
I2
tp456
sbag1
(g15
g3
Ntp457
Rp458
(dp459
g19
(I0
I2
tp460
sbag1
(g15
g3
Ntp461
Rp462
(dp463
g19
(I0
I3
tp464
sbag1
(g15
g3
Ntp465
Rp466
(dp467
g19
(I-1
I3
tp468
sbag1
(g15
g3
Ntp469
Rp470
(dp471
g19
(I-1
I2
tp472
sbag1
(g15
g3
Ntp473
Rp474
(dp475
g19
(I-1
I1
tp476
sbasg33
I9
sg34
g224
sg36
g435
sg38
S'010010111'
p477
sg40
Nsg41
g42
sbag1
(g2
g3
Ntp478
Rp479
(dp480
g7
I3
sg8
S'HPHPHPPH'
p481
sg10
I00
sg11
I4
sg12
I00
sg13
(lp482
g1
(g15
g3
Ntp483
Rp484
(dp485
g19
g20
sbag1
(g15
g3
Ntp486
Rp487
(dp488
g19
(I0
I1
tp489
sbag1
(g15
g3
Ntp490
Rp491
(dp492
g19
(I1
I1
tp493
sbag1
(g15
g3
Ntp494
Rp495
(dp496
g19
(I2
I1
tp497
sbag1
(g15
g3
Ntp498
Rp499
(dp500
g19
(I2
I0
tp501
sbag1
(g15
g3
Ntp502
Rp503
(dp504
g19
(I2
I-1
tp505
sbag1
(g15
g3
Ntp506
Rp507
(dp508
g19
(I1
I-1
tp509
sbag1
(g15
g3
Ntp510
Rp511
(dp512
g19
(I1
I0
tp513
sbasg33
I8
sg34
g42
sg36
S'URRDDLU'
p514
sg38
S'10101001'
p515
sg40
Nsg41
g42
sbag1
(g2
g3
Ntp516
Rp517
(dp518
g7
I3
sg8
S'HPHPHPHH'
p519
sg10
I00
sg11
I4
sg12
I00
sg13
(lp520
g1
(g15
g3
Ntp521
Rp522
(dp523
g19
g20
sbag1
(g15
g3
Ntp524
Rp525
(dp526
g19
(I0
I1
tp527
sbag1
(g15
g3
Ntp528
Rp529
(dp530
g19
(I1
I1
tp531
sbag1
(g15
g3
Ntp532
Rp533
(dp534
g19
(I2
I1
tp535
sbag1
(g15
g3
Ntp536
Rp537
(dp538
g19
(I2
I0
tp539
sbag1
(g15
g3
Ntp540
Rp541
(dp542
g19
(I2
I-1
tp543
sbag1
(g15
g3
Ntp544
Rp545
(dp546
g19
(I1
I-1
tp547
sbag1
(g15
g3
Ntp548
Rp549
(dp550
g19
(I1
I0
tp551
sbasg33
I8
sg34
g42
sg36
g514
sg38
S'10101011'
p552
sg40
Nsg41
g42
sbag1
(g2
g3
Ntp553
Rp554
(dp555
g7
I2
sg8
S'HPPHPH'
p556
sg10
I01
sg11
I4
sg12
I00
sg13
(lp557
g1
(g15
g3
Ntp558
Rp559
(dp560
g19
g20
sbag1
(g15
g3
Ntp561
Rp562
(dp563
g19
(I0
I1
tp564
sbag1
(g15
g3
Ntp565
Rp566
(dp567
g19
(I1
I1
tp568
sbag1
(g15
g3
Ntp569
Rp570
(dp571
g19
(I1
I0
tp572
sbag1
(g15
g3
Ntp573
Rp574
(dp575
g19
(I1
I-1
tp576
sbag1
(g15
g3
Ntp577
Rp578
(dp579
g19
(I0
I-1
tp580
sbasg33
I6
sg34
g35
sg36
S'URDDL'
p581
sg38
S'100101'
p582
sg40
Nsg41
g42
sbag1
(g2
g3
Ntp583
Rp584
(dp585
g7
I2
sg8
S'HHPHPH'
p586
sg10
I01
sg11
I5
sg12
I01
sg13
(lp587
g1
(g15
g3
Ntp588
Rp589
(dp590
g19
g20
sbag1
(g15
g3
Ntp591
Rp592
(dp593
g19
(I0
I1
tp594
sbag1
(g15
g3
Ntp595
Rp596
(dp597
g19
(I1
I1
tp598
sbag1
(g15
g3
Ntp599
Rp600
(dp601
g19
(I1
I0
tp602
sbag1
(g15
g3
Ntp603
Rp604
(dp605
g19
(I1
I-1
tp606
sbag1
(g15
g3
Ntp607
Rp608
(dp609
g19
(I0
I-1
tp610
sbasg33
I6
sg34
g224
sg36
g581
sg38
S'110101'
p611
sg40
(I6
g65
g224
tp612
sg41
g65
sbag1
(g2
g3
Ntp613
Rp614
(dp615
g7
I2
sg8
S'HPPHHH'
p616
sg10
I01
sg11
I5
sg12
I00
sg13
(lp617
g1
(g15
g3
Ntp618
Rp619
(dp620
g19
g20
sbag1
(g15
g3
Ntp621
Rp622
(dp623
g19
(I0
I1
tp624
sbag1
(g15
g3
Ntp625
Rp626
(dp627
g19
(I1
I1
tp628
sbag1
(g15
g3
Ntp629
Rp630
(dp631
g19
(I1
I0
tp632
sbag1
(g15
g3
Ntp633
Rp634
(dp635
g19
(I1
I-1
tp636
sbag1
(g15
g3
Ntp637
Rp638
(dp639
g19
(I0
I-1
tp640
sbasg33
I6
sg34
g63
sg36
g581
sg38
S'100111'
p641
sg40
Nsg41
g42
sbag1
(g2
g3
Ntp642
Rp643
(dp644
g7
I3
sg8
S'HPPHHPPH'
p645
sg10
I01
sg11
I6
sg12
I01
sg13
(lp646
g1
(g15
g3
Ntp647
Rp648
(dp649
g19
g20
sbag1
(g15
g3
Ntp650
Rp651
(dp652
g19
(I0
I1
tp653
sbag1
(g15
g3
Ntp654
Rp655
(dp656
g19
(I1
I1
tp657
sbag1
(g15
g3
Ntp658
Rp659
(dp660
g19
(I1
I0
tp661
sbag1
(g15
g3
Ntp662
Rp663
(dp664
g19
(I1
I-1
tp665
sbag1
(g15
g3
Ntp666
Rp667
(dp668
g19
(I1
I-2
tp669
sbag1
(g15
g3
Ntp670
Rp671
(dp672
g19
(I0
I-2
tp673
sbag1
(g15
g3
Ntp674
Rp675
(dp676
g19
(I0
I-1
tp677
sbasg33
I8
sg34
g434
sg36
S'URDDDLU'
p678
sg38
S'10011001'
p679
sg40
(I8
g139
g434
tp680
sg41
g139
sbag1
(g2
g3
Ntp681
Rp682
(dp683
g7
I3
sg8
S'HPPHPPHH'
p684
sg10
I01
sg11
I6
sg12
I00
sg13
(lp685
g1
(g15
g3
Ntp686
Rp687
(dp688
g19
g20
sbag1
(g15
g3
Ntp689
Rp690
(dp691
g19
(I0
I1
tp692
sbag1
(g15
g3
Ntp693
Rp694
(dp695
g19
(I1
I1
tp696
sbag1
(g15
g3
Ntp697
Rp698
(dp699
g19
(I1
I0
tp700
sbag1
(g15
g3
Ntp701
Rp702
(dp703
g19
(I2
I0
tp704
sbag1
(g15
g3
Ntp705
Rp706
(dp707
g19
(I2
I-1
tp708
sbag1
(g15
g3
Ntp709
Rp710
(dp711
g19
(I1
I-1
tp712
sbag1
(g15
g3
Ntp713
Rp714
(dp715
g19
(I0
I-1
tp716
sbasg33
I8
sg34
g63
sg36
S'URDRDLL'
p717
sg38
S'10010011'
p718
sg40
Nsg41
g42
sbag1
(g2
g3
Ntp719
Rp720
(dp721
g7
I3
sg8
S'PHPPHHPPH'
p722
sg10
I01
sg11
I7
sg12
I01
sg13
(lp723
g1
(g15
g3
Ntp724
Rp725
(dp726
g19
g20
sbag1
(g15
g3
Ntp727
Rp728
(dp729
g19
(I0
I1
tp730
sbag1
(g15
g3
Ntp731
Rp732
(dp733
g19
(I1
I1
tp734
sbag1
(g15
g3
Ntp735
Rp736
(dp737
g19
(I1
I2
tp738
sbag1
(g15
g3
Ntp739
Rp740
(dp741
g19
(I0
I2
tp742
sbag1
(g15
g3
Ntp743
Rp744
(dp745
g19
(I-1
I2
tp746
sbag1
(g15
g3
Ntp747
Rp748
(dp749
g19
(I-2
I2
tp750
sbag1
(g15
g3
Ntp751
Rp752
(dp753
g19
(I-2
I1
tp754
sbag1
(g15
g3
Ntp755
Rp756
(dp757
g19
(I-1
I1
tp758
sbasg33
I9
sg34
g434
sg36
S'URULLLDR'
p759
sg38
S'010011001'
p760
sg40
(I9
g139
g434
tp761
sg41
g139
sbag1
(g2
g3
Ntp762
Rp763
(dp764
g7
I3
sg8
S'HPPHPHPH'
p765
sg10
I00
sg11
I7
sg12
I00
sg13
(lp766
g1
(g15
g3
Ntp767
Rp768
(dp769
g19
g20
sbag1
(g15
g3
Ntp770
Rp771
(dp772
g19
(I0
I1
tp773
sbag1
(g15
g3
Ntp774
Rp775
(dp776
g19
(I1
I1
tp777
sbag1
(g15
g3
Ntp778
Rp779
(dp780
g19
(I1
I0
tp781
sbag1
(g15
g3
Ntp782
Rp783
(dp784
g19
(I1
I-1
tp785
sbag1
(g15
g3
Ntp786
Rp787
(dp788
g19
(I0
I-1
tp789
sbag1
(g15
g3
Ntp790
Rp791
(dp792
g19
(I-1
I-1
tp793
sbag1
(g15
g3
Ntp794
Rp795
(dp796
g19
(I-1
I0
tp797
sbasg33
I8
sg34
g42
sg36
S'URDDLLU'
p798
sg38
S'10010101'
p799
sg40
Nsg41
g42
sbag1
(g2
g3
Ntp800
Rp801
(dp802
g7
I3
sg8
S'HHPHPHPH'
p803
sg10
I00
sg11
I7
sg12
I01
sg13
(lp804
g1
(g15
g3
Ntp805
Rp806
(dp807
g19
g20
sbag1
(g15
g3
Ntp808
Rp809
(dp810
g19
(I0
I1
tp811
sbag1
(g15
g3
Ntp812
Rp813
(dp814
g19
(I1
I1
tp815
sbag1
(g15
g3
Ntp816
Rp817
(dp818
g19
(I1
I0
tp819
sbag1
(g15
g3
Ntp820
Rp821
(dp822
g19
(I1
I-1
tp823
sbag1
(g15
g3
Ntp824
Rp825
(dp826
g19
(I0
I-1
tp827
sbag1
(g15
g3
Ntp828
Rp829
(dp830
g19
(I-1
I-1
tp831
sbag1
(g15
g3
Ntp832
Rp833
(dp834
g19
(I-1
I0
tp835
sbasg33
I8
sg34
g42
sg36
g798
sg38
S'11010101'
p836
sg40
Nsg41
g65
sbag1
(g2
g3
Ntp837
Rp838
(dp839
g7
I2
sg8
S'HPHPPH'
p840
sg10
I01
sg11
I7
sg12
I00
sg13
(lp841
g1
(g15
g3
Ntp842
Rp843
(dp844
g19
g20
sbag1
(g15
g3
Ntp845
Rp846
(dp847
g19
(I0
I1
tp848
sbag1
(g15
g3
Ntp849
Rp850
(dp851
g19
(I1
I1
tp852
sbag1
(g15
g3
Ntp853
Rp854
(dp855
g19
(I2
I1
tp856
sbag1
(g15
g3
Ntp857
Rp858
(dp859
g19
(I2
I0
tp860
sbag1
(g15
g3
Ntp861
Rp862
(dp863
g19
(I1
I0
tp864
sbasg33
I6
sg34
g35
sg36
S'URRDL'
p865
sg38
S'101001'
p866
sg40
Nsg41
g42
sbag1
(g2
g3
Ntp867
Rp868
(dp869
g7
I2
sg8
S'HHHPPH'
p870
sg10
I01
sg11
I8
sg12
I01
sg13
(lp871
g1
(g15
g3
Ntp872
Rp873
(dp874
g19
g20
sbag1
(g15
g3
Ntp875
Rp876
(dp877
g19
(I0
I1
tp878
sbag1
(g15
g3
Ntp879
Rp880
(dp881
g19
(I1
I1
tp882
sbag1
(g15
g3
Ntp883
Rp884
(dp885
g19
(I2
I1
tp886
sbag1
(g15
g3
Ntp887
Rp888
(dp889
g19
(I2
I0
tp890
sbag1
(g15
g3
Ntp891
Rp892
(dp893
g19
(I1
I0
tp894
sbasg33
I6
sg34
g63
sg36
g865
sg38
S'111001'
p895
sg40
(I6
S'HHHPP'
p896
g63
tp897
sg41
g896
sbag1
(g2
g3
Ntp898
Rp899
(dp900
g7
I2
sg8
S'HPHPHH'
p901
sg10
I01
sg11
I8
sg12
I00
sg13
(lp902
g1
(g15
g3
Ntp903
Rp904
(dp905
g19
g20
sbag1
(g15
g3
Ntp906
Rp907
(dp908
g19
(I0
I1
tp909
sbag1
(g15
g3
Ntp910
Rp911
(dp912
g19
(I1
I1
tp913
sbag1
(g15
g3
Ntp914
Rp915
(dp916
g19
(I2
I1
tp917
sbag1
(g15
g3
Ntp918
Rp919
(dp920
g19
(I2
I0
tp921
sbag1
(g15
g3
Ntp922
Rp923
(dp924
g19
(I1
I0
tp925
sbasg33
I6
sg34
g224
sg36
g865
sg38
S'101011'
p926
sg40
Nsg41
g42
sbag1
(g2
g3
Ntp927
Rp928
(dp929
g7
I3
sg8
S'HPPHHPPHP'
p930
sg10
I01
sg11
I9
sg12
I01
sg13
(lp931
g1
(g15
g3
Ntp932
Rp933
(dp934
g19
g20
sbag1
(g15
g3
Ntp935
Rp936
(dp937
g19
(I0
I1
tp938
sbag1
(g15
g3
Ntp939
Rp940
(dp941
g19
(I1
I1
tp942
sbag1
(g15
g3
Ntp943
Rp944
(dp945
g19
(I1
I0
tp946
sbag1
(g15
g3
Ntp947
Rp948
(dp949
g19
(I1
I-1
tp950
sbag1
(g15
g3
Ntp951
Rp952
(dp953
g19
(I1
I-2
tp954
sbag1
(g15
g3
Ntp955
Rp956
(dp957
g19
(I0
I-2
tp958
sbag1
(g15
g3
Ntp959
Rp960
(dp961
g19
(I0
I-1
tp962
sbag1
(g15
g3
Ntp963
Rp964
(dp965
g19
(I-1
I-1
tp966
sbasg33
I9
sg34
g434
sg36
S'URDDDLUL'
p967
sg38
S'100110010'
p968
sg40
(I9
g139
g434
tp969
sg41
g139
sbag1
(g2
g3
Ntp970
Rp971
(dp972
g7
I3
sg8
S'HHPPHPPH'
p973
sg10
I01
sg11
I10
sg12
I01
sg13
(lp974
g1
(g15
g3
Ntp975
Rp976
(dp977
g19
g20
sbag1
(g15
g3
Ntp978
Rp979
(dp980
g19
(I0
I1
tp981
sbag1
(g15
g3
Ntp982
Rp983
(dp984
g19
(I0
I2
tp985
sbag1
(g15
g3
Ntp986
Rp987
(dp988
g19
(I1
I2
tp989
sbag1
(g15
g3
Ntp990
Rp991
(dp992
g19
(I1
I1
tp993
sbag1
(g15
g3
Ntp994
Rp995
(dp996
g19
(I2
I1
tp997
sbag1
(g15
g3
Ntp998
Rp999
(dp1000
g19
(I2
I0
tp1001
sbag1
(g15
g3
Ntp1002
Rp1003
(dp1004
g19
(I1
I0
tp1005
sbasg33
I8
sg34
g63
sg36
S'UURDRDL'
p1006
sg38
S'11001001'
p1007
sg40
(I8
g139
g63
tp1008
sg41
g139
sbag1
(g2
g3
Ntp1009
Rp1010
(dp1011
g7
I2
sg8
S'HPHPPHP'
p1012
sg10
I00
sg11
I10
sg12
I00
sg13
(lp1013
g1
(g15
g3
Ntp1014
Rp1015
(dp1016
g19
g20
sbag1
(g15
g3
Ntp1017
Rp1018
(dp1019
g19
(I0
I1
tp1020
sbag1
(g15
g3
Ntp1021
Rp1022
(dp1023
g19
(I1
I1
tp1024
sbag1
(g15
g3
Ntp1025
Rp1026
(dp1027
g19
(I2
I1
tp1028
sbag1
(g15
g3
Ntp1029
Rp1030
(dp1031
g19
(I2
I0
tp1032
sbag1
(g15
g3
Ntp1033
Rp1034
(dp1035
g19
(I1
I0
tp1036
sbag1
(g15
g3
Ntp1037
Rp1038
(dp1039
g19
(I1
I-1
tp1040
sbasg33
I7
sg34
g42
sg36
S'URRDLD'
p1041
sg38
S'1010010'
p1042
sg40
Nsg41
g42
sbag1
(g2
g3
Ntp1043
Rp1044
(dp1045
g7
I2
sg8
S'HHHPPHP'
p1046
sg10
I01
sg11
I11
sg12
I01
sg13
(lp1047
g1
(g15
g3
Ntp1048
Rp1049
(dp1050
g19
g20
sbag1
(g15
g3
Ntp1051
Rp1052
(dp1053
g19
(I0
I1
tp1054
sbag1
(g15
g3
Ntp1055
Rp1056
(dp1057
g19
(I1
I1
tp1058
sbag1
(g15
g3
Ntp1059
Rp1060
(dp1061
g19
(I2
I1
tp1062
sbag1
(g15
g3
Ntp1063
Rp1064
(dp1065
g19
(I2
I0
tp1066
sbag1
(g15
g3
Ntp1067
Rp1068
(dp1069
g19
(I1
I0
tp1070
sbag1
(g15
g3
Ntp1071
Rp1072
(dp1073
g19
(I1
I-1
tp1074
sbasg33
I7
sg34
g63
sg36
g1041
sg38
S'1110010'
p1075
sg40
(I7
g896
g63
tp1076
sg41
g896
sbag1
(g2
g3
Ntp1077
Rp1078
(dp1079
g7
I2
sg8
S'HPHPHHP'
p1080
sg10
I00
sg11
I11
sg12
I00
sg13
(lp1081
g1
(g15
g3
Ntp1082
Rp1083
(dp1084
g19
g20
sbag1
(g15
g3
Ntp1085
Rp1086
(dp1087
g19
(I0
I1
tp1088
sbag1
(g15
g3
Ntp1089
Rp1090
(dp1091
g19
(I1
I1
tp1092
sbag1
(g15
g3
Ntp1093
Rp1094
(dp1095
g19
(I2
I1
tp1096
sbag1
(g15
g3
Ntp1097
Rp1098
(dp1099
g19
(I2
I0
tp1100
sbag1
(g15
g3
Ntp1101
Rp1102
(dp1103
g19
(I1
I0
tp1104
sbag1
(g15
g3
Ntp1105
Rp1106
(dp1107
g19
(I1
I-1
tp1108
sbasg33
I7
sg34
g42
sg36
g1041
sg38
S'1010110'
p1109
sg40
Nsg41
g42
sbag1
(g2
g3
Ntp1110
Rp1111
(dp1112
g7
I2
sg8
S'HPHPPHH'
p1113
sg10
I00
sg11
I11
sg12
I00
sg13
(lp1114
g1
(g15
g3
Ntp1115
Rp1116
(dp1117
g19
g20
sbag1
(g15
g3
Ntp1118
Rp1119
(dp1120
g19
(I0
I1
tp1121
sbag1
(g15
g3
Ntp1122
Rp1123
(dp1124
g19
(I1
I1
tp1125
sbag1
(g15
g3
Ntp1126
Rp1127
(dp1128
g19
(I2
I1
tp1129
sbag1
(g15
g3
Ntp1130
Rp1131
(dp1132
g19
(I2
I0
tp1133
sbag1
(g15
g3
Ntp1134
Rp1135
(dp1136
g19
(I1
I0
tp1137
sbag1
(g15
g3
Ntp1138
Rp1139
(dp1140
g19
(I1
I-1
tp1141
sbasg33
I7
sg34
g42
sg36
g1041
sg38
S'1010011'
p1142
sg40
Nsg41
g42
sbag1
(g2
g3
Ntp1143
Rp1144
(dp1145
g7
I2
sg8
S'HPHPHHH'
p1146
sg10
I00
sg11
I11
sg12
I00
sg13
(lp1147
g1
(g15
g3
Ntp1148
Rp1149
(dp1150
g19
g20
sbag1
(g15
g3
Ntp1151
Rp1152
(dp1153
g19
(I0
I1
tp1154
sbag1
(g15
g3
Ntp1155
Rp1156
(dp1157
g19
(I1
I1
tp1158
sbag1
(g15
g3
Ntp1159
Rp1160
(dp1161
g19
(I2
I1
tp1162
sbag1
(g15
g3
Ntp1163
Rp1164
(dp1165
g19
(I2
I0
tp1166
sbag1
(g15
g3
Ntp1167
Rp1168
(dp1169
g19
(I1
I0
tp1170
sbag1
(g15
g3
Ntp1171
Rp1172
(dp1173
g19
(I1
I-1
tp1174
sbasg33
I7
sg34
g42
sg36
g1041
sg38
S'1010111'
p1175
sg40
Nsg41
g42
sba.