(lp0
ccopy_reg
_reconstructor
p1
(cnativeChain
NativeChain
p2
c__builtin__
object
p3
Ntp4
Rp5
(dp6
S'nativeEnergy'
p7
I1
sS'hpstring'
p8
S'HPPH'
p9
sS'ifCat'
p10
I01
sS'generatedNumber'
p11
I0
sS'ifSub'
p12
I00
sS'coordinates'
p13
(lp14
g1
(ccoordinate
Coordinate
p15
g3
Ntp16
Rp17
(dp18
S'coordTuple'
p19
(I0
I0
tp20
sbag1
(g15
g3
Ntp21
Rp22
(dp23
g19
(I0
I1
tp24
sbag1
(g15
g3
Ntp25
Rp26
(dp27
g19
(I1
I1
tp28
sbag1
(g15
g3
Ntp29
Rp30
(dp31
g19
(I1
I0
tp32
sbasS'n'
p33
I4
sS'catalystPattern'
p34
S'HHPH'
p35
sS'vec'
p36
S'URD'
p37
sS'hpbinary'
p38
(lp39
I1
aI0
aI0
aI1
asS'Type'
p40
NsS'substratePattern'
p41
S''
p42
sbag1
(g2
g3
Ntp43
Rp44
(dp45
g7
I1
sg8
S'HHPH'
p46
sg10
I01
sg11
I1
sg12
I01
sg13
(lp47
g1
(g15
g3
Ntp48
Rp49
(dp50
g19
g20
sbag1
(g15
g3
Ntp51
Rp52
(dp53
g19
(I0
I1
tp54
sbag1
(g15
g3
Ntp55
Rp56
(dp57
g19
(I1
I1
tp58
sbag1
(g15
g3
Ntp59
Rp60
(dp61
g19
(I1
I0
tp62
sbasg33
I4
sg34
S'HHPHH'
p63
sg36
g37
sg38
(lp64
I1
aI1
aI0
aI1
asg40
(I4
S'HHPH'
p65
g63
tp66
sg41
g65
sbag1
(g2
g3
Ntp67
Rp68
(dp69
g7
I1
sg8
S'HPHH'
p70
sg10
I01
sg11
I1
sg12
I00
sg13
(lp71
g1
(g15
g3
Ntp72
Rp73
(dp74
g19
g20
sbag1
(g15
g3
Ntp75
Rp76
(dp77
g19
(I0
I1
tp78
sbag1
(g15
g3
Ntp79
Rp80
(dp81
g19
(I1
I1
tp82
sbag1
(g15
g3
Ntp83
Rp84
(dp85
g19
(I1
I0
tp86
sbasg33
I4
sg34
g63
sg36
g37
sg38
(lp87
I1
aI0
aI1
aI1
asg40
Nsg41
g42
sbag1
(g2
g3
Ntp88
Rp89
(dp90
g7
I1
sg8
S'HHHH'
p91
sg10
I01
sg11
I1
sg12
I00
sg13
(lp92
g1
(g15
g3
Ntp93
Rp94
(dp95
g19
g20
sbag1
(g15
g3
Ntp96
Rp97
(dp98
g19
(I0
I1
tp99
sbag1
(g15
g3
Ntp100
Rp101
(dp102
g19
(I1
I1
tp103
sbag1
(g15
g3
Ntp104
Rp105
(dp106
g19
(I1
I0
tp107
sbasg33
I4
sg34
g63
sg36
g37
sg38
(lp108
I1
aI1
aI1
aI1
asg40
Nsg41
g42
sba.