(lp0
ccopy_reg
_reconstructor
p1
(cnativeChain
NativeChain
p2
c__builtin__
object
p3
Ntp4
Rp5
(dp6
S'nativeEnergy'
p7
I4
sS'hpstring'
p8
S'HPHPPPPHPPHH'
p9
sS'ifCat'
p10
NsS'generatedNumber'
p11
I0
sS'ifSub'
p12
NsS'coordinates'
p13
(lp14
g1
(ccoordinate
Coordinate
p15
g3
Ntp16
Rp17
(dp18
S'coordTuple'
p19
(I0
I0
tp20
sbag1
(g15
g3
Ntp21
Rp22
(dp23
g19
(I0
I1
tp24
sbag1
(g15
g3
Ntp25
Rp26
(dp27
g19
(I1
I1
tp28
sbag1
(g15
g3
Ntp29
Rp30
(dp31
g19
(I1
I2
tp32
sbag1
(g15
g3
Ntp33
Rp34
(dp35
g19
(I1
I3
tp36
sbag1
(g15
g3
Ntp37
Rp38
(dp39
g19
(I2
I3
tp40
sbag1
(g15
g3
Ntp41
Rp42
(dp43
g19
(I2
I2
tp44
sbag1
(g15
g3
Ntp45
Rp46
(dp47
g19
(I2
I1
tp48
sbag1
(g15
g3
Ntp49
Rp50
(dp51
g19
(I3
I1
tp52
sbag1
(g15
g3
Ntp53
Rp54
(dp55
g19
(I3
I0
tp56
sbag1
(g15
g3
Ntp57
Rp58
(dp59
g19
(I2
I0
tp60
sbag1
(g15
g3
Ntp61
Rp62
(dp63
g19
(I1
I0
tp64
sbasS'n'
p65
I12
sS'catalystPattern'
p66
NsS'vec'
p67
S'URUURDDRDLL'
p68
sS'hpbinary'
p69
S'101000010011'
p70
sS'Type'
p71
NsS'substratePattern'
p72
Nsbag1
(g2
g3
Ntp73
Rp74
(dp75
g7
I4
sg8
S'PHHPPHPPHPH'
p76
sg10
Nsg11
I0
sg12
Nsg13
(lp77
g1
(g15
g3
Ntp78
Rp79
(dp80
g19
g20
sbag1
(g15
g3
Ntp81
Rp82
(dp83
g19
(I0
I1
tp84
sbag1
(g15
g3
Ntp85
Rp86
(dp87
g19
(I1
I1
tp88
sbag1
(g15
g3
Ntp89
Rp90
(dp91
g19
(I2
I1
tp92
sbag1
(g15
g3
Ntp93
Rp94
(dp95
g19
(I2
I2
tp96
sbag1
(g15
g3
Ntp97
Rp98
(dp99
g19
(I1
I2
tp100
sbag1
(g15
g3
Ntp101
Rp102
(dp103
g19
(I1
I3
tp104
sbag1
(g15
g3
Ntp105
Rp106
(dp107
g19
(I0
I3
tp108
sbag1
(g15
g3
Ntp109
Rp110
(dp111
g19
(I0
I2
tp112
sbag1
(g15
g3
Ntp113
Rp114
(dp115
g19
(I-1
I2
tp116
sbag1
(g15
g3
Ntp117
Rp118
(dp119
g19
(I-1
I1
tp120
sbasg65
I11
sg66
Nsg67
S'URRULULDLD'
p121
sg69
S'01100100101'
p122
sg71
Nsg72
Nsbag1
(g2
g3
Ntp123
Rp124
(dp125
g7
I4
sg8
S'HHHPPHPPHPH'
p126
sg10
Nsg11
I0
sg12
Nsg13
(lp127
g1
(g15
g3
Ntp128
Rp129
(dp130
g19
g20
sbag1
(g15
g3
Ntp131
Rp132
(dp133
g19
(I0
I1
tp134
sbag1
(g15
g3
Ntp135
Rp136
(dp137
g19
(I1
I1
tp138
sbag1
(g15
g3
Ntp139
Rp140
(dp141
g19
(I2
I1
tp142
sbag1
(g15
g3
Ntp143
Rp144
(dp145
g19
(I2
I2
tp146
sbag1
(g15
g3
Ntp147
Rp148
(dp149
g19
(I1
I2
tp150
sbag1
(g15
g3
Ntp151
Rp152
(dp153
g19
(I1
I3
tp154
sbag1
(g15
g3
Ntp155
Rp156
(dp157
g19
(I0
I3
tp158
sbag1
(g15
g3
Ntp159
Rp160
(dp161
g19
(I0
I2
tp162
sbag1
(g15
g3
Ntp163
Rp164
(dp165
g19
(I-1
I2
tp166
sbag1
(g15
g3
Ntp167
Rp168
(dp169
g19
(I-1
I1
tp170
sbasg65
I11
sg66
Nsg67
g121
sg69
S'11100100101'
p171
sg71
Nsg72
Nsbag1
(g2
g3
Ntp172
Rp173
(dp174
g7
I4
sg8
S'PHHPPHHPHPH'
p175
sg10
Nsg11
I0
sg12
Nsg13
(lp176
g1
(g15
g3
Ntp177
Rp178
(dp179
g19
g20
sbag1
(g15
g3
Ntp180
Rp181
(dp182
g19
(I0
I1
tp183
sbag1
(g15
g3
Ntp184
Rp185
(dp186
g19
(I1
I1
tp187
sbag1
(g15
g3
Ntp188
Rp189
(dp190
g19
(I2
I1
tp191
sbag1
(g15
g3
Ntp192
Rp193
(dp194
g19
(I2
I2
tp195
sbag1
(g15
g3
Ntp196
Rp197
(dp198
g19
(I1
I2
tp199
sbag1
(g15
g3
Ntp200
Rp201
(dp202
g19
(I1
I3
tp203
sbag1
(g15
g3
Ntp204
Rp205
(dp206
g19
(I0
I3
tp207
sbag1
(g15
g3
Ntp208
Rp209
(dp210
g19
(I0
I2
tp211
sbag1
(g15
g3
Ntp212
Rp213
(dp214
g19
(I-1
I2
tp215
sbag1
(g15
g3
Ntp216
Rp217
(dp218
g19
(I-1
I1
tp219
sbasg65
I11
sg66
Nsg67
g121
sg69
S'01100110101'
p220
sg71
Nsg72
Nsbag1
(g2
g3
Ntp221
Rp222
(dp223
g7
I4
sg8
S'HHHPPHHPHPH'
p224
sg10
Nsg11
I0
sg12
Nsg13
(lp225
g1
(g15
g3
Ntp226
Rp227
(dp228
g19
g20
sbag1
(g15
g3
Ntp229
Rp230
(dp231
g19
(I0
I1
tp232
sbag1
(g15
g3
Ntp233
Rp234
(dp235
g19
(I1
I1
tp236
sbag1
(g15
g3
Ntp237
Rp238
(dp239
g19
(I2
I1
tp240
sbag1
(g15
g3
Ntp241
Rp242
(dp243
g19
(I2
I2
tp244
sbag1
(g15
g3
Ntp245
Rp246
(dp247
g19
(I1
I2
tp248
sbag1
(g15
g3
Ntp249
Rp250
(dp251
g19
(I1
I3
tp252
sbag1
(g15
g3
Ntp253
Rp254
(dp255
g19
(I0
I3
tp256
sbag1
(g15
g3
Ntp257
Rp258
(dp259
g19
(I0
I2
tp260
sbag1
(g15
g3
Ntp261
Rp262
(dp263
g19
(I-1
I2
tp264
sbag1
(g15
g3
Ntp265
Rp266
(dp267
g19
(I-1
I1
tp268
sbasg65
I11
sg66
Nsg67
g121
sg69
S'11100110101'
p269
sg71
Nsg72
Nsbag1
(g2
g3
Ntp270
Rp271
(dp272
g7
I4
sg8
S'HPHPPHHPPHP'
p273
sg10
Nsg11
I0
sg12
Nsg13
(lp274
g1
(g15
g3
Ntp275
Rp276
(dp277
g19
g20
sbag1
(g15
g3
Ntp278
Rp279
(dp280
g19
(I0
I1
tp281
sbag1
(g15
g3
Ntp282
Rp283
(dp284
g19
(I1
I1
tp285
sbag1
(g15
g3
Ntp286
Rp287
(dp288
g19
(I2
I1
tp289
sbag1
(g15
g3
Ntp290
Rp291
(dp292
g19
(I2
I0
tp293
sbag1
(g15
g3
Ntp294
Rp295
(dp296
g19
(I1
I0
tp297
sbag1
(g15
g3
Ntp298
Rp299
(dp300
g19
(I1
I-1
tp301
sbag1
(g15
g3
Ntp302
Rp303
(dp304
g19
(I1
I-2
tp305
sbag1
(g15
g3
Ntp306
Rp307
(dp308
g19
(I0
I-2
tp309
sbag1
(g15
g3
Ntp310
Rp311
(dp312
g19
(I0
I-1
tp313
sbag1
(g15
g3
Ntp314
Rp315
(dp316
g19
(I-1
I-1
tp317
sbasg65
I11
sg66
Nsg67
S'URRDLDDLUL'
p318
sg69
S'10100110010'
p319
sg71
Nsg72
Nsbag1
(g2
g3
Ntp320
Rp321
(dp322
g7
I4
sg8
S'HPHPPHHPPHH'
p323
sg10
Nsg11
I0
sg12
Nsg13
(lp324
g1
(g15
g3
Ntp325
Rp326
(dp327
g19
g20
sbag1
(g15
g3
Ntp328
Rp329
(dp330
g19
(I0
I1
tp331
sbag1
(g15
g3
Ntp332
Rp333
(dp334
g19
(I1
I1
tp335
sbag1
(g15
g3
Ntp336
Rp337
(dp338
g19
(I2
I1
tp339
sbag1
(g15
g3
Ntp340
Rp341
(dp342
g19
(I2
I0
tp343
sbag1
(g15
g3
Ntp344
Rp345
(dp346
g19
(I1
I0
tp347
sbag1
(g15
g3
Ntp348
Rp349
(dp350
g19
(I1
I-1
tp351
sbag1
(g15
g3
Ntp352
Rp353
(dp354
g19
(I1
I-2
tp355
sbag1
(g15
g3
Ntp356
Rp357
(dp358
g19
(I0
I-2
tp359
sbag1
(g15
g3
Ntp360
Rp361
(dp362
g19
(I0
I-1
tp363
sbag1
(g15
g3
Ntp364
Rp365
(dp366
g19
(I-1
I-1
tp367
sbasg65
I11
sg66
Nsg67
g318
sg69
S'10100110011'
p368
sg71
Nsg72
Nsbag1
(g2
g3
Ntp369
Rp370
(dp371
g7
I4
sg8
S'HPPHPPHPPH'
p372
sg10
Nsg11
I0
sg12
Nsg13
(lp373
g1
(g15
g3
Ntp374
Rp375
(dp376
g19
g20
sbag1
(g15
g3
Ntp377
Rp378
(dp379
g19
(I0
I1
tp380
sbag1
(g15
g3
Ntp381
Rp382
(dp383
g19
(I1
I1
tp384
sbag1
(g15
g3
Ntp385
Rp386
(dp387
g19
(I1
I0
tp388
sbag1
(g15
g3
Ntp389
Rp390
(dp391
g19
(I2
I0
tp392
sbag1
(g15
g3
Ntp393
Rp394
(dp395
g19
(I2
I-1
tp396
sbag1
(g15
g3
Ntp397
Rp398
(dp399
g19
(I1
I-1
tp400
sbag1
(g15
g3
Ntp401
Rp402
(dp403
g19
(I1
I-2
tp404
sbag1
(g15
g3
Ntp405
Rp406
(dp407
g19
(I0
I-2
tp408
sbag1
(g15
g3
Ntp409
Rp410
(dp411
g19
(I0
I-1
tp412
sbasg65
I10
sg66
Nsg67
S'URDRDLDLU'
p413
sg69
S'1001001001'
p414
sg71
Nsg72
Nsbag1
(g2
g3
Ntp415
Rp416
(dp417
g7
I4
sg8
S'HHPHPPHPPH'
p418
sg10
Nsg11
I0
sg12
Nsg13
(lp419
g1
(g15
g3
Ntp420
Rp421
(dp422
g19
g20
sbag1
(g15
g3
Ntp423
Rp424
(dp425
g19
(I0
I1
tp426
sbag1
(g15
g3
Ntp427
Rp428
(dp429
g19
(I1
I1
tp430
sbag1
(g15
g3
Ntp431
Rp432
(dp433
g19
(I1
I0
tp434
sbag1
(g15
g3
Ntp435
Rp436
(dp437
g19
(I2
I0
tp438
sbag1
(g15
g3
Ntp439
Rp440
(dp441
g19
(I2
I-1
tp442
sbag1
(g15
g3
Ntp443
Rp444
(dp445
g19
(I1
I-1
tp446
sbag1
(g15
g3
Ntp447
Rp448
(dp449
g19
(I1
I-2
tp450
sbag1
(g15
g3
Ntp451
Rp452
(dp453
g19
(I0
I-2
tp454
sbag1
(g15
g3
Ntp455
Rp456
(dp457
g19
(I0
I-1
tp458
sbasg65
I10
sg66
Nsg67
g413
sg69
S'1101001001'
p459
sg71
Nsg72
Nsbag1
(g2
g3
Ntp460
Rp461
(dp462
g7
I4
sg8
S'HPPHPPHPHH'
p463
sg10
Nsg11
I0
sg12
Nsg13
(lp464
g1
(g15
g3
Ntp465
Rp466
(dp467
g19
g20
sbag1
(g15
g3
Ntp468
Rp469
(dp470
g19
(I0
I1
tp471
sbag1
(g15
g3
Ntp472
Rp473
(dp474
g19
(I1
I1
tp475
sbag1
(g15
g3
Ntp476
Rp477
(dp478
g19
(I1
I0
tp479
sbag1
(g15
g3
Ntp480
Rp481
(dp482
g19
(I2
I0
tp483
sbag1
(g15
g3
Ntp484
Rp485
(dp486
g19
(I2
I-1
tp487
sbag1
(g15
g3
Ntp488
Rp489
(dp490
g19
(I1
I-1
tp491
sbag1
(g15
g3
Ntp492
Rp493
(dp494
g19
(I1
I-2
tp495
sbag1
(g15
g3
Ntp496
Rp497
(dp498
g19
(I0
I-2
tp499
sbag1
(g15
g3
Ntp500
Rp501
(dp502
g19
(I0
I-1
tp503
sbasg65
I10
sg66
Nsg67
g413
sg69
S'1001001011'
p504
sg71
Nsg72
Nsbag1
(g2
g3
Ntp505
Rp506
(dp507
g7
I5
sg8
S'HPPHPHPPHPPH'
p508
sg10
Nsg11
I0
sg12
Nsg13
(lp509
g1
(g15
g3
Ntp510
Rp511
(dp512
g19
g20
sbag1
(g15
g3
Ntp513
Rp514
(dp515
g19
(I0
I1
tp516
sbag1
(g15
g3
Ntp517
Rp518
(dp519
g19
(I1
I1
tp520
sbag1
(g15
g3
Ntp521
Rp522
(dp523
g19
(I1
I0
tp524
sbag1
(g15
g3
Ntp525
Rp526
(dp527
g19
(I1
I-1
tp528
sbag1
(g15
g3
Ntp529
Rp530
(dp531
g19
(I0
I-1
tp532
sbag1
(g15
g3
Ntp533
Rp534
(dp535
g19
(I0
I-2
tp536
sbag1
(g15
g3
Ntp537
Rp538
(dp539
g19
(I-1
I-2
tp540
sbag1
(g15
g3
Ntp541
Rp542
(dp543
g19
(I-1
I-1
tp544
sbag1
(g15
g3
Ntp545
Rp546
(dp547
g19
(I-2
I-1
tp548
sbag1
(g15
g3
Ntp549
Rp550
(dp551
g19
(I-2
I0
tp552
sbag1
(g15
g3
Ntp553
Rp554
(dp555
g19
(I-1
I0
tp556
sbasg65
I12
sg66
Nsg67
S'URDDLDLULUR'
p557
sg69
S'100101001001'
p558
sg71
Nsg72
Nsbag1
(g2
g3
Ntp559
Rp560
(dp561
g7
I5
sg8
S'HHPHPHPPHPPH'
p562
sg10
Nsg11
I0
sg12
Nsg13
(lp563
g1
(g15
g3
Ntp564
Rp565
(dp566
g19
g20
sbag1
(g15
g3
Ntp567
Rp568
(dp569
g19
(I0
I1
tp570
sbag1
(g15
g3
Ntp571
Rp572
(dp573
g19
(I1
I1
tp574
sbag1
(g15
g3
Ntp575
Rp576
(dp577
g19
(I1
I0
tp578
sbag1
(g15
g3
Ntp579
Rp580
(dp581
g19
(I1
I-1
tp582
sbag1
(g15
g3
Ntp583
Rp584
(dp585
g19
(I0
I-1
tp586
sbag1
(g15
g3
Ntp587
Rp588
(dp589
g19
(I0
I-2
tp590
sbag1
(g15
g3
Ntp591
Rp592
(dp593
g19
(I-1
I-2
tp594
sbag1
(g15
g3
Ntp595
Rp596
(dp597
g19
(I-1
I-1
tp598
sbag1
(g15
g3
Ntp599
Rp600
(dp601
g19
(I-2
I-1
tp602
sbag1
(g15
g3
Ntp603
Rp604
(dp605
g19
(I-2
I0
tp606
sbag1
(g15
g3
Ntp607
Rp608
(dp609
g19
(I-1
I0
tp610
sbasg65
I12
sg66
Nsg67
g557
sg69
S'110101001001'
p611
sg71
Nsg72
Nsbag1
(g2
g3
Ntp612
Rp613
(dp614
g7
I5
sg8
S'HPPHPHPHHPPH'
p615
sg10
Nsg11
I0
sg12
Nsg13
(lp616
g1
(g15
g3
Ntp617
Rp618
(dp619
g19
g20
sbag1
(g15
g3
Ntp620
Rp621
(dp622
g19
(I0
I1
tp623
sbag1
(g15
g3
Ntp624
Rp625
(dp626
g19
(I1
I1
tp627
sbag1
(g15
g3
Ntp628
Rp629
(dp630
g19
(I1
I0
tp631
sbag1
(g15
g3
Ntp632
Rp633
(dp634
g19
(I1
I-1
tp635
sbag1
(g15
g3
Ntp636
Rp637
(dp638
g19
(I0
I-1
tp639
sbag1
(g15
g3
Ntp640
Rp641
(dp642
g19
(I0
I-2
tp643
sbag1
(g15
g3
Ntp644
Rp645
(dp646
g19
(I-1
I-2
tp647
sbag1
(g15
g3
Ntp648
Rp649
(dp650
g19
(I-1
I-1
tp651
sbag1
(g15
g3
Ntp652
Rp653
(dp654
g19
(I-2
I-1
tp655
sbag1
(g15
g3
Ntp656
Rp657
(dp658
g19
(I-2
I0
tp659
sbag1
(g15
g3
Ntp660
Rp661
(dp662
g19
(I-1
I0
tp663
sbasg65
I12
sg66
Nsg67
g557
sg69
S'100101011001'
p664
sg71
Nsg72
Nsbag1
(g2
g3
Ntp665
Rp666
(dp667
g7
I5
sg8
S'HPHPHPHPPHPH'
p668
sg10
Nsg11
I0
sg12
Nsg13
(lp669
g1
(g15
g3
Ntp670
Rp671
(dp672
g19
g20
sbag1
(g15
g3
Ntp673
Rp674
(dp675
g19
(I0
I1
tp676
sbag1
(g15
g3
Ntp677
Rp678
(dp679
g19
(I1
I1
tp680
sbag1
(g15
g3
Ntp681
Rp682
(dp683
g19
(I2
I1
tp684
sbag1
(g15
g3
Ntp685
Rp686
(dp687
g19
(I2
I0
tp688
sbag1
(g15
g3
Ntp689
Rp690
(dp691
g19
(I3
I0
tp692
sbag1
(g15
g3
Ntp693
Rp694
(dp695
g19
(I3
I-1
tp696
sbag1
(g15
g3
Ntp697
Rp698
(dp699
g19
(I3
I-2
tp700
sbag1
(g15
g3
Ntp701
Rp702
(dp703
g19
(I2
I-2
tp704
sbag1
(g15
g3
Ntp705
Rp706
(dp707
g19
(I2
I-1
tp708
sbag1
(g15
g3
Ntp709
Rp710
(dp711
g19
(I1
I-1
tp712
sbag1
(g15
g3
Ntp713
Rp714
(dp715
g19
(I1
I0
tp716
sbasg65
I12
sg66
Nsg67
S'URRDRDDLULU'
p717
sg69
S'101010100101'
p718
sg71
Nsg72
Nsbag1
(g2
g3
Ntp719
Rp720
(dp721
g7
I5
sg8
S'HPHPHPHPHHPH'
p722
sg10
Nsg11
I0
sg12
Nsg13
(lp723
g1
(g15
g3
Ntp724
Rp725
(dp726
g19
g20
sbag1
(g15
g3
Ntp727
Rp728
(dp729
g19
(I0
I1
tp730
sbag1
(g15
g3
Ntp731
Rp732
(dp733
g19
(I1
I1
tp734
sbag1
(g15
g3
Ntp735
Rp736
(dp737
g19
(I2
I1
tp738
sbag1
(g15
g3
Ntp739
Rp740
(dp741
g19
(I2
I0
tp742
sbag1
(g15
g3
Ntp743
Rp744
(dp745
g19
(I3
I0
tp746
sbag1
(g15
g3
Ntp747
Rp748
(dp749
g19
(I3
I-1
tp750
sbag1
(g15
g3
Ntp751
Rp752
(dp753
g19
(I3
I-2
tp754
sbag1
(g15
g3
Ntp755
Rp756
(dp757
g19
(I2
I-2
tp758
sbag1
(g15
g3
Ntp759
Rp760
(dp761
g19
(I2
I-1
tp762
sbag1
(g15
g3
Ntp763
Rp764
(dp765
g19
(I1
I-1
tp766
sbag1
(g15
g3
Ntp767
Rp768
(dp769
g19
(I1
I0
tp770
sbasg65
I12
sg66
Nsg67
g717
sg69
S'101010101101'
p771
sg71
Nsg72
Nsbag1
(g2
g3
Ntp772
Rp773
(dp774
g7
I5
sg8
S'HPHPHPHPPHHH'
p775
sg10
Nsg11
I0
sg12
Nsg13
(lp776
g1
(g15
g3
Ntp777
Rp778
(dp779
g19
g20
sbag1
(g15
g3
Ntp780
Rp781
(dp782
g19
(I0
I1
tp783
sbag1
(g15
g3
Ntp784
Rp785
(dp786
g19
(I1
I1
tp787
sbag1
(g15
g3
Ntp788
Rp789
(dp790
g19
(I2
I1
tp791
sbag1
(g15
g3
Ntp792
Rp793
(dp794
g19
(I2
I0
tp795
sbag1
(g15
g3
Ntp796
Rp797
(dp798
g19
(I3
I0
tp799
sbag1
(g15
g3
Ntp800
Rp801
(dp802
g19
(I3
I-1
tp803
sbag1
(g15
g3
Ntp804
Rp805
(dp806
g19
(I3
I-2
tp807
sbag1
(g15
g3
Ntp808
Rp809
(dp810
g19
(I2
I-2
tp811
sbag1
(g15
g3
Ntp812
Rp813
(dp814
g19
(I2
I-1
tp815
sbag1
(g15
g3
Ntp816
Rp817
(dp818
g19
(I1
I-1
tp819
sbag1
(g15
g3
Ntp820
Rp821
(dp822
g19
(I1
I0
tp823
sbasg65
I12
sg66
Nsg67
g717
sg69
S'101010100111'
p824
sg71
Nsg72
Nsbag1
(g2
g3
Ntp825
Rp826
(dp827
g7
I5
sg8
S'HPHPHPHPHHHH'
p828
sg10
Nsg11
I0
sg12
Nsg13
(lp829
g1
(g15
g3
Ntp830
Rp831
(dp832
g19
g20
sbag1
(g15
g3
Ntp833
Rp834
(dp835
g19
(I0
I1
tp836
sbag1
(g15
g3
Ntp837
Rp838
(dp839
g19
(I1
I1
tp840
sbag1
(g15
g3
Ntp841
Rp842
(dp843
g19
(I2
I1
tp844
sbag1
(g15
g3
Ntp845
Rp846
(dp847
g19
(I2
I0
tp848
sbag1
(g15
g3
Ntp849
Rp850
(dp851
g19
(I3
I0
tp852
sbag1
(g15
g3
Ntp853
Rp854
(dp855
g19
(I3
I-1
tp856
sbag1
(g15
g3
Ntp857
Rp858
(dp859
g19
(I3
I-2
tp860
sbag1
(g15
g3
Ntp861
Rp862
(dp863
g19
(I2
I-2
tp864
sbag1
(g15
g3
Ntp865
Rp866
(dp867
g19
(I2
I-1
tp868
sbag1
(g15
g3
Ntp869
Rp870
(dp871
g19
(I1
I-1
tp872
sbag1
(g15
g3
Ntp873
Rp874
(dp875
g19
(I1
I0
tp876
sbasg65
I12
sg66
Nsg67
g717
sg69
S'101010101111'
p877
sg71
Nsg72
Nsbag1
(g2
g3
Ntp878
Rp879
(dp880
g7
I3
sg8
S'HPPHPPHH'
p881
sg10
Nsg11
I0
sg12
Nsg13
(lp882
g1
(g15
g3
Ntp883
Rp884
(dp885
g19
g20
sbag1
(g15
g3
Ntp886
Rp887
(dp888
g19
(I0
I1
tp889
sbag1
(g15
g3
Ntp890
Rp891
(dp892
g19
(I1
I1
tp893
sbag1
(g15
g3
Ntp894
Rp895
(dp896
g19
(I1
I0
tp897
sbag1
(g15
g3
Ntp898
Rp899
(dp900
g19
(I2
I0
tp901
sbag1
(g15
g3
Ntp902
Rp903
(dp904
g19
(I2
I-1
tp905
sbag1
(g15
g3
Ntp906
Rp907
(dp908
g19
(I1
I-1
tp909
sbag1
(g15
g3
Ntp910
Rp911
(dp912
g19
(I0
I-1
tp913
sbasg65
I8
sg66
Nsg67
S'URDRDLL'
p914
sg69
S'10010011'
p915
sg71
Nsg72
Nsbag1
(g2
g3
Ntp916
Rp917
(dp918
g7
I3
sg8
S'PHPPHPPPPPHH'
p919
sg10
Nsg11
I0
sg12
Nsg13
(lp920
g1
(g15
g3
Ntp921
Rp922
(dp923
g19
g20
sbag1
(g15
g3
Ntp924
Rp925
(dp926
g19
(I0
I1
tp927
sbag1
(g15
g3
Ntp928
Rp929
(dp930
g19
(I1
I1
tp931
sbag1
(g15
g3
Ntp932
Rp933
(dp934
g19
(I1
I2
tp935
sbag1
(g15
g3
Ntp936
Rp937
(dp938
g19
(I0
I2
tp939
sbag1
(g15
g3
Ntp940
Rp941
(dp942
g19
(I0
I3
tp943
sbag1
(g15
g3
Ntp944
Rp945
(dp946
g19
(I-1
I3
tp947
sbag1
(g15
g3
Ntp948
Rp949
(dp950
g19
(I-2
I3
tp951
sbag1
(g15
g3
Ntp952
Rp953
(dp954
g19
(I-2
I2
tp955
sbag1
(g15
g3
Ntp956
Rp957
(dp958
g19
(I-2
I1
tp959
sbag1
(g15
g3
Ntp960
Rp961
(dp962
g19
(I-1
I1
tp963
sbag1
(g15
g3
Ntp964
Rp965
(dp966
g19
(I-1
I2
tp967
sbasg65
I12
sg66
Nsg67
S'URULULLDDRU'
p968
sg69
S'010010000011'
p969
sg71
Nsg72
Nsbag1
(g2
g3
Ntp970
Rp971
(dp972
g7
I4
sg8
S'PHPPHPHPPPHH'
p973
sg10
Nsg11
I0
sg12
Nsg13
(lp974
g1
(g15
g3
Ntp975
Rp976
(dp977
g19
g20
sbag1
(g15
g3
Ntp978
Rp979
(dp980
g19
(I0
I1
tp981
sbag1
(g15
g3
Ntp982
Rp983
(dp984
g19
(I1
I1
tp985
sbag1
(g15
g3
Ntp986
Rp987
(dp988
g19
(I1
I2
tp989
sbag1
(g15
g3
Ntp990
Rp991
(dp992
g19
(I0
I2
tp993
sbag1
(g15
g3
Ntp994
Rp995
(dp996
g19
(I0
I3
tp997
sbag1
(g15
g3
Ntp998
Rp999
(dp1000
g19
(I-1
I3
tp1001
sbag1
(g15
g3
Ntp1002
Rp1003
(dp1004
g19
(I-2
I3
tp1005
sbag1
(g15
g3
Ntp1006
Rp1007
(dp1008
g19
(I-2
I2
tp1009
sbag1
(g15
g3
Ntp1010
Rp1011
(dp1012
g19
(I-2
I1
tp1013
sbag1
(g15
g3
Ntp1014
Rp1015
(dp1016
g19
(I-1
I1
tp1017
sbag1
(g15
g3
Ntp1018
Rp1019
(dp1020
g19
(I-1
I2
tp1021
sbasg65
I12
sg66
Nsg67
g968
sg69
S'010010100011'
p1022
sg71
Nsg72
Nsbag1
(g2
g3
Ntp1023
Rp1024
(dp1025
g7
I4
sg8
S'PHPPHPPPHPHH'
p1026
sg10
Nsg11
I0
sg12
Nsg13
(lp1027
g1
(g15
g3
Ntp1028
Rp1029
(dp1030
g19
g20
sbag1
(g15
g3
Ntp1031
Rp1032
(dp1033
g19
(I0
I1
tp1034
sbag1
(g15
g3
Ntp1035
Rp1036
(dp1037
g19
(I1
I1
tp1038
sbag1
(g15
g3
Ntp1039
Rp1040
(dp1041
g19
(I1
I2
tp1042
sbag1
(g15
g3
Ntp1043
Rp1044
(dp1045
g19
(I0
I2
tp1046
sbag1
(g15
g3
Ntp1047
Rp1048
(dp1049
g19
(I0
I3
tp1050
sbag1
(g15
g3
Ntp1051
Rp1052
(dp1053
g19
(I-1
I3
tp1054
sbag1
(g15
g3
Ntp1055
Rp1056
(dp1057
g19
(I-2
I3
tp1058
sbag1
(g15
g3
Ntp1059
Rp1060
(dp1061
g19
(I-2
I2
tp1062
sbag1
(g15
g3
Ntp1063
Rp1064
(dp1065
g19
(I-2
I1
tp1066
sbag1
(g15
g3
Ntp1067
Rp1068
(dp1069
g19
(I-1
I1
tp1070
sbag1
(g15
g3
Ntp1071
Rp1072
(dp1073
g19
(I-1
I2
tp1074
sbasg65
I12
sg66
Nsg67
g968
sg69
S'010010001011'
p1075
sg71
Nsg72
Nsbag1
(g2
g3
Ntp1076
Rp1077
(dp1078
g7
I5
sg8
S'PHPPHPHPHPHH'
p1079
sg10
Nsg11
I0
sg12
Nsg13
(lp1080
g1
(g15
g3
Ntp1081
Rp1082
(dp1083
g19
g20
sbag1
(g15
g3
Ntp1084
Rp1085
(dp1086
g19
(I0
I1
tp1087
sbag1
(g15
g3
Ntp1088
Rp1089
(dp1090
g19
(I1
I1
tp1091
sbag1
(g15
g3
Ntp1092
Rp1093
(dp1094
g19
(I1
I2
tp1095
sbag1
(g15
g3
Ntp1096
Rp1097
(dp1098
g19
(I0
I2
tp1099
sbag1
(g15
g3
Ntp1100
Rp1101
(dp1102
g19
(I0
I3
tp1103
sbag1
(g15
g3
Ntp1104
Rp1105
(dp1106
g19
(I-1
I3
tp1107
sbag1
(g15
g3
Ntp1108
Rp1109
(dp1110
g19
(I-2
I3
tp1111
sbag1
(g15
g3
Ntp1112
Rp1113
(dp1114
g19
(I-2
I2
tp1115
sbag1
(g15
g3
Ntp1116
Rp1117
(dp1118
g19
(I-2
I1
tp1119
sbag1
(g15
g3
Ntp1120
Rp1121
(dp1122
g19
(I-1
I1
tp1123
sbag1
(g15
g3
Ntp1124
Rp1125
(dp1126
g19
(I-1
I2
tp1127
sbasg65
I12
sg66
Nsg67
g968
sg69
S'010010101011'
p1128
sg71
Nsg72
Nsbag1
(g2
g3
Ntp1129
Rp1130
(dp1131
g7
I5
sg8
S'PHHPHPHPHPHH'
p1132
sg10
Nsg11
I0
sg12
Nsg13
(lp1133
g1
(g15
g3
Ntp1134
Rp1135
(dp1136
g19
g20
sbag1
(g15
g3
Ntp1137
Rp1138
(dp1139
g19
(I0
I1
tp1140
sbag1
(g15
g3
Ntp1141
Rp1142
(dp1143
g19
(I1
I1
tp1144
sbag1
(g15
g3
Ntp1145
Rp1146
(dp1147
g19
(I1
I2
tp1148
sbag1
(g15
g3
Ntp1149
Rp1150
(dp1151
g19
(I0
I2
tp1152
sbag1
(g15
g3
Ntp1153
Rp1154
(dp1155
g19
(I0
I3
tp1156
sbag1
(g15
g3
Ntp1157
Rp1158
(dp1159
g19
(I-1
I3
tp1160
sbag1
(g15
g3
Ntp1161
Rp1162
(dp1163
g19
(I-2
I3
tp1164
sbag1
(g15
g3
Ntp1165
Rp1166
(dp1167
g19
(I-2
I2
tp1168
sbag1
(g15
g3
Ntp1169
Rp1170
(dp1171
g19
(I-2
I1
tp1172
sbag1
(g15
g3
Ntp1173
Rp1174
(dp1175
g19
(I-1
I1
tp1176
sbag1
(g15
g3
Ntp1177
Rp1178
(dp1179
g19
(I-1
I2
tp1180
sbasg65
I12
sg66
Nsg67
g968
sg69
S'011010101011'
p1181
sg71
Nsg72
Nsbag1
(g2
g3
Ntp1182
Rp1183
(dp1184
g7
I4
sg8
S'HHPPHPPHPH'
p1185
sg10
Nsg11
I0
sg12
Nsg13
(lp1186
g1
(g15
g3
Ntp1187
Rp1188
(dp1189
g19
g20
sbag1
(g15
g3
Ntp1190
Rp1191
(dp1192
g19
(I0
I1
tp1193
sbag1
(g15
g3
Ntp1194
Rp1195
(dp1196
g19
(I0
I2
tp1197
sbag1
(g15
g3
Ntp1198
Rp1199
(dp1200
g19
(I1
I2
tp1201
sbag1
(g15
g3
Ntp1202
Rp1203
(dp1204
g19
(I1
I1
tp1205
sbag1
(g15
g3
Ntp1206
Rp1207
(dp1208
g19
(I2
I1
tp1209
sbag1
(g15
g3
Ntp1210
Rp1211
(dp1212
g19
(I2
I0
tp1213
sbag1
(g15
g3
Ntp1214
Rp1215
(dp1216
g19
(I1
I0
tp1217
sbag1
(g15
g3
Ntp1218
Rp1219
(dp1220
g19
(I1
I-1
tp1221
sbag1
(g15
g3
Ntp1222
Rp1223
(dp1224
g19
(I0
I-1
tp1225
sbasg65
I10
sg66
Nsg67
S'UURDRDLDL'
p1226
sg69
S'1100100101'
p1227
sg71
Nsg72
Nsbag1
(g2
g3
Ntp1228
Rp1229
(dp1230
g7
I5
sg8
S'HPPHHPPHPHPH'
p1231
sg10
Nsg11
I0
sg12
Nsg13
(lp1232
g1
(g15
g3
Ntp1233
Rp1234
(dp1235
g19
g20
sbag1
(g15
g3
Ntp1236
Rp1237
(dp1238
g19
(I0
I1
tp1239
sbag1
(g15
g3
Ntp1240
Rp1241
(dp1242
g19
(I1
I1
tp1243
sbag1
(g15
g3
Ntp1244
Rp1245
(dp1246
g19
(I1
I0
tp1247
sbag1
(g15
g3
Ntp1248
Rp1249
(dp1250
g19
(I1
I-1
tp1251
sbag1
(g15
g3
Ntp1252
Rp1253
(dp1254
g19
(I2
I-1
tp1255
sbag1
(g15
g3
Ntp1256
Rp1257
(dp1258
g19
(I2
I-2
tp1259
sbag1
(g15
g3
Ntp1260
Rp1261
(dp1262
g19
(I1
I-2
tp1263
sbag1
(g15
g3
Ntp1264
Rp1265
(dp1266
g19
(I0
I-2
tp1267
sbag1
(g15
g3
Ntp1268
Rp1269
(dp1270
g19
(I0
I-1
tp1271
sbag1
(g15
g3
Ntp1272
Rp1273
(dp1274
g19
(I-1
I-1
tp1275
sbag1
(g15
g3
Ntp1276
Rp1277
(dp1278
g19
(I-1
I0
tp1279
sbasg65
I12
sg66
Nsg67
S'URDDRDLLULU'
p1280
sg69
S'100110010101'
p1281
sg71
Nsg72
Nsbag1
(g2
g3
Ntp1282
Rp1283
(dp1284
g7
I5
sg8
S'HPPHHHPHPHPH'
p1285
sg10
Nsg11
I0
sg12
Nsg13
(lp1286
g1
(g15
g3
Ntp1287
Rp1288
(dp1289
g19
g20
sbag1
(g15
g3
Ntp1290
Rp1291
(dp1292
g19
(I0
I1
tp1293
sbag1
(g15
g3
Ntp1294
Rp1295
(dp1296
g19
(I1
I1
tp1297
sbag1
(g15
g3
Ntp1298
Rp1299
(dp1300
g19
(I1
I0
tp1301
sbag1
(g15
g3
Ntp1302
Rp1303
(dp1304
g19
(I1
I-1
tp1305
sbag1
(g15
g3
Ntp1306
Rp1307
(dp1308
g19
(I2
I-1
tp1309
sbag1
(g15
g3
Ntp1310
Rp1311
(dp1312
g19
(I2
I-2
tp1313
sbag1
(g15
g3
Ntp1314
Rp1315
(dp1316
g19
(I1
I-2
tp1317
sbag1
(g15
g3
Ntp1318
Rp1319
(dp1320
g19
(I0
I-2
tp1321
sbag1
(g15
g3
Ntp1322
Rp1323
(dp1324
g19
(I0
I-1
tp1325
sbag1
(g15
g3
Ntp1326
Rp1327
(dp1328
g19
(I-1
I-1
tp1329
sbag1
(g15
g3
Ntp1330
Rp1331
(dp1332
g19
(I-1
I0
tp1333
sbasg65
I12
sg66
Nsg67
g1280
sg69
S'100111010101'
p1334
sg71
Nsg72
Nsbag1
(g2
g3
Ntp1335
Rp1336
(dp1337
g7
I5
sg8
S'HPPHPPHPHPPH'
p1338
sg10
Nsg11
I0
sg12
Nsg13
(lp1339
g1
(g15
g3
Ntp1340
Rp1341
(dp1342
g19
g20
sbag1
(g15
g3
Ntp1343
Rp1344
(dp1345
g19
(I0
I1
tp1346
sbag1
(g15
g3
Ntp1347
Rp1348
(dp1349
g19
(I1
I1
tp1350
sbag1
(g15
g3
Ntp1351
Rp1352
(dp1353
g19
(I1
I0
tp1354
sbag1
(g15
g3
Ntp1355
Rp1356
(dp1357
g19
(I2
I0
tp1358
sbag1
(g15
g3
Ntp1359
Rp1360
(dp1361
g19
(I2
I-1
tp1362
sbag1
(g15
g3
Ntp1363
Rp1364
(dp1365
g19
(I1
I-1
tp1366
sbag1
(g15
g3
Ntp1367
Rp1368
(dp1369
g19
(I1
I-2
tp1370
sbag1
(g15
g3
Ntp1371
Rp1372
(dp1373
g19
(I0
I-2
tp1374
sbag1
(g15
g3
Ntp1375
Rp1376
(dp1377
g19
(I-1
I-2
tp1378
sbag1
(g15
g3
Ntp1379
Rp1380
(dp1381
g19
(I-1
I-1
tp1382
sbag1
(g15
g3
Ntp1383
Rp1384
(dp1385
g19
(I0
I-1
tp1386
sbasg65
I12
sg66
Nsg67
S'URDRDLDLLUR'
p1387
sg69
S'100100101001'
p1388
sg71
Nsg72
Nsbag1
(g2
g3
Ntp1389
Rp1390
(dp1391
g7
I5
sg8
S'HPPHHPHPHPPH'
p1392
sg10
Nsg11
I0
sg12
Nsg13
(lp1393
g1
(g15
g3
Ntp1394
Rp1395
(dp1396
g19
g20
sbag1
(g15
g3
Ntp1397
Rp1398
(dp1399
g19
(I0
I1
tp1400
sbag1
(g15
g3
Ntp1401
Rp1402
(dp1403
g19
(I1
I1
tp1404
sbag1
(g15
g3
Ntp1405
Rp1406
(dp1407
g19
(I1
I0
tp1408
sbag1
(g15
g3
Ntp1409
Rp1410
(dp1411
g19
(I2
I0
tp1412
sbag1
(g15
g3
Ntp1413
Rp1414
(dp1415
g19
(I2
I-1
tp1416
sbag1
(g15
g3
Ntp1417
Rp1418
(dp1419
g19
(I1
I-1
tp1420
sbag1
(g15
g3
Ntp1421
Rp1422
(dp1423
g19
(I1
I-2
tp1424
sbag1
(g15
g3
Ntp1425
Rp1426
(dp1427
g19
(I0
I-2
tp1428
sbag1
(g15
g3
Ntp1429
Rp1430
(dp1431
g19
(I-1
I-2
tp1432
sbag1
(g15
g3
Ntp1433
Rp1434
(dp1435
g19
(I-1
I-1
tp1436
sbag1
(g15
g3
Ntp1437
Rp1438
(dp1439
g19
(I0
I-1
tp1440
sbasg65
I12
sg66
Nsg67
g1387
sg69
S'100110101001'
p1441
sg71
Nsg72
Nsbag1
(g2
g3
Ntp1442
Rp1443
(dp1444
g7
I5
sg8
S'HPPHPPHPHPHH'
p1445
sg10
Nsg11
I0
sg12
Nsg13
(lp1446
g1
(g15
g3
Ntp1447
Rp1448
(dp1449
g19
g20
sbag1
(g15
g3
Ntp1450
Rp1451
(dp1452
g19
(I0
I1
tp1453
sbag1
(g15
g3
Ntp1454
Rp1455
(dp1456
g19
(I1
I1
tp1457
sbag1
(g15
g3
Ntp1458
Rp1459
(dp1460
g19
(I1
I0
tp1461
sbag1
(g15
g3
Ntp1462
Rp1463
(dp1464
g19
(I2
I0
tp1465
sbag1
(g15
g3
Ntp1466
Rp1467
(dp1468
g19
(I2
I-1
tp1469
sbag1
(g15
g3
Ntp1470
Rp1471
(dp1472
g19
(I1
I-1
tp1473
sbag1
(g15
g3
Ntp1474
Rp1475
(dp1476
g19
(I1
I-2
tp1477
sbag1
(g15
g3
Ntp1478
Rp1479
(dp1480
g19
(I0
I-2
tp1481
sbag1
(g15
g3
Ntp1482
Rp1483
(dp1484
g19
(I-1
I-2
tp1485
sbag1
(g15
g3
Ntp1486
Rp1487
(dp1488
g19
(I-1
I-1
tp1489
sbag1
(g15
g3
Ntp1490
Rp1491
(dp1492
g19
(I0
I-1
tp1493
sbasg65
I12
sg66
Nsg67
g1387
sg69
S'100100101011'
p1494
sg71
Nsg72
Nsbag1
(g2
g3
Ntp1495
Rp1496
(dp1497
g7
I4
sg8
S'PHPPHPPHPPHP'
p1498
sg10
Nsg11
I0
sg12
Nsg13
(lp1499
g1
(g15
g3
Ntp1500
Rp1501
(dp1502
g19
g20
sbag1
(g15
g3
Ntp1503
Rp1504
(dp1505
g19
(I0
I1
tp1506
sbag1
(g15
g3
Ntp1507
Rp1508
(dp1509
g19
(I1
I1
tp1510
sbag1
(g15
g3
Ntp1511
Rp1512
(dp1513
g19
(I1
I2
tp1514
sbag1
(g15
g3
Ntp1515
Rp1516
(dp1517
g19
(I0
I2
tp1518
sbag1
(g15
g3
Ntp1519
Rp1520
(dp1521
g19
(I0
I3
tp1522
sbag1
(g15
g3
Ntp1523
Rp1524
(dp1525
g19
(I-1
I3
tp1526
sbag1
(g15
g3
Ntp1527
Rp1528
(dp1529
g19
(I-1
I2
tp1530
sbag1
(g15
g3
Ntp1531
Rp1532
(dp1533
g19
(I-2
I2
tp1534
sbag1
(g15
g3
Ntp1535
Rp1536
(dp1537
g19
(I-2
I1
tp1538
sbag1
(g15
g3
Ntp1539
Rp1540
(dp1541
g19
(I-1
I1
tp1542
sbag1
(g15
g3
Ntp1543
Rp1544
(dp1545
g19
(I-1
I0
tp1546
sbasg65
I12
sg66
Nsg67
S'URULULDLDRD'
p1547
sg69
S'010010010010'
p1548
sg71
Nsg72
Nsbag1
(g2
g3
Ntp1549
Rp1550
(dp1551
g7
I4
sg8
S'HHPPHPPHPPHP'
p1552
sg10
Nsg11
I0
sg12
Nsg13
(lp1553
g1
(g15
g3
Ntp1554
Rp1555
(dp1556
g19
g20
sbag1
(g15
g3
Ntp1557
Rp1558
(dp1559
g19
(I0
I1
tp1560
sbag1
(g15
g3
Ntp1561
Rp1562
(dp1563
g19
(I1
I1
tp1564
sbag1
(g15
g3
Ntp1565
Rp1566
(dp1567
g19
(I1
I2
tp1568
sbag1
(g15
g3
Ntp1569
Rp1570
(dp1571
g19
(I0
I2
tp1572
sbag1
(g15
g3
Ntp1573
Rp1574
(dp1575
g19
(I0
I3
tp1576
sbag1
(g15
g3
Ntp1577
Rp1578
(dp1579
g19
(I-1
I3
tp1580
sbag1
(g15
g3
Ntp1581
Rp1582
(dp1583
g19
(I-1
I2
tp1584
sbag1
(g15
g3
Ntp1585
Rp1586
(dp1587
g19
(I-2
I2
tp1588
sbag1
(g15
g3
Ntp1589
Rp1590
(dp1591
g19
(I-2
I1
tp1592
sbag1
(g15
g3
Ntp1593
Rp1594
(dp1595
g19
(I-1
I1
tp1596
sbag1
(g15
g3
Ntp1597
Rp1598
(dp1599
g19
(I-1
I0
tp1600
sbasg65
I12
sg66
Nsg67
g1547
sg69
S'110010010010'
p1601
sg71
Nsg72
Nsbag1
(g2
g3
Ntp1602
Rp1603
(dp1604
g7
I4
sg8
S'PHHPHPPHPPHP'
p1605
sg10
Nsg11
I0
sg12
Nsg13
(lp1606
g1
(g15
g3
Ntp1607
Rp1608
(dp1609
g19
g20
sbag1
(g15
g3
Ntp1610
Rp1611
(dp1612
g19
(I0
I1
tp1613
sbag1
(g15
g3
Ntp1614
Rp1615
(dp1616
g19
(I1
I1
tp1617
sbag1
(g15
g3
Ntp1618
Rp1619
(dp1620
g19
(I1
I2
tp1621
sbag1
(g15
g3
Ntp1622
Rp1623
(dp1624
g19
(I0
I2
tp1625
sbag1
(g15
g3
Ntp1626
Rp1627
(dp1628
g19
(I0
I3
tp1629
sbag1
(g15
g3
Ntp1630
Rp1631
(dp1632
g19
(I-1
I3
tp1633
sbag1
(g15
g3
Ntp1634
Rp1635
(dp1636
g19
(I-1
I2
tp1637
sbag1
(g15
g3
Ntp1638
Rp1639
(dp1640
g19
(I-2
I2
tp1641
sbag1
(g15
g3
Ntp1642
Rp1643
(dp1644
g19
(I-2
I1
tp1645
sbag1
(g15
g3
Ntp1646
Rp1647
(dp1648
g19
(I-1
I1
tp1649
sbag1
(g15
g3
Ntp1650
Rp1651
(dp1652
g19
(I-1
I0
tp1653
sbasg65
I12
sg66
Nsg67
g1547
sg69
S'011010010010'
p1654
sg71
Nsg72
Nsbag1
(g2
g3
Ntp1655
Rp1656
(dp1657
g7
I4
sg8
S'HHHPHPPHPPHP'
p1658
sg10
Nsg11
I0
sg12
Nsg13
(lp1659
g1
(g15
g3
Ntp1660
Rp1661
(dp1662
g19
g20
sbag1
(g15
g3
Ntp1663
Rp1664
(dp1665
g19
(I0
I1
tp1666
sbag1
(g15
g3
Ntp1667
Rp1668
(dp1669
g19
(I1
I1
tp1670
sbag1
(g15
g3
Ntp1671
Rp1672
(dp1673
g19
(I1
I2
tp1674
sbag1
(g15
g3
Ntp1675
Rp1676
(dp1677
g19
(I0
I2
tp1678
sbag1
(g15
g3
Ntp1679
Rp1680
(dp1681
g19
(I0
I3
tp1682
sbag1
(g15
g3
Ntp1683
Rp1684
(dp1685
g19
(I-1
I3
tp1686
sbag1
(g15
g3
Ntp1687
Rp1688
(dp1689
g19
(I-1
I2
tp1690
sbag1
(g15
g3
Ntp1691
Rp1692
(dp1693
g19
(I-2
I2
tp1694
sbag1
(g15
g3
Ntp1695
Rp1696
(dp1697
g19
(I-2
I1
tp1698
sbag1
(g15
g3
Ntp1699
Rp1700
(dp1701
g19
(I-1
I1
tp1702
sbag1
(g15
g3
Ntp1703
Rp1704
(dp1705
g19
(I-1
I0
tp1706
sbasg65
I12
sg66
Nsg67
g1547
sg69
S'111010010010'
p1707
sg71
Nsg72
Nsbag1
(g2
g3
Ntp1708
Rp1709
(dp1710
g7
I4
sg8
S'PHPPHHPHPPHP'
p1711
sg10
Nsg11
I0
sg12
Nsg13
(lp1712
g1
(g15
g3
Ntp1713
Rp1714
(dp1715
g19
g20
sbag1
(g15
g3
Ntp1716
Rp1717
(dp1718
g19
(I0
I1
tp1719
sbag1
(g15
g3
Ntp1720
Rp1721
(dp1722
g19
(I1
I1
tp1723
sbag1
(g15
g3
Ntp1724
Rp1725
(dp1726
g19
(I1
I2
tp1727
sbag1
(g15
g3
Ntp1728
Rp1729
(dp1730
g19
(I0
I2
tp1731
sbag1
(g15
g3
Ntp1732
Rp1733
(dp1734
g19
(I0
I3
tp1735
sbag1
(g15
g3
Ntp1736
Rp1737
(dp1738
g19
(I-1
I3
tp1739
sbag1
(g15
g3
Ntp1740
Rp1741
(dp1742
g19
(I-1
I2
tp1743
sbag1
(g15
g3
Ntp1744
Rp1745
(dp1746
g19
(I-2
I2
tp1747
sbag1
(g15
g3
Ntp1748
Rp1749
(dp1750
g19
(I-2
I1
tp1751
sbag1
(g15
g3
Ntp1752
Rp1753
(dp1754
g19
(I-1
I1
tp1755
sbag1
(g15
g3
Ntp1756
Rp1757
(dp1758
g19
(I-1
I0
tp1759
sbasg65
I12
sg66
Nsg67
g1547
sg69
S'010011010010'
p1760
sg71
Nsg72
Nsbag1
(g2
g3
Ntp1761
Rp1762
(dp1763
g7
I4
sg8
S'PHPPHPHHPPHP'
p1764
sg10
Nsg11
I0
sg12
Nsg13
(lp1765
g1
(g15
g3
Ntp1766
Rp1767
(dp1768
g19
g20
sbag1
(g15
g3
Ntp1769
Rp1770
(dp1771
g19
(I0
I1
tp1772
sbag1
(g15
g3
Ntp1773
Rp1774
(dp1775
g19
(I1
I1
tp1776
sbag1
(g15
g3
Ntp1777
Rp1778
(dp1779
g19
(I1
I2
tp1780
sbag1
(g15
g3
Ntp1781
Rp1782
(dp1783
g19
(I0
I2
tp1784
sbag1
(g15
g3
Ntp1785
Rp1786
(dp1787
g19
(I0
I3
tp1788
sbag1
(g15
g3
Ntp1789
Rp1790
(dp1791
g19
(I-1
I3
tp1792
sbag1
(g15
g3
Ntp1793
Rp1794
(dp1795
g19
(I-1
I2
tp1796
sbag1
(g15
g3
Ntp1797
Rp1798
(dp1799
g19
(I-2
I2
tp1800
sbag1
(g15
g3
Ntp1801
Rp1802
(dp1803
g19
(I-2
I1
tp1804
sbag1
(g15
g3
Ntp1805
Rp1806
(dp1807
g19
(I-1
I1
tp1808
sbag1
(g15
g3
Ntp1809
Rp1810
(dp1811
g19
(I-1
I0
tp1812
sbasg65
I12
sg66
Nsg67
g1547
sg69
S'010010110010'
p1813
sg71
Nsg72
Nsbag1
(g2
g3
Ntp1814
Rp1815
(dp1816
g7
I4
sg8
S'PHHPHPHHPPHP'
p1817
sg10
Nsg11
I0
sg12
Nsg13
(lp1818
g1
(g15
g3
Ntp1819
Rp1820
(dp1821
g19
g20
sbag1
(g15
g3
Ntp1822
Rp1823
(dp1824
g19
(I0
I1
tp1825
sbag1
(g15
g3
Ntp1826
Rp1827
(dp1828
g19
(I1
I1
tp1829
sbag1
(g15
g3
Ntp1830
Rp1831
(dp1832
g19
(I1
I2
tp1833
sbag1
(g15
g3
Ntp1834
Rp1835
(dp1836
g19
(I0
I2
tp1837
sbag1
(g15
g3
Ntp1838
Rp1839
(dp1840
g19
(I0
I3
tp1841
sbag1
(g15
g3
Ntp1842
Rp1843
(dp1844
g19
(I-1
I3
tp1845
sbag1
(g15
g3
Ntp1846
Rp1847
(dp1848
g19
(I-1
I2
tp1849
sbag1
(g15
g3
Ntp1850
Rp1851
(dp1852
g19
(I-2
I2
tp1853
sbag1
(g15
g3
Ntp1854
Rp1855
(dp1856
g19
(I-2
I1
tp1857
sbag1
(g15
g3
Ntp1858
Rp1859
(dp1860
g19
(I-1
I1
tp1861
sbag1
(g15
g3
Ntp1862
Rp1863
(dp1864
g19
(I-1
I0
tp1865
sbasg65
I12
sg66
Nsg67
g1547
sg69
S'011010110010'
p1866
sg71
Nsg72
Nsbag1
(g2
g3
Ntp1867
Rp1868
(dp1869
g7
I4
sg8
S'PHPPHPPHPHHP'
p1870
sg10
Nsg11
I0
sg12
Nsg13
(lp1871
g1
(g15
g3
Ntp1872
Rp1873
(dp1874
g19
g20
sbag1
(g15
g3
Ntp1875
Rp1876
(dp1877
g19
(I0
I1
tp1878
sbag1
(g15
g3
Ntp1879
Rp1880
(dp1881
g19
(I1
I1
tp1882
sbag1
(g15
g3
Ntp1883
Rp1884
(dp1885
g19
(I1
I2
tp1886
sbag1
(g15
g3
Ntp1887
Rp1888
(dp1889
g19
(I0
I2
tp1890
sbag1
(g15
g3
Ntp1891
Rp1892
(dp1893
g19
(I0
I3
tp1894
sbag1
(g15
g3
Ntp1895
Rp1896
(dp1897
g19
(I-1
I3
tp1898
sbag1
(g15
g3
Ntp1899
Rp1900
(dp1901
g19
(I-1
I2
tp1902
sbag1
(g15
g3
Ntp1903
Rp1904
(dp1905
g19
(I-2
I2
tp1906
sbag1
(g15
g3
Ntp1907
Rp1908
(dp1909
g19
(I-2
I1
tp1910
sbag1
(g15
g3
Ntp1911
Rp1912
(dp1913
g19
(I-1
I1
tp1914
sbag1
(g15
g3
Ntp1915
Rp1916
(dp1917
g19
(I-1
I0
tp1918
sbasg65
I12
sg66
Nsg67
g1547
sg69
S'010010010110'
p1919
sg71
Nsg72
Nsbag1
(g2
g3
Ntp1920
Rp1921
(dp1922
g7
I4
sg8
S'PHPPHHPHPHHP'
p1923
sg10
Nsg11
I0
sg12
Nsg13
(lp1924
g1
(g15
g3
Ntp1925
Rp1926
(dp1927
g19
g20
sbag1
(g15
g3
Ntp1928
Rp1929
(dp1930
g19
(I0
I1
tp1931
sbag1
(g15
g3
Ntp1932
Rp1933
(dp1934
g19
(I1
I1
tp1935
sbag1
(g15
g3
Ntp1936
Rp1937
(dp1938
g19
(I1
I2
tp1939
sbag1
(g15
g3
Ntp1940
Rp1941
(dp1942
g19
(I0
I2
tp1943
sbag1
(g15
g3
Ntp1944
Rp1945
(dp1946
g19
(I0
I3
tp1947
sbag1
(g15
g3
Ntp1948
Rp1949
(dp1950
g19
(I-1
I3
tp1951
sbag1
(g15
g3
Ntp1952
Rp1953
(dp1954
g19
(I-1
I2
tp1955
sbag1
(g15
g3
Ntp1956
Rp1957
(dp1958
g19
(I-2
I2
tp1959
sbag1
(g15
g3
Ntp1960
Rp1961
(dp1962
g19
(I-2
I1
tp1963
sbag1
(g15
g3
Ntp1964
Rp1965
(dp1966
g19
(I-1
I1
tp1967
sbag1
(g15
g3
Ntp1968
Rp1969
(dp1970
g19
(I-1
I0
tp1971
sbasg65
I12
sg66
Nsg67
g1547
sg69
S'010011010110'
p1972
sg71
Nsg72
Nsbag1
(g2
g3
Ntp1973
Rp1974
(dp1975
g7
I4
sg8
S'PHPPHPPHPPHH'
p1976
sg10
Nsg11
I0
sg12
Nsg13
(lp1977
g1
(g15
g3
Ntp1978
Rp1979
(dp1980
g19
g20
sbag1
(g15
g3
Ntp1981
Rp1982
(dp1983
g19
(I0
I1
tp1984
sbag1
(g15
g3
Ntp1985
Rp1986
(dp1987
g19
(I1
I1
tp1988
sbag1
(g15
g3
Ntp1989
Rp1990
(dp1991
g19
(I1
I2
tp1992
sbag1
(g15
g3
Ntp1993
Rp1994
(dp1995
g19
(I0
I2
tp1996
sbag1
(g15
g3
Ntp1997
Rp1998
(dp1999
g19
(I0
I3
tp2000
sbag1
(g15
g3
Ntp2001
Rp2002
(dp2003
g19
(I-1
I3
tp2004
sbag1
(g15
g3
Ntp2005
Rp2006
(dp2007
g19
(I-1
I2
tp2008
sbag1
(g15
g3
Ntp2009
Rp2010
(dp2011
g19
(I-2
I2
tp2012
sbag1
(g15
g3
Ntp2013
Rp2014
(dp2015
g19
(I-2
I1
tp2016
sbag1
(g15
g3
Ntp2017
Rp2018
(dp2019
g19
(I-1
I1
tp2020
sbag1
(g15
g3
Ntp2021
Rp2022
(dp2023
g19
(I-1
I0
tp2024
sbasg65
I12
sg66
Nsg67
g1547
sg69
S'010010010011'
p2025
sg71
Nsg72
Nsbag1
(g2
g3
Ntp2026
Rp2027
(dp2028
g7
I5
sg8
S'HHPPHPPHPPHH'
p2029
sg10
Nsg11
I0
sg12
Nsg13
(lp2030
g1
(g15
g3
Ntp2031
Rp2032
(dp2033
g19
g20
sbag1
(g15
g3
Ntp2034
Rp2035
(dp2036
g19
(I0
I1
tp2037
sbag1
(g15
g3
Ntp2038
Rp2039
(dp2040
g19
(I1
I1
tp2041
sbag1
(g15
g3
Ntp2042
Rp2043
(dp2044
g19
(I1
I2
tp2045
sbag1
(g15
g3
Ntp2046
Rp2047
(dp2048
g19
(I0
I2
tp2049
sbag1
(g15
g3
Ntp2050
Rp2051
(dp2052
g19
(I0
I3
tp2053
sbag1
(g15
g3
Ntp2054
Rp2055
(dp2056
g19
(I-1
I3
tp2057
sbag1
(g15
g3
Ntp2058
Rp2059
(dp2060
g19
(I-1
I2
tp2061
sbag1
(g15
g3
Ntp2062
Rp2063
(dp2064
g19
(I-2
I2
tp2065
sbag1
(g15
g3
Ntp2066
Rp2067
(dp2068
g19
(I-2
I1
tp2069
sbag1
(g15
g3
Ntp2070
Rp2071
(dp2072
g19
(I-1
I1
tp2073
sbag1
(g15
g3
Ntp2074
Rp2075
(dp2076
g19
(I-1
I0
tp2077
sbasg65
I12
sg66
Nsg67
g1547
sg69
S'110010010011'
p2078
sg71
Nsg72
Nsbag1
(g2
g3
Ntp2079
Rp2080
(dp2081
g7
I4
sg8
S'PHPPHPPHPHHH'
p2082
sg10
Nsg11
I0
sg12
Nsg13
(lp2083
g1
(g15
g3
Ntp2084
Rp2085
(dp2086
g19
g20
sbag1
(g15
g3
Ntp2087
Rp2088
(dp2089
g19
(I0
I1
tp2090
sbag1
(g15
g3
Ntp2091
Rp2092
(dp2093
g19
(I1
I1
tp2094
sbag1
(g15
g3
Ntp2095
Rp2096
(dp2097
g19
(I1
I2
tp2098
sbag1
(g15
g3
Ntp2099
Rp2100
(dp2101
g19
(I0
I2
tp2102
sbag1
(g15
g3
Ntp2103
Rp2104
(dp2105
g19
(I0
I3
tp2106
sbag1
(g15
g3
Ntp2107
Rp2108
(dp2109
g19
(I-1
I3
tp2110
sbag1
(g15
g3
Ntp2111
Rp2112
(dp2113
g19
(I-1
I2
tp2114
sbag1
(g15
g3
Ntp2115
Rp2116
(dp2117
g19
(I-2
I2
tp2118
sbag1
(g15
g3
Ntp2119
Rp2120
(dp2121
g19
(I-2
I1
tp2122
sbag1
(g15
g3
Ntp2123
Rp2124
(dp2125
g19
(I-1
I1
tp2126
sbag1
(g15
g3
Ntp2127
Rp2128
(dp2129
g19
(I-1
I0
tp2130
sbasg65
I12
sg66
Nsg67
g1547
sg69
S'010010010111'
p2131
sg71
Nsg72
Nsbag1
(g2
g3
Ntp2132
Rp2133
(dp2134
g7
I3
sg8
S'HPPHHPPHP'
p2135
sg10
Nsg11
I0
sg12
Nsg13
(lp2136
g1
(g15
g3
Ntp2137
Rp2138
(dp2139
g19
g20
sbag1
(g15
g3
Ntp2140
Rp2141
(dp2142
g19
(I0
I1
tp2143
sbag1
(g15
g3
Ntp2144
Rp2145
(dp2146
g19
(I1
I1
tp2147
sbag1
(g15
g3
Ntp2148
Rp2149
(dp2150
g19
(I1
I0
tp2151
sbag1
(g15
g3
Ntp2152
Rp2153
(dp2154
g19
(I1
I-1
tp2155
sbag1
(g15
g3
Ntp2156
Rp2157
(dp2158
g19
(I1
I-2
tp2159
sbag1
(g15
g3
Ntp2160
Rp2161
(dp2162
g19
(I0
I-2
tp2163
sbag1
(g15
g3
Ntp2164
Rp2165
(dp2166
g19
(I0
I-1
tp2167
sbag1
(g15
g3
Ntp2168
Rp2169
(dp2170
g19
(I-1
I-1
tp2171
sbasg65
I9
sg66
Nsg67
S'URDDDLUL'
p2172
sg69
S'100110010'
p2173
sg71
Nsg72
Nsbag1
(g2
g3
Ntp2174
Rp2175
(dp2176
g7
I3
sg8
S'HHPPHPPHP'
p2177
sg10
Nsg11
I0
sg12
Nsg13
(lp2178
g1
(g15
g3
Ntp2179
Rp2180
(dp2181
g19
g20
sbag1
(g15
g3
Ntp2182
Rp2183
(dp2184
g19
(I0
I1
tp2185
sbag1
(g15
g3
Ntp2186
Rp2187
(dp2188
g19
(I0
I2
tp2189
sbag1
(g15
g3
Ntp2190
Rp2191
(dp2192
g19
(I1
I2
tp2193
sbag1
(g15
g3
Ntp2194
Rp2195
(dp2196
g19
(I1
I1
tp2197
sbag1
(g15
g3
Ntp2198
Rp2199
(dp2200
g19
(I2
I1
tp2201
sbag1
(g15
g3
Ntp2202
Rp2203
(dp2204
g19
(I2
I0
tp2205
sbag1
(g15
g3
Ntp2206
Rp2207
(dp2208
g19
(I1
I0
tp2209
sbag1
(g15
g3
Ntp2210
Rp2211
(dp2212
g19
(I1
I-1
tp2213
sbasg65
I9
sg66
Nsg67
S'UURDRDLD'
p2214
sg69
S'110010010'
p2215
sg71
Nsg72
Nsbag1
(g2
g3
Ntp2216
Rp2217
(dp2218
g7
I3
sg8
S'HHHPHPPHP'
p2219
sg10
Nsg11
I0
sg12
Nsg13
(lp2220
g1
(g15
g3
Ntp2221
Rp2222
(dp2223
g19
g20
sbag1
(g15
g3
Ntp2224
Rp2225
(dp2226
g19
(I0
I1
tp2227
sbag1
(g15
g3
Ntp2228
Rp2229
(dp2230
g19
(I0
I2
tp2231
sbag1
(g15
g3
Ntp2232
Rp2233
(dp2234
g19
(I1
I2
tp2235
sbag1
(g15
g3
Ntp2236
Rp2237
(dp2238
g19
(I1
I1
tp2239
sbag1
(g15
g3
Ntp2240
Rp2241
(dp2242
g19
(I2
I1
tp2243
sbag1
(g15
g3
Ntp2244
Rp2245
(dp2246
g19
(I2
I0
tp2247
sbag1
(g15
g3
Ntp2248
Rp2249
(dp2250
g19
(I1
I0
tp2251
sbag1
(g15
g3
Ntp2252
Rp2253
(dp2254
g19
(I1
I-1
tp2255
sbasg65
I9
sg66
Nsg67
g2214
sg69
S'111010010'
p2256
sg71
Nsg72
Nsbag1
(g2
g3
Ntp2257
Rp2258
(dp2259
g7
I5
sg8
S'HHPPHPPHPHPH'
p2260
sg10
Nsg11
I0
sg12
Nsg13
(lp2261
g1
(g15
g3
Ntp2262
Rp2263
(dp2264
g19
g20
sbag1
(g15
g3
Ntp2265
Rp2266
(dp2267
g19
(I0
I1
tp2268
sbag1
(g15
g3
Ntp2269
Rp2270
(dp2271
g19
(I0
I2
tp2272
sbag1
(g15
g3
Ntp2273
Rp2274
(dp2275
g19
(I1
I2
tp2276
sbag1
(g15
g3
Ntp2277
Rp2278
(dp2279
g19
(I1
I1
tp2280
sbag1
(g15
g3
Ntp2281
Rp2282
(dp2283
g19
(I2
I1
tp2284
sbag1
(g15
g3
Ntp2285
Rp2286
(dp2287
g19
(I2
I0
tp2288
sbag1
(g15
g3
Ntp2289
Rp2290
(dp2291
g19
(I1
I0
tp2292
sbag1
(g15
g3
Ntp2293
Rp2294
(dp2295
g19
(I1
I-1
tp2296
sbag1
(g15
g3
Ntp2297
Rp2298
(dp2299
g19
(I0
I-1
tp2300
sbag1
(g15
g3
Ntp2301
Rp2302
(dp2303
g19
(I-1
I-1
tp2304
sbag1
(g15
g3
Ntp2305
Rp2306
(dp2307
g19
(I-1
I0
tp2308
sbasg65
I12
sg66
Nsg67
S'UURDRDLDLLU'
p2309
sg69
S'110010010101'
p2310
sg71
Nsg72
Nsbag1
(g2
g3
Ntp2311
Rp2312
(dp2313
g7
I5
sg8
S'HHPPHHPHPHPH'
p2314
sg10
Nsg11
I0
sg12
Nsg13
(lp2315
g1
(g15
g3
Ntp2316
Rp2317
(dp2318
g19
g20
sbag1
(g15
g3
Ntp2319
Rp2320
(dp2321
g19
(I0
I1
tp2322
sbag1
(g15
g3
Ntp2323
Rp2324
(dp2325
g19
(I0
I2
tp2326
sbag1
(g15
g3
Ntp2327
Rp2328
(dp2329
g19
(I1
I2
tp2330
sbag1
(g15
g3
Ntp2331
Rp2332
(dp2333
g19
(I1
I1
tp2334
sbag1
(g15
g3
Ntp2335
Rp2336
(dp2337
g19
(I2
I1
tp2338
sbag1
(g15
g3
Ntp2339
Rp2340
(dp2341
g19
(I2
I0
tp2342
sbag1
(g15
g3
Ntp2343
Rp2344
(dp2345
g19
(I1
I0
tp2346
sbag1
(g15
g3
Ntp2347
Rp2348
(dp2349
g19
(I1
I-1
tp2350
sbag1
(g15
g3
Ntp2351
Rp2352
(dp2353
g19
(I0
I-1
tp2354
sbag1
(g15
g3
Ntp2355
Rp2356
(dp2357
g19
(I-1
I-1
tp2358
sbag1
(g15
g3
Ntp2359
Rp2360
(dp2361
g19
(I-1
I0
tp2362
sbasg65
I12
sg66
Nsg67
g2309
sg69
S'110011010101'
p2363
sg71
Nsg72
Nsbag1
(g2
g3
Ntp2364
Rp2365
(dp2366
g7
I4
sg8
S'HPPHPPPPHPPH'
p2367
sg10
Nsg11
I0
sg12
Nsg13
(lp2368
g1
(g15
g3
Ntp2369
Rp2370
(dp2371
g19
g20
sbag1
(g15
g3
Ntp2372
Rp2373
(dp2374
g19
(I0
I1
tp2375
sbag1
(g15
g3
Ntp2376
Rp2377
(dp2378
g19
(I1
I1
tp2379
sbag1
(g15
g3
Ntp2380
Rp2381
(dp2382
g19
(I1
I0
tp2383
sbag1
(g15
g3
Ntp2384
Rp2385
(dp2386
g19
(I2
I0
tp2387
sbag1
(g15
g3
Ntp2388
Rp2389
(dp2390
g19
(I3
I0
tp2391
sbag1
(g15
g3
Ntp2392
Rp2393
(dp2394
g19
(I3
I-1
tp2395
sbag1
(g15
g3
Ntp2396
Rp2397
(dp2398
g19
(I2
I-1
tp2399
sbag1
(g15
g3
Ntp2400
Rp2401
(dp2402
g19
(I1
I-1
tp2403
sbag1
(g15
g3
Ntp2404
Rp2405
(dp2406
g19
(I1
I-2
tp2407
sbag1
(g15
g3
Ntp2408
Rp2409
(dp2410
g19
(I0
I-2
tp2411
sbag1
(g15
g3
Ntp2412
Rp2413
(dp2414
g19
(I0
I-1
tp2415
sbasg65
I12
sg66
Nsg67
S'URDRRDLLDLU'
p2416
sg69
S'100100001001'
p2417
sg71
Nsg72
Nsbag1
(g2
g3
Ntp2418
Rp2419
(dp2420
g7
I4
sg8
S'HHPHPPPPHPPH'
p2421
sg10
Nsg11
I0
sg12
Nsg13
(lp2422
g1
(g15
g3
Ntp2423
Rp2424
(dp2425
g19
g20
sbag1
(g15
g3
Ntp2426
Rp2427
(dp2428
g19
(I0
I1
tp2429
sbag1
(g15
g3
Ntp2430
Rp2431
(dp2432
g19
(I1
I1
tp2433
sbag1
(g15
g3
Ntp2434
Rp2435
(dp2436
g19
(I1
I0
tp2437
sbag1
(g15
g3
Ntp2438
Rp2439
(dp2440
g19
(I2
I0
tp2441
sbag1
(g15
g3
Ntp2442
Rp2443
(dp2444
g19
(I3
I0
tp2445
sbag1
(g15
g3
Ntp2446
Rp2447
(dp2448
g19
(I3
I-1
tp2449
sbag1
(g15
g3
Ntp2450
Rp2451
(dp2452
g19
(I2
I-1
tp2453
sbag1
(g15
g3
Ntp2454
Rp2455
(dp2456
g19
(I1
I-1
tp2457
sbag1
(g15
g3
Ntp2458
Rp2459
(dp2460
g19
(I1
I-2
tp2461
sbag1
(g15
g3
Ntp2462
Rp2463
(dp2464
g19
(I0
I-2
tp2465
sbag1
(g15
g3
Ntp2466
Rp2467
(dp2468
g19
(I0
I-1
tp2469
sbasg65
I12
sg66
Nsg67
g2416
sg69
S'110100001001'
p2470
sg71
Nsg72
Nsbag1
(g2
g3
Ntp2471
Rp2472
(dp2473
g7
I4
sg8
S'HPPHPPPPHPHH'
p2474
sg10
Nsg11
I0
sg12
Nsg13
(lp2475
g1
(g15
g3
Ntp2476
Rp2477
(dp2478
g19
g20
sbag1
(g15
g3
Ntp2479
Rp2480
(dp2481
g19
(I0
I1
tp2482
sbag1
(g15
g3
Ntp2483
Rp2484
(dp2485
g19
(I1
I1
tp2486
sbag1
(g15
g3
Ntp2487
Rp2488
(dp2489
g19
(I1
I0
tp2490
sbag1
(g15
g3
Ntp2491
Rp2492
(dp2493
g19
(I2
I0
tp2494
sbag1
(g15
g3
Ntp2495
Rp2496
(dp2497
g19
(I3
I0
tp2498
sbag1
(g15
g3
Ntp2499
Rp2500
(dp2501
g19
(I3
I-1
tp2502
sbag1
(g15
g3
Ntp2503
Rp2504
(dp2505
g19
(I2
I-1
tp2506
sbag1
(g15
g3
Ntp2507
Rp2508
(dp2509
g19
(I1
I-1
tp2510
sbag1
(g15
g3
Ntp2511
Rp2512
(dp2513
g19
(I1
I-2
tp2514
sbag1
(g15
g3
Ntp2515
Rp2516
(dp2517
g19
(I0
I-2
tp2518
sbag1
(g15
g3
Ntp2519
Rp2520
(dp2521
g19
(I0
I-1
tp2522
sbasg65
I12
sg66
Nsg67
g2416
sg69
S'100100001011'
p2523
sg71
Nsg72
Nsbag1
(g2
g3
Ntp2524
Rp2525
(dp2526
g7
I4
sg8
S'HPHPHPPHPHP'
p2527
sg10
Nsg11
I0
sg12
Nsg13
(lp2528
g1
(g15
g3
Ntp2529
Rp2530
(dp2531
g19
g20
sbag1
(g15
g3
Ntp2532
Rp2533
(dp2534
g19
(I0
I1
tp2535
sbag1
(g15
g3
Ntp2536
Rp2537
(dp2538
g19
(I1
I1
tp2539
sbag1
(g15
g3
Ntp2540
Rp2541
(dp2542
g19
(I1
I2
tp2543
sbag1
(g15
g3
Ntp2544
Rp2545
(dp2546
g19
(I2
I2
tp2547
sbag1
(g15
g3
Ntp2548
Rp2549
(dp2550
g19
(I3
I2
tp2551
sbag1
(g15
g3
Ntp2552
Rp2553
(dp2554
g19
(I3
I1
tp2555
sbag1
(g15
g3
Ntp2556
Rp2557
(dp2558
g19
(I2
I1
tp2559
sbag1
(g15
g3
Ntp2560
Rp2561
(dp2562
g19
(I2
I0
tp2563
sbag1
(g15
g3
Ntp2564
Rp2565
(dp2566
g19
(I1
I0
tp2567
sbag1
(g15
g3
Ntp2568
Rp2569
(dp2570
g19
(I1
I-1
tp2571
sbasg65
I11
sg66
Nsg67
S'URURRDLDLD'
p2572
sg69
S'10101001010'
p2573
sg71
Nsg72
Nsbag1
(g2
g3
Ntp2574
Rp2575
(dp2576
g7
I4
sg8
S'HPHPHPHHPHP'
p2577
sg10
Nsg11
I0
sg12
Nsg13
(lp2578
g1
(g15
g3
Ntp2579
Rp2580
(dp2581
g19
g20
sbag1
(g15
g3
Ntp2582
Rp2583
(dp2584
g19
(I0
I1
tp2585
sbag1
(g15
g3
Ntp2586
Rp2587
(dp2588
g19
(I1
I1
tp2589
sbag1
(g15
g3
Ntp2590
Rp2591
(dp2592
g19
(I1
I2
tp2593
sbag1
(g15
g3
Ntp2594
Rp2595
(dp2596
g19
(I2
I2
tp2597
sbag1
(g15
g3
Ntp2598
Rp2599
(dp2600
g19
(I3
I2
tp2601
sbag1
(g15
g3
Ntp2602
Rp2603
(dp2604
g19
(I3
I1
tp2605
sbag1
(g15
g3
Ntp2606
Rp2607
(dp2608
g19
(I2
I1
tp2609
sbag1
(g15
g3
Ntp2610
Rp2611
(dp2612
g19
(I2
I0
tp2613
sbag1
(g15
g3
Ntp2614
Rp2615
(dp2616
g19
(I1
I0
tp2617
sbag1
(g15
g3
Ntp2618
Rp2619
(dp2620
g19
(I1
I-1
tp2621
sbasg65
I11
sg66
Nsg67
g2572
sg69
S'10101011010'
p2622
sg71
Nsg72
Nsbag1
(g2
g3
Ntp2623
Rp2624
(dp2625
g7
I4
sg8
S'HPHPHPPHHHP'
p2626
sg10
Nsg11
I0
sg12
Nsg13
(lp2627
g1
(g15
g3
Ntp2628
Rp2629
(dp2630
g19
g20
sbag1
(g15
g3
Ntp2631
Rp2632
(dp2633
g19
(I0
I1
tp2634
sbag1
(g15
g3
Ntp2635
Rp2636
(dp2637
g19
(I1
I1
tp2638
sbag1
(g15
g3
Ntp2639
Rp2640
(dp2641
g19
(I1
I2
tp2642
sbag1
(g15
g3
Ntp2643
Rp2644
(dp2645
g19
(I2
I2
tp2646
sbag1
(g15
g3
Ntp2647
Rp2648
(dp2649
g19
(I3
I2
tp2650
sbag1
(g15
g3
Ntp2651
Rp2652
(dp2653
g19
(I3
I1
tp2654
sbag1
(g15
g3
Ntp2655
Rp2656
(dp2657
g19
(I2
I1
tp2658
sbag1
(g15
g3
Ntp2659
Rp2660
(dp2661
g19
(I2
I0
tp2662
sbag1
(g15
g3
Ntp2663
Rp2664
(dp2665
g19
(I1
I0
tp2666
sbag1
(g15
g3
Ntp2667
Rp2668
(dp2669
g19
(I1
I-1
tp2670
sbasg65
I11
sg66
Nsg67
g2572
sg69
S'10101001110'
p2671
sg71
Nsg72
Nsbag1
(g2
g3
Ntp2672
Rp2673
(dp2674
g7
I4
sg8
S'HPHPHPHHHHP'
p2675
sg10
Nsg11
I0
sg12
Nsg13
(lp2676
g1
(g15
g3
Ntp2677
Rp2678
(dp2679
g19
g20
sbag1
(g15
g3
Ntp2680
Rp2681
(dp2682
g19
(I0
I1
tp2683
sbag1
(g15
g3
Ntp2684
Rp2685
(dp2686
g19
(I1
I1
tp2687
sbag1
(g15
g3
Ntp2688
Rp2689
(dp2690
g19
(I1
I2
tp2691
sbag1
(g15
g3
Ntp2692
Rp2693
(dp2694
g19
(I2
I2
tp2695
sbag1
(g15
g3
Ntp2696
Rp2697
(dp2698
g19
(I3
I2
tp2699
sbag1
(g15
g3
Ntp2700
Rp2701
(dp2702
g19
(I3
I1
tp2703
sbag1
(g15
g3
Ntp2704
Rp2705
(dp2706
g19
(I2
I1
tp2707
sbag1
(g15
g3
Ntp2708
Rp2709
(dp2710
g19
(I2
I0
tp2711
sbag1
(g15
g3
Ntp2712
Rp2713
(dp2714
g19
(I1
I0
tp2715
sbag1
(g15
g3
Ntp2716
Rp2717
(dp2718
g19
(I1
I-1
tp2719
sbasg65
I11
sg66
Nsg67
g2572
sg69
S'10101011110'
p2720
sg71
Nsg72
Nsbag1
(g2
g3
Ntp2721
Rp2722
(dp2723
g7
I4
sg8
S'HPHPHPPHPHH'
p2724
sg10
Nsg11
I0
sg12
Nsg13
(lp2725
g1
(g15
g3
Ntp2726
Rp2727
(dp2728
g19
g20
sbag1
(g15
g3
Ntp2729
Rp2730
(dp2731
g19
(I0
I1
tp2732
sbag1
(g15
g3
Ntp2733
Rp2734
(dp2735
g19
(I1
I1
tp2736
sbag1
(g15
g3
Ntp2737
Rp2738
(dp2739
g19
(I1
I2
tp2740
sbag1
(g15
g3
Ntp2741
Rp2742
(dp2743
g19
(I2
I2
tp2744
sbag1
(g15
g3
Ntp2745
Rp2746
(dp2747
g19
(I3
I2
tp2748
sbag1
(g15
g3
Ntp2749
Rp2750
(dp2751
g19
(I3
I1
tp2752
sbag1
(g15
g3
Ntp2753
Rp2754
(dp2755
g19
(I2
I1
tp2756
sbag1
(g15
g3
Ntp2757
Rp2758
(dp2759
g19
(I2
I0
tp2760
sbag1
(g15
g3
Ntp2761
Rp2762
(dp2763
g19
(I1
I0
tp2764
sbag1
(g15
g3
Ntp2765
Rp2766
(dp2767
g19
(I1
I-1
tp2768
sbasg65
I11
sg66
Nsg67
g2572
sg69
S'10101001011'
p2769
sg71
Nsg72
Nsbag1
(g2
g3
Ntp2770
Rp2771
(dp2772
g7
I4
sg8
S'HPHPHPHHPHH'
p2773
sg10
Nsg11
I0
sg12
Nsg13
(lp2774
g1
(g15
g3
Ntp2775
Rp2776
(dp2777
g19
g20
sbag1
(g15
g3
Ntp2778
Rp2779
(dp2780
g19
(I0
I1
tp2781
sbag1
(g15
g3
Ntp2782
Rp2783
(dp2784
g19
(I1
I1
tp2785
sbag1
(g15
g3
Ntp2786
Rp2787
(dp2788
g19
(I1
I2
tp2789
sbag1
(g15
g3
Ntp2790
Rp2791
(dp2792
g19
(I2
I2
tp2793
sbag1
(g15
g3
Ntp2794
Rp2795
(dp2796
g19
(I3
I2
tp2797
sbag1
(g15
g3
Ntp2798
Rp2799
(dp2800
g19
(I3
I1
tp2801
sbag1
(g15
g3
Ntp2802
Rp2803
(dp2804
g19
(I2
I1
tp2805
sbag1
(g15
g3
Ntp2806
Rp2807
(dp2808
g19
(I2
I0
tp2809
sbag1
(g15
g3
Ntp2810
Rp2811
(dp2812
g19
(I1
I0
tp2813
sbag1
(g15
g3
Ntp2814
Rp2815
(dp2816
g19
(I1
I-1
tp2817
sbasg65
I11
sg66
Nsg67
g2572
sg69
S'10101011011'
p2818
sg71
Nsg72
Nsbag1
(g2
g3
Ntp2819
Rp2820
(dp2821
g7
I4
sg8
S'HPHPHPPHHHH'
p2822
sg10
Nsg11
I0
sg12
Nsg13
(lp2823
g1
(g15
g3
Ntp2824
Rp2825
(dp2826
g19
g20
sbag1
(g15
g3
Ntp2827
Rp2828
(dp2829
g19
(I0
I1
tp2830
sbag1
(g15
g3
Ntp2831
Rp2832
(dp2833
g19
(I1
I1
tp2834
sbag1
(g15
g3
Ntp2835
Rp2836
(dp2837
g19
(I1
I2
tp2838
sbag1
(g15
g3
Ntp2839
Rp2840
(dp2841
g19
(I2
I2
tp2842
sbag1
(g15
g3
Ntp2843
Rp2844
(dp2845
g19
(I3
I2
tp2846
sbag1
(g15
g3
Ntp2847
Rp2848
(dp2849
g19
(I3
I1
tp2850
sbag1
(g15
g3
Ntp2851
Rp2852
(dp2853
g19
(I2
I1
tp2854
sbag1
(g15
g3
Ntp2855
Rp2856
(dp2857
g19
(I2
I0
tp2858
sbag1
(g15
g3
Ntp2859
Rp2860
(dp2861
g19
(I1
I0
tp2862
sbag1
(g15
g3
Ntp2863
Rp2864
(dp2865
g19
(I1
I-1
tp2866
sbasg65
I11
sg66
Nsg67
g2572
sg69
S'10101001111'
p2867
sg71
Nsg72
Nsbag1
(g2
g3
Ntp2868
Rp2869
(dp2870
g7
I4
sg8
S'HPHPHPHHHHH'
p2871
sg10
Nsg11
I0
sg12
Nsg13
(lp2872
g1
(g15
g3
Ntp2873
Rp2874
(dp2875
g19
g20
sbag1
(g15
g3
Ntp2876
Rp2877
(dp2878
g19
(I0
I1
tp2879
sbag1
(g15
g3
Ntp2880
Rp2881
(dp2882
g19
(I1
I1
tp2883
sbag1
(g15
g3
Ntp2884
Rp2885
(dp2886
g19
(I1
I2
tp2887
sbag1
(g15
g3
Ntp2888
Rp2889
(dp2890
g19
(I2
I2
tp2891
sbag1
(g15
g3
Ntp2892
Rp2893
(dp2894
g19
(I3
I2
tp2895
sbag1
(g15
g3
Ntp2896
Rp2897
(dp2898
g19
(I3
I1
tp2899
sbag1
(g15
g3
Ntp2900
Rp2901
(dp2902
g19
(I2
I1
tp2903
sbag1
(g15
g3
Ntp2904
Rp2905
(dp2906
g19
(I2
I0
tp2907
sbag1
(g15
g3
Ntp2908
Rp2909
(dp2910
g19
(I1
I0
tp2911
sbag1
(g15
g3
Ntp2912
Rp2913
(dp2914
g19
(I1
I-1
tp2915
sbasg65
I11
sg66
Nsg67
g2572
sg69
S'10101011111'
p2916
sg71
Nsg72
Nsbag1
(g2
g3
Ntp2917
Rp2918
(dp2919
g7
I5
sg8
S'HPPHPPHPPHPH'
p2920
sg10
Nsg11
I0
sg12
Nsg13
(lp2921
g1
(g15
g3
Ntp2922
Rp2923
(dp2924
g19
g20
sbag1
(g15
g3
Ntp2925
Rp2926
(dp2927
g19
(I0
I1
tp2928
sbag1
(g15
g3
Ntp2929
Rp2930
(dp2931
g19
(I1
I1
tp2932
sbag1
(g15
g3
Ntp2933
Rp2934
(dp2935
g19
(I1
I0
tp2936
sbag1
(g15
g3
Ntp2937
Rp2938
(dp2939
g19
(I2
I0
tp2940
sbag1
(g15
g3
Ntp2941
Rp2942
(dp2943
g19
(I2
I-1
tp2944
sbag1
(g15
g3
Ntp2945
Rp2946
(dp2947
g19
(I1
I-1
tp2948
sbag1
(g15
g3
Ntp2949
Rp2950
(dp2951
g19
(I1
I-2
tp2952
sbag1
(g15
g3
Ntp2953
Rp2954
(dp2955
g19
(I0
I-2
tp2956
sbag1
(g15
g3
Ntp2957
Rp2958
(dp2959
g19
(I0
I-1
tp2960
sbag1
(g15
g3
Ntp2961
Rp2962
(dp2963
g19
(I-1
I-1
tp2964
sbag1
(g15
g3
Ntp2965
Rp2966
(dp2967
g19
(I-1
I0
tp2968
sbasg65
I12
sg66
Nsg67
S'URDRDLDLULU'
p2969
sg69
S'100100100101'
p2970
sg71
Nsg72
Nsbag1
(g2
g3
Ntp2971
Rp2972
(dp2973
g7
I5
sg8
S'HHPHPPHPPHPH'
p2974
sg10
Nsg11
I0
sg12
Nsg13
(lp2975
g1
(g15
g3
Ntp2976
Rp2977
(dp2978
g19
g20
sbag1
(g15
g3
Ntp2979
Rp2980
(dp2981
g19
(I0
I1
tp2982
sbag1
(g15
g3
Ntp2983
Rp2984
(dp2985
g19
(I1
I1
tp2986
sbag1
(g15
g3
Ntp2987
Rp2988
(dp2989
g19
(I1
I0
tp2990
sbag1
(g15
g3
Ntp2991
Rp2992
(dp2993
g19
(I2
I0
tp2994
sbag1
(g15
g3
Ntp2995
Rp2996
(dp2997
g19
(I2
I-1
tp2998
sbag1
(g15
g3
Ntp2999
Rp3000
(dp3001
g19
(I1
I-1
tp3002
sbag1
(g15
g3
Ntp3003
Rp3004
(dp3005
g19
(I1
I-2
tp3006
sbag1
(g15
g3
Ntp3007
Rp3008
(dp3009
g19
(I0
I-2
tp3010
sbag1
(g15
g3
Ntp3011
Rp3012
(dp3013
g19
(I0
I-1
tp3014
sbag1
(g15
g3
Ntp3015
Rp3016
(dp3017
g19
(I-1
I-1
tp3018
sbag1
(g15
g3
Ntp3019
Rp3020
(dp3021
g19
(I-1
I0
tp3022
sbasg65
I12
sg66
Nsg67
g2969
sg69
S'110100100101'
p3023
sg71
Nsg72
Nsbag1
(g2
g3
Ntp3024
Rp3025
(dp3026
g7
I5
sg8
S'HPPHPPHHPHPH'
p3027
sg10
Nsg11
I0
sg12
Nsg13
(lp3028
g1
(g15
g3
Ntp3029
Rp3030
(dp3031
g19
g20
sbag1
(g15
g3
Ntp3032
Rp3033
(dp3034
g19
(I0
I1
tp3035
sbag1
(g15
g3
Ntp3036
Rp3037
(dp3038
g19
(I1
I1
tp3039
sbag1
(g15
g3
Ntp3040
Rp3041
(dp3042
g19
(I1
I0
tp3043
sbag1
(g15
g3
Ntp3044
Rp3045
(dp3046
g19
(I2
I0
tp3047
sbag1
(g15
g3
Ntp3048
Rp3049
(dp3050
g19
(I2
I-1
tp3051
sbag1
(g15
g3
Ntp3052
Rp3053
(dp3054
g19
(I1
I-1
tp3055
sbag1
(g15
g3
Ntp3056
Rp3057
(dp3058
g19
(I1
I-2
tp3059
sbag1
(g15
g3
Ntp3060
Rp3061
(dp3062
g19
(I0
I-2
tp3063
sbag1
(g15
g3
Ntp3064
Rp3065
(dp3066
g19
(I0
I-1
tp3067
sbag1
(g15
g3
Ntp3068
Rp3069
(dp3070
g19
(I-1
I-1
tp3071
sbag1
(g15
g3
Ntp3072
Rp3073
(dp3074
g19
(I-1
I0
tp3075
sbasg65
I12
sg66
Nsg67
g2969
sg69
S'100100110101'
p3076
sg71
Nsg72
Nsbag1
(g2
g3
Ntp3077
Rp3078
(dp3079
g7
I5
sg8
S'HPPHPPHPPHHH'
p3080
sg10
Nsg11
I0
sg12
Nsg13
(lp3081
g1
(g15
g3
Ntp3082
Rp3083
(dp3084
g19
g20
sbag1
(g15
g3
Ntp3085
Rp3086
(dp3087
g19
(I0
I1
tp3088
sbag1
(g15
g3
Ntp3089
Rp3090
(dp3091
g19
(I1
I1
tp3092
sbag1
(g15
g3
Ntp3093
Rp3094
(dp3095
g19
(I1
I0
tp3096
sbag1
(g15
g3
Ntp3097
Rp3098
(dp3099
g19
(I2
I0
tp3100
sbag1
(g15
g3
Ntp3101
Rp3102
(dp3103
g19
(I2
I-1
tp3104
sbag1
(g15
g3
Ntp3105
Rp3106
(dp3107
g19
(I1
I-1
tp3108
sbag1
(g15
g3
Ntp3109
Rp3110
(dp3111
g19
(I1
I-2
tp3112
sbag1
(g15
g3
Ntp3113
Rp3114
(dp3115
g19
(I0
I-2
tp3116
sbag1
(g15
g3
Ntp3117
Rp3118
(dp3119
g19
(I0
I-1
tp3120
sbag1
(g15
g3
Ntp3121
Rp3122
(dp3123
g19
(I-1
I-1
tp3124
sbag1
(g15
g3
Ntp3125
Rp3126
(dp3127
g19
(I-1
I0
tp3128
sbasg65
I12
sg66
Nsg67
g2969
sg69
S'100100100111'
p3129
sg71
Nsg72
Nsbag1
(g2
g3
Ntp3130
Rp3131
(dp3132
g7
I3
sg8
S'PHPPPPHPPHH'
p3133
sg10
Nsg11
I0
sg12
Nsg13
(lp3134
g1
(g15
g3
Ntp3135
Rp3136
(dp3137
g19
g20
sbag1
(g15
g3
Ntp3138
Rp3139
(dp3140
g19
(I0
I1
tp3141
sbag1
(g15
g3
Ntp3142
Rp3143
(dp3144
g19
(I1
I1
tp3145
sbag1
(g15
g3
Ntp3146
Rp3147
(dp3148
g19
(I2
I1
tp3149
sbag1
(g15
g3
Ntp3150
Rp3151
(dp3152
g19
(I2
I2
tp3153
sbag1
(g15
g3
Ntp3154
Rp3155
(dp3156
g19
(I1
I2
tp3157
sbag1
(g15
g3
Ntp3158
Rp3159
(dp3160
g19
(I0
I2
tp3161
sbag1
(g15
g3
Ntp3162
Rp3163
(dp3164
g19
(I0
I3
tp3165
sbag1
(g15
g3
Ntp3166
Rp3167
(dp3168
g19
(I-1
I3
tp3169
sbag1
(g15
g3
Ntp3170
Rp3171
(dp3172
g19
(I-1
I2
tp3173
sbag1
(g15
g3
Ntp3174
Rp3175
(dp3176
g19
(I-1
I1
tp3177
sbasg65
I11
sg66
Nsg67
S'URRULLULDD'
p3178
sg69
S'01000010011'
p3179
sg71
Nsg72
Nsbag1
(g2
g3
Ntp3180
Rp3181
(dp3182
g7
I3
sg8
S'PHPPPPHPHHH'
p3183
sg10
Nsg11
I0
sg12
Nsg13
(lp3184
g1
(g15
g3
Ntp3185
Rp3186
(dp3187
g19
g20
sbag1
(g15
g3
Ntp3188
Rp3189
(dp3190
g19
(I0
I1
tp3191
sbag1
(g15
g3
Ntp3192
Rp3193
(dp3194
g19
(I1
I1
tp3195
sbag1
(g15
g3
Ntp3196
Rp3197
(dp3198
g19
(I2
I1
tp3199
sbag1
(g15
g3
Ntp3200
Rp3201
(dp3202
g19
(I2
I2
tp3203
sbag1
(g15
g3
Ntp3204
Rp3205
(dp3206
g19
(I1
I2
tp3207
sbag1
(g15
g3
Ntp3208
Rp3209
(dp3210
g19
(I0
I2
tp3211
sbag1
(g15
g3
Ntp3212
Rp3213
(dp3214
g19
(I0
I3
tp3215
sbag1
(g15
g3
Ntp3216
Rp3217
(dp3218
g19
(I-1
I3
tp3219
sbag1
(g15
g3
Ntp3220
Rp3221
(dp3222
g19
(I-1
I2
tp3223
sbag1
(g15
g3
Ntp3224
Rp3225
(dp3226
g19
(I-1
I1
tp3227
sbasg65
I11
sg66
Nsg67
g3178
sg69
S'01000010111'
p3228
sg71
Nsg72
Nsbag1
(g2
g3
Ntp3229
Rp3230
(dp3231
g7
I3
sg8
S'HPPHPPPPPHH'
p3232
sg10
Nsg11
I0
sg12
Nsg13
(lp3233
g1
(g15
g3
Ntp3234
Rp3235
(dp3236
g19
g20
sbag1
(g15
g3
Ntp3237
Rp3238
(dp3239
g19
(I0
I1
tp3240
sbag1
(g15
g3
Ntp3241
Rp3242
(dp3243
g19
(I1
I1
tp3244
sbag1
(g15
g3
Ntp3245
Rp3246
(dp3247
g19
(I1
I0
tp3248
sbag1
(g15
g3
Ntp3249
Rp3250
(dp3251
g19
(I2
I0
tp3252
sbag1
(g15
g3
Ntp3253
Rp3254
(dp3255
g19
(I2
I-1
tp3256
sbag1
(g15
g3
Ntp3257
Rp3258
(dp3259
g19
(I2
I-2
tp3260
sbag1
(g15
g3
Ntp3261
Rp3262
(dp3263
g19
(I1
I-2
tp3264
sbag1
(g15
g3
Ntp3265
Rp3266
(dp3267
g19
(I0
I-2
tp3268
sbag1
(g15
g3
Ntp3269
Rp3270
(dp3271
g19
(I0
I-1
tp3272
sbag1
(g15
g3
Ntp3273
Rp3274
(dp3275
g19
(I1
I-1
tp3276
sbasg65
I11
sg66
Nsg67
S'URDRDDLLUR'
p3277
sg69
S'10010000011'
p3278
sg71
Nsg72
Nsbag1
(g2
g3
Ntp3279
Rp3280
(dp3281
g7
I4
sg8
S'HPPHPHPPPHH'
p3282
sg10
Nsg11
I0
sg12
Nsg13
(lp3283
g1
(g15
g3
Ntp3284
Rp3285
(dp3286
g19
g20
sbag1
(g15
g3
Ntp3287
Rp3288
(dp3289
g19
(I0
I1
tp3290
sbag1
(g15
g3
Ntp3291
Rp3292
(dp3293
g19
(I1
I1
tp3294
sbag1
(g15
g3
Ntp3295
Rp3296
(dp3297
g19
(I1
I0
tp3298
sbag1
(g15
g3
Ntp3299
Rp3300
(dp3301
g19
(I2
I0
tp3302
sbag1
(g15
g3
Ntp3303
Rp3304
(dp3305
g19
(I2
I-1
tp3306
sbag1
(g15
g3
Ntp3307
Rp3308
(dp3309
g19
(I2
I-2
tp3310
sbag1
(g15
g3
Ntp3311
Rp3312
(dp3313
g19
(I1
I-2
tp3314
sbag1
(g15
g3
Ntp3315
Rp3316
(dp3317
g19
(I0
I-2
tp3318
sbag1
(g15
g3
Ntp3319
Rp3320
(dp3321
g19
(I0
I-1
tp3322
sbag1
(g15
g3
Ntp3323
Rp3324
(dp3325
g19
(I1
I-1
tp3326
sbasg65
I11
sg66
Nsg67
g3277
sg69
S'10010100011'
p3327
sg71
Nsg72
Nsbag1
(g2
g3
Ntp3328
Rp3329
(dp3330
g7
I4
sg8
S'HPPHPPPHPHH'
p3331
sg10
Nsg11
I0
sg12
Nsg13
(lp3332
g1
(g15
g3
Ntp3333
Rp3334
(dp3335
g19
g20
sbag1
(g15
g3
Ntp3336
Rp3337
(dp3338
g19
(I0
I1
tp3339
sbag1
(g15
g3
Ntp3340
Rp3341
(dp3342
g19
(I1
I1
tp3343
sbag1
(g15
g3
Ntp3344
Rp3345
(dp3346
g19
(I1
I0
tp3347
sbag1
(g15
g3
Ntp3348
Rp3349
(dp3350
g19
(I2
I0
tp3351
sbag1
(g15
g3
Ntp3352
Rp3353
(dp3354
g19
(I2
I-1
tp3355
sbag1
(g15
g3
Ntp3356
Rp3357
(dp3358
g19
(I2
I-2
tp3359
sbag1
(g15
g3
Ntp3360
Rp3361
(dp3362
g19
(I1
I-2
tp3363
sbag1
(g15
g3
Ntp3364
Rp3365
(dp3366
g19
(I0
I-2
tp3367
sbag1
(g15
g3
Ntp3368
Rp3369
(dp3370
g19
(I0
I-1
tp3371
sbag1
(g15
g3
Ntp3372
Rp3373
(dp3374
g19
(I1
I-1
tp3375
sbasg65
I11
sg66
Nsg67
g3277
sg69
S'10010001011'
p3376
sg71
Nsg72
Nsbag1
(g2
g3
Ntp3377
Rp3378
(dp3379
g7
I5
sg8
S'HPPHPHPHPHH'
p3380
sg10
Nsg11
I0
sg12
Nsg13
(lp3381
g1
(g15
g3
Ntp3382
Rp3383
(dp3384
g19
g20
sbag1
(g15
g3
Ntp3385
Rp3386
(dp3387
g19
(I0
I1
tp3388
sbag1
(g15
g3
Ntp3389
Rp3390
(dp3391
g19
(I1
I1
tp3392
sbag1
(g15
g3
Ntp3393
Rp3394
(dp3395
g19
(I1
I0
tp3396
sbag1
(g15
g3
Ntp3397
Rp3398
(dp3399
g19
(I2
I0
tp3400
sbag1
(g15
g3
Ntp3401
Rp3402
(dp3403
g19
(I2
I-1
tp3404
sbag1
(g15
g3
Ntp3405
Rp3406
(dp3407
g19
(I2
I-2
tp3408
sbag1
(g15
g3
Ntp3409
Rp3410
(dp3411
g19
(I1
I-2
tp3412
sbag1
(g15
g3
Ntp3413
Rp3414
(dp3415
g19
(I0
I-2
tp3416
sbag1
(g15
g3
Ntp3417
Rp3418
(dp3419
g19
(I0
I-1
tp3420
sbag1
(g15
g3
Ntp3421
Rp3422
(dp3423
g19
(I1
I-1
tp3424
sbasg65
I11
sg66
Nsg67
g3277
sg69
S'10010101011'
p3425
sg71
Nsg72
Nsbag1
(g2
g3
Ntp3426
Rp3427
(dp3428
g7
I5
sg8
S'HPHHPPPHHHHH'
p3429
sg10
Nsg11
I0
sg12
Nsg13
(lp3430
g1
(g15
g3
Ntp3431
Rp3432
(dp3433
g19
g20
sbag1
(g15
g3
Ntp3434
Rp3435
(dp3436
g19
(I0
I1
tp3437
sbag1
(g15
g3
Ntp3438
Rp3439
(dp3440
g19
(I1
I1
tp3441
sbag1
(g15
g3
Ntp3442
Rp3443
(dp3444
g19
(I2
I1
tp3445
sbag1
(g15
g3
Ntp3446
Rp3447
(dp3448
g19
(I3
I1
tp3449
sbag1
(g15
g3
Ntp3450
Rp3451
(dp3452
g19
(I3
I0
tp3453
sbag1
(g15
g3
Ntp3454
Rp3455
(dp3456
g19
(I3
I-1
tp3457
sbag1
(g15
g3
Ntp3458
Rp3459
(dp3460
g19
(I2
I-1
tp3461
sbag1
(g15
g3
Ntp3462
Rp3463
(dp3464
g19
(I2
I0
tp3465
sbag1
(g15
g3
Ntp3466
Rp3467
(dp3468
g19
(I1
I0
tp3469
sbag1
(g15
g3
Ntp3470
Rp3471
(dp3472
g19
(I1
I-1
tp3473
sbag1
(g15
g3
Ntp3474
Rp3475
(dp3476
g19
(I0
I-1
tp3477
sbasg65
I12
sg66
Nsg67
S'URRRDDLULDL'
p3478
sg69
S'101100011111'
p3479
sg71
Nsg72
Nsbag1
(g2
g3
Ntp3480
Rp3481
(dp3482
g7
I6
sg8
S'HPHHPHPHHHHH'
p3483
sg10
Nsg11
I0
sg12
Nsg13
(lp3484
g1
(g15
g3
Ntp3485
Rp3486
(dp3487
g19
g20
sbag1
(g15
g3
Ntp3488
Rp3489
(dp3490
g19
(I0
I1
tp3491
sbag1
(g15
g3
Ntp3492
Rp3493
(dp3494
g19
(I1
I1
tp3495
sbag1
(g15
g3
Ntp3496
Rp3497
(dp3498
g19
(I2
I1
tp3499
sbag1
(g15
g3
Ntp3500
Rp3501
(dp3502
g19
(I3
I1
tp3503
sbag1
(g15
g3
Ntp3504
Rp3505
(dp3506
g19
(I3
I0
tp3507
sbag1
(g15
g3
Ntp3508
Rp3509
(dp3510
g19
(I3
I-1
tp3511
sbag1
(g15
g3
Ntp3512
Rp3513
(dp3514
g19
(I2
I-1
tp3515
sbag1
(g15
g3
Ntp3516
Rp3517
(dp3518
g19
(I2
I0
tp3519
sbag1
(g15
g3
Ntp3520
Rp3521
(dp3522
g19
(I1
I0
tp3523
sbag1
(g15
g3
Ntp3524
Rp3525
(dp3526
g19
(I1
I-1
tp3527
sbag1
(g15
g3
Ntp3528
Rp3529
(dp3530
g19
(I0
I-1
tp3531
sbasg65
I12
sg66
Nsg67
g3478
sg69
S'101101011111'
p3532
sg71
Nsg72
Nsbag1
(g2
g3
Ntp3533
Rp3534
(dp3535
g7
I6
sg8
S'HPHHPHHHHHHH'
p3536
sg10
Nsg11
I0
sg12
Nsg13
(lp3537
g1
(g15
g3
Ntp3538
Rp3539
(dp3540
g19
g20
sbag1
(g15
g3
Ntp3541
Rp3542
(dp3543
g19
(I0
I1
tp3544
sbag1
(g15
g3
Ntp3545
Rp3546
(dp3547
g19
(I1
I1
tp3548
sbag1
(g15
g3
Ntp3549
Rp3550
(dp3551
g19
(I2
I1
tp3552
sbag1
(g15
g3
Ntp3553
Rp3554
(dp3555
g19
(I3
I1
tp3556
sbag1
(g15
g3
Ntp3557
Rp3558
(dp3559
g19
(I3
I0
tp3560
sbag1
(g15
g3
Ntp3561
Rp3562
(dp3563
g19
(I3
I-1
tp3564
sbag1
(g15
g3
Ntp3565
Rp3566
(dp3567
g19
(I2
I-1
tp3568
sbag1
(g15
g3
Ntp3569
Rp3570
(dp3571
g19
(I2
I0
tp3572
sbag1
(g15
g3
Ntp3573
Rp3574
(dp3575
g19
(I1
I0
tp3576
sbag1
(g15
g3
Ntp3577
Rp3578
(dp3579
g19
(I1
I-1
tp3580
sbag1
(g15
g3
Ntp3581
Rp3582
(dp3583
g19
(I0
I-1
tp3584
sbasg65
I12
sg66
Nsg67
g3478
sg69
S'101101111111'
p3585
sg71
Nsg72
Nsbag1
(g2
g3
Ntp3586
Rp3587
(dp3588
g7
I5
sg8
S'HPPHPHPHPPHH'
p3589
sg10
Nsg11
I0
sg12
Nsg13
(lp3590
g1
(g15
g3
Ntp3591
Rp3592
(dp3593
g19
g20
sbag1
(g15
g3
Ntp3594
Rp3595
(dp3596
g19
(I0
I1
tp3597
sbag1
(g15
g3
Ntp3598
Rp3599
(dp3600
g19
(I1
I1
tp3601
sbag1
(g15
g3
Ntp3602
Rp3603
(dp3604
g19
(I1
I0
tp3605
sbag1
(g15
g3
Ntp3606
Rp3607
(dp3608
g19
(I1
I-1
tp3609
sbag1
(g15
g3
Ntp3610
Rp3611
(dp3612
g19
(I0
I-1
tp3613
sbag1
(g15
g3
Ntp3614
Rp3615
(dp3616
g19
(I0
I-2
tp3617
sbag1
(g15
g3
Ntp3618
Rp3619
(dp3620
g19
(I-1
I-2
tp3621
sbag1
(g15
g3
Ntp3622
Rp3623
(dp3624
g19
(I-2
I-2
tp3625
sbag1
(g15
g3
Ntp3626
Rp3627
(dp3628
g19
(I-2
I-1
tp3629
sbag1
(g15
g3
Ntp3630
Rp3631
(dp3632
g19
(I-1
I-1
tp3633
sbag1
(g15
g3
Ntp3634
Rp3635
(dp3636
g19
(I-1
I0
tp3637
sbasg65
I12
sg66
Nsg67
S'URDDLDLLURU'
p3638
sg69
S'100101010011'
p3639
sg71
Nsg72
Nsbag1
(g2
g3
Ntp3640
Rp3641
(dp3642
g7
I5
sg8
S'HPPHPHPHPHHH'
p3643
sg10
Nsg11
I0
sg12
Nsg13
(lp3644
g1
(g15
g3
Ntp3645
Rp3646
(dp3647
g19
g20
sbag1
(g15
g3
Ntp3648
Rp3649
(dp3650
g19
(I0
I1
tp3651
sbag1
(g15
g3
Ntp3652
Rp3653
(dp3654
g19
(I1
I1
tp3655
sbag1
(g15
g3
Ntp3656
Rp3657
(dp3658
g19
(I1
I0
tp3659
sbag1
(g15
g3
Ntp3660
Rp3661
(dp3662
g19
(I1
I-1
tp3663
sbag1
(g15
g3
Ntp3664
Rp3665
(dp3666
g19
(I0
I-1
tp3667
sbag1
(g15
g3
Ntp3668
Rp3669
(dp3670
g19
(I0
I-2
tp3671
sbag1
(g15
g3
Ntp3672
Rp3673
(dp3674
g19
(I-1
I-2
tp3675
sbag1
(g15
g3
Ntp3676
Rp3677
(dp3678
g19
(I-2
I-2
tp3679
sbag1
(g15
g3
Ntp3680
Rp3681
(dp3682
g19
(I-2
I-1
tp3683
sbag1
(g15
g3
Ntp3684
Rp3685
(dp3686
g19
(I-1
I-1
tp3687
sbag1
(g15
g3
Ntp3688
Rp3689
(dp3690
g19
(I-1
I0
tp3691
sbasg65
I12
sg66
Nsg67
g3638
sg69
S'100101010111'
p3692
sg71
Nsg72
Nsbag1
(g2
g3
Ntp3693
Rp3694
(dp3695
g7
I3
sg8
S'HHPPHPPPPHP'
p3696
sg10
Nsg11
I0
sg12
Nsg13
(lp3697
g1
(g15
g3
Ntp3698
Rp3699
(dp3700
g19
g20
sbag1
(g15
g3
Ntp3701
Rp3702
(dp3703
g19
(I0
I1
tp3704
sbag1
(g15
g3
Ntp3705
Rp3706
(dp3707
g19
(I0
I2
tp3708
sbag1
(g15
g3
Ntp3709
Rp3710
(dp3711
g19
(I1
I2
tp3712
sbag1
(g15
g3
Ntp3713
Rp3714
(dp3715
g19
(I1
I1
tp3716
sbag1
(g15
g3
Ntp3717
Rp3718
(dp3719
g19
(I2
I1
tp3720
sbag1
(g15
g3
Ntp3721
Rp3722
(dp3723
g19
(I3
I1
tp3724
sbag1
(g15
g3
Ntp3725
Rp3726
(dp3727
g19
(I3
I0
tp3728
sbag1
(g15
g3
Ntp3729
Rp3730
(dp3731
g19
(I2
I0
tp3732
sbag1
(g15
g3
Ntp3733
Rp3734
(dp3735
g19
(I1
I0
tp3736
sbag1
(g15
g3
Ntp3737
Rp3738
(dp3739
g19
(I1
I-1
tp3740
sbasg65
I11
sg66
Nsg67
S'UURDRRDLLD'
p3741
sg69
S'11001000010'
p3742
sg71
Nsg72
Nsbag1
(g2
g3
Ntp3743
Rp3744
(dp3745
g7
I3
sg8
S'HHHPHPPPPHP'
p3746
sg10
Nsg11
I0
sg12
Nsg13
(lp3747
g1
(g15
g3
Ntp3748
Rp3749
(dp3750
g19
g20
sbag1
(g15
g3
Ntp3751
Rp3752
(dp3753
g19
(I0
I1
tp3754
sbag1
(g15
g3
Ntp3755
Rp3756
(dp3757
g19
(I0
I2
tp3758
sbag1
(g15
g3
Ntp3759
Rp3760
(dp3761
g19
(I1
I2
tp3762
sbag1
(g15
g3
Ntp3763
Rp3764
(dp3765
g19
(I1
I1
tp3766
sbag1
(g15
g3
Ntp3767
Rp3768
(dp3769
g19
(I2
I1
tp3770
sbag1
(g15
g3
Ntp3771
Rp3772
(dp3773
g19
(I3
I1
tp3774
sbag1
(g15
g3
Ntp3775
Rp3776
(dp3777
g19
(I3
I0
tp3778
sbag1
(g15
g3
Ntp3779
Rp3780
(dp3781
g19
(I2
I0
tp3782
sbag1
(g15
g3
Ntp3783
Rp3784
(dp3785
g19
(I1
I0
tp3786
sbag1
(g15
g3
Ntp3787
Rp3788
(dp3789
g19
(I1
I-1
tp3790
sbasg65
I11
sg66
Nsg67
g3741
sg69
S'11101000010'
p3791
sg71
Nsg72
Nsbag1
(g2
g3
Ntp3792
Rp3793
(dp3794
g7
I2
sg8
S'HPHPPHP'
p3795
sg10
Nsg11
I0
sg12
Nsg13
(lp3796
g1
(g15
g3
Ntp3797
Rp3798
(dp3799
g19
g20
sbag1
(g15
g3
Ntp3800
Rp3801
(dp3802
g19
(I0
I1
tp3803
sbag1
(g15
g3
Ntp3804
Rp3805
(dp3806
g19
(I1
I1
tp3807
sbag1
(g15
g3
Ntp3808
Rp3809
(dp3810
g19
(I2
I1
tp3811
sbag1
(g15
g3
Ntp3812
Rp3813
(dp3814
g19
(I2
I0
tp3815
sbag1
(g15
g3
Ntp3816
Rp3817
(dp3818
g19
(I1
I0
tp3819
sbag1
(g15
g3
Ntp3820
Rp3821
(dp3822
g19
(I1
I-1
tp3823
sbasg65
I7
sg66
Nsg67
S'URRDLD'
p3824
sg69
S'1010010'
p3825
sg71
Nsg72
Nsbag1
(g2
g3
Ntp3826
Rp3827
(dp3828
g7
I2
sg8
S'HHHPPHP'
p3829
sg10
Nsg11
I0
sg12
Nsg13
(lp3830
g1
(g15
g3
Ntp3831
Rp3832
(dp3833
g19
g20
sbag1
(g15
g3
Ntp3834
Rp3835
(dp3836
g19
(I0
I1
tp3837
sbag1
(g15
g3
Ntp3838
Rp3839
(dp3840
g19
(I1
I1
tp3841
sbag1
(g15
g3
Ntp3842
Rp3843
(dp3844
g19
(I2
I1
tp3845
sbag1
(g15
g3
Ntp3846
Rp3847
(dp3848
g19
(I2
I0
tp3849
sbag1
(g15
g3
Ntp3850
Rp3851
(dp3852
g19
(I1
I0
tp3853
sbag1
(g15
g3
Ntp3854
Rp3855
(dp3856
g19
(I1
I-1
tp3857
sbasg65
I7
sg66
Nsg67
g3824
sg69
S'1110010'
p3858
sg71
Nsg72
Nsbag1
(g2
g3
Ntp3859
Rp3860
(dp3861
g7
I2
sg8
S'HPHPHHP'
p3862
sg10
Nsg11
I0
sg12
Nsg13
(lp3863
g1
(g15
g3
Ntp3864
Rp3865
(dp3866
g19
g20
sbag1
(g15
g3
Ntp3867
Rp3868
(dp3869
g19
(I0
I1
tp3870
sbag1
(g15
g3
Ntp3871
Rp3872
(dp3873
g19
(I1
I1
tp3874
sbag1
(g15
g3
Ntp3875
Rp3876
(dp3877
g19
(I2
I1
tp3878
sbag1
(g15
g3
Ntp3879
Rp3880
(dp3881
g19
(I2
I0
tp3882
sbag1
(g15
g3
Ntp3883
Rp3884
(dp3885
g19
(I1
I0
tp3886
sbag1
(g15
g3
Ntp3887
Rp3888
(dp3889
g19
(I1
I-1
tp3890
sbasg65
I7
sg66
Nsg67
g3824
sg69
S'1010110'
p3891
sg71
Nsg72
Nsbag1
(g2
g3
Ntp3892
Rp3893
(dp3894
g7
I2
sg8
S'HPHPPHH'
p3895
sg10
Nsg11
I0
sg12
Nsg13
(lp3896
g1
(g15
g3
Ntp3897
Rp3898
(dp3899
g19
g20
sbag1
(g15
g3
Ntp3900
Rp3901
(dp3902
g19
(I0
I1
tp3903
sbag1
(g15
g3
Ntp3904
Rp3905
(dp3906
g19
(I1
I1
tp3907
sbag1
(g15
g3
Ntp3908
Rp3909
(dp3910
g19
(I2
I1
tp3911
sbag1
(g15
g3
Ntp3912
Rp3913
(dp3914
g19
(I2
I0
tp3915
sbag1
(g15
g3
Ntp3916
Rp3917
(dp3918
g19
(I1
I0
tp3919
sbag1
(g15
g3
Ntp3920
Rp3921
(dp3922
g19
(I1
I-1
tp3923
sbasg65
I7
sg66
Nsg67
g3824
sg69
S'1010011'
p3924
sg71
Nsg72
Nsbag1
(g2
g3
Ntp3925
Rp3926
(dp3927
g7
I2
sg8
S'HPHPHHH'
p3928
sg10
Nsg11
I0
sg12
Nsg13
(lp3929
g1
(g15
g3
Ntp3930
Rp3931
(dp3932
g19
g20
sbag1
(g15
g3
Ntp3933
Rp3934
(dp3935
g19
(I0
I1
tp3936
sbag1
(g15
g3
Ntp3937
Rp3938
(dp3939
g19
(I1
I1
tp3940
sbag1
(g15
g3
Ntp3941
Rp3942
(dp3943
g19
(I2
I1
tp3944
sbag1
(g15
g3
Ntp3945
Rp3946
(dp3947
g19
(I2
I0
tp3948
sbag1
(g15
g3
Ntp3949
Rp3950
(dp3951
g19
(I1
I0
tp3952
sbag1
(g15
g3
Ntp3953
Rp3954
(dp3955
g19
(I1
I-1
tp3956
sbasg65
I7
sg66
Nsg67
g3824
sg69
S'1010111'
p3957
sg71
Nsg72
Nsbag1
(g2
g3
Ntp3958
Rp3959
(dp3960
g7
I1
sg8
S'HPPH'
p3961
sg10
Nsg11
I0
sg12
Nsg13
(lp3962
g1
(g15
g3
Ntp3963
Rp3964
(dp3965
g19
g20
sbag1
(g15
g3
Ntp3966
Rp3967
(dp3968
g19
(I0
I1
tp3969
sbag1
(g15
g3
Ntp3970
Rp3971
(dp3972
g19
(I1
I1
tp3973
sbag1
(g15
g3
Ntp3974
Rp3975
(dp3976
g19
(I1
I0
tp3977
sbasg65
I4
sg66
Nsg67
S'URD'
p3978
sg69
S'1001'
p3979
sg71
Nsg72
Nsbag1
(g2
g3
Ntp3980
Rp3981
(dp3982
g7
I1
sg8
S'HHPH'
p3983
sg10
Nsg11
I0
sg12
Nsg13
(lp3984
g1
(g15
g3
Ntp3985
Rp3986
(dp3987
g19
g20
sbag1
(g15
g3
Ntp3988
Rp3989
(dp3990
g19
(I0
I1
tp3991
sbag1
(g15
g3
Ntp3992
Rp3993
(dp3994
g19
(I1
I1
tp3995
sbag1
(g15
g3
Ntp3996
Rp3997
(dp3998
g19
(I1
I0
tp3999
sbasg65
I4
sg66
Nsg67
g3978
sg69
S'1101'
p4000
sg71
Nsg72
Nsbag1
(g2
g3
Ntp4001
Rp4002
(dp4003
g7
I1
sg8
S'HPHH'
p4004
sg10
Nsg11
I0
sg12
Nsg13
(lp4005
g1
(g15
g3
Ntp4006
Rp4007
(dp4008
g19
g20
sbag1
(g15
g3
Ntp4009
Rp4010
(dp4011
g19
(I0
I1
tp4012
sbag1
(g15
g3
Ntp4013
Rp4014
(dp4015
g19
(I1
I1
tp4016
sbag1
(g15
g3
Ntp4017
Rp4018
(dp4019
g19
(I1
I0
tp4020
sbasg65
I4
sg66
Nsg67
g3978
sg69
S'1011'
p4021
sg71
Nsg72
Nsbag1
(g2
g3
Ntp4022
Rp4023
(dp4024
g7
I1
sg8
S'HHHH'
p4025
sg10
Nsg11
I0
sg12
Nsg13
(lp4026
g1
(g15
g3
Ntp4027
Rp4028
(dp4029
g19
g20
sbag1
(g15
g3
Ntp4030
Rp4031
(dp4032
g19
(I0
I1
tp4033
sbag1
(g15
g3
Ntp4034
Rp4035
(dp4036
g19
(I1
I1
tp4037
sbag1
(g15
g3
Ntp4038
Rp4039
(dp4040
g19
(I1
I0
tp4041
sbasg65
I4
sg66
Nsg67
g3978
sg69
S'1111'
p4042
sg71
Nsg72
Nsbag1
(g2
g3
Ntp4043
Rp4044
(dp4045
g7
I2
sg8
S'HHPPHH'
p4046
sg10
Nsg11
I0
sg12
Nsg13
(lp4047
g1
(g15
g3
Ntp4048
Rp4049
(dp4050
g19
g20
sbag1
(g15
g3
Ntp4051
Rp4052
(dp4053
g19
(I0
I1
tp4054
sbag1
(g15
g3
Ntp4055
Rp4056
(dp4057
g19
(I0
I2
tp4058
sbag1
(g15
g3
Ntp4059
Rp4060
(dp4061
g19
(I1
I2
tp4062
sbag1
(g15
g3
Ntp4063
Rp4064
(dp4065
g19
(I1
I1
tp4066
sbag1
(g15
g3
Ntp4067
Rp4068
(dp4069
g19
(I1
I0
tp4070
sbasg65
I6
sg66
Nsg67
S'UURDD'
p4071
sg69
S'110011'
p4072
sg71
Nsg72
Nsbag1
(g2
g3
Ntp4073
Rp4074
(dp4075
g7
I4
sg8
S'HHPPPHHPPPHH'
p4076
sg10
Nsg11
I0
sg12
Nsg13
(lp4077
g1
(g15
g3
Ntp4078
Rp4079
(dp4080
g19
g20
sbag1
(g15
g3
Ntp4081
Rp4082
(dp4083
g19
(I0
I1
tp4084
sbag1
(g15
g3
Ntp4085
Rp4086
(dp4087
g19
(I1
I1
tp4088
sbag1
(g15
g3
Ntp4089
Rp4090
(dp4091
g19
(I1
I0
tp4092
sbag1
(g15
g3
Ntp4093
Rp4094
(dp4095
g19
(I1
I-1
tp4096
sbag1
(g15
g3
Ntp4097
Rp4098
(dp4099
g19
(I0
I-1
tp4100
sbag1
(g15
g3
Ntp4101
Rp4102
(dp4103
g19
(I-1
I-1
tp4104
sbag1
(g15
g3
Ntp4105
Rp4106
(dp4107
g19
(I-2
I-1
tp4108
sbag1
(g15
g3
Ntp4109
Rp4110
(dp4111
g19
(I-2
I0
tp4112
sbag1
(g15
g3
Ntp4113
Rp4114
(dp4115
g19
(I-2
I1
tp4116
sbag1
(g15
g3
Ntp4117
Rp4118
(dp4119
g19
(I-1
I1
tp4120
sbag1
(g15
g3
Ntp4121
Rp4122
(dp4123
g19
(I-1
I0
tp4124
sbasg65
I12
sg66
Nsg67
S'URDDLLLUURD'
p4125
sg69
S'110001100011'
p4126
sg71
Nsg72
Nsbag1
(g2
g3
Ntp4127
Rp4128
(dp4129
g7
I5
sg8
S'HHPHPHHPPPHH'
p4130
sg10
Nsg11
I0
sg12
Nsg13
(lp4131
g1
(g15
g3
Ntp4132
Rp4133
(dp4134
g19
g20
sbag1
(g15
g3
Ntp4135
Rp4136
(dp4137
g19
(I0
I1
tp4138
sbag1
(g15
g3
Ntp4139
Rp4140
(dp4141
g19
(I1
I1
tp4142
sbag1
(g15
g3
Ntp4143
Rp4144
(dp4145
g19
(I1
I0
tp4146
sbag1
(g15
g3
Ntp4147
Rp4148
(dp4149
g19
(I1
I-1
tp4150
sbag1
(g15
g3
Ntp4151
Rp4152
(dp4153
g19
(I0
I-1
tp4154
sbag1
(g15
g3
Ntp4155
Rp4156
(dp4157
g19
(I-1
I-1
tp4158
sbag1
(g15
g3
Ntp4159
Rp4160
(dp4161
g19
(I-2
I-1
tp4162
sbag1
(g15
g3
Ntp4163
Rp4164
(dp4165
g19
(I-2
I0
tp4166
sbag1
(g15
g3
Ntp4167
Rp4168
(dp4169
g19
(I-2
I1
tp4170
sbag1
(g15
g3
Ntp4171
Rp4172
(dp4173
g19
(I-1
I1
tp4174
sbag1
(g15
g3
Ntp4175
Rp4176
(dp4177
g19
(I-1
I0
tp4178
sbasg65
I12
sg66
Nsg67
g4125
sg69
S'110101100011'
p4179
sg71
Nsg72
Nsbag1
(g2
g3
Ntp4180
Rp4181
(dp4182
g7
I5
sg8
S'HHPPPHHPHPHH'
p4183
sg10
Nsg11
I0
sg12
Nsg13
(lp4184
g1
(g15
g3
Ntp4185
Rp4186
(dp4187
g19
g20
sbag1
(g15
g3
Ntp4188
Rp4189
(dp4190
g19
(I0
I1
tp4191
sbag1
(g15
g3
Ntp4192
Rp4193
(dp4194
g19
(I1
I1
tp4195
sbag1
(g15
g3
Ntp4196
Rp4197
(dp4198
g19
(I1
I0
tp4199
sbag1
(g15
g3
Ntp4200
Rp4201
(dp4202
g19
(I1
I-1
tp4203
sbag1
(g15
g3
Ntp4204
Rp4205
(dp4206
g19
(I0
I-1
tp4207
sbag1
(g15
g3
Ntp4208
Rp4209
(dp4210
g19
(I-1
I-1
tp4211
sbag1
(g15
g3
Ntp4212
Rp4213
(dp4214
g19
(I-2
I-1
tp4215
sbag1
(g15
g3
Ntp4216
Rp4217
(dp4218
g19
(I-2
I0
tp4219
sbag1
(g15
g3
Ntp4220
Rp4221
(dp4222
g19
(I-2
I1
tp4223
sbag1
(g15
g3
Ntp4224
Rp4225
(dp4226
g19
(I-1
I1
tp4227
sbag1
(g15
g3
Ntp4228
Rp4229
(dp4230
g19
(I-1
I0
tp4231
sbasg65
I12
sg66
Nsg67
g4125
sg69
S'110001101011'
p4232
sg71
Nsg72
Nsbag1
(g2
g3
Ntp4233
Rp4234
(dp4235
g7
I6
sg8
S'HHPHPHHPHPHH'
p4236
sg10
Nsg11
I0
sg12
Nsg13
(lp4237
g1
(g15
g3
Ntp4238
Rp4239
(dp4240
g19
g20
sbag1
(g15
g3
Ntp4241
Rp4242
(dp4243
g19
(I0
I1
tp4244
sbag1
(g15
g3
Ntp4245
Rp4246
(dp4247
g19
(I1
I1
tp4248
sbag1
(g15
g3
Ntp4249
Rp4250
(dp4251
g19
(I1
I0
tp4252
sbag1
(g15
g3
Ntp4253
Rp4254
(dp4255
g19
(I1
I-1
tp4256
sbag1
(g15
g3
Ntp4257
Rp4258
(dp4259
g19
(I0
I-1
tp4260
sbag1
(g15
g3
Ntp4261
Rp4262
(dp4263
g19
(I-1
I-1
tp4264
sbag1
(g15
g3
Ntp4265
Rp4266
(dp4267
g19
(I-2
I-1
tp4268
sbag1
(g15
g3
Ntp4269
Rp4270
(dp4271
g19
(I-2
I0
tp4272
sbag1
(g15
g3
Ntp4273
Rp4274
(dp4275
g19
(I-2
I1
tp4276
sbag1
(g15
g3
Ntp4277
Rp4278
(dp4279
g19
(I-1
I1
tp4280
sbag1
(g15
g3
Ntp4281
Rp4282
(dp4283
g19
(I-1
I0
tp4284
sbasg65
I12
sg66
Nsg67
g4125
sg69
S'110101101011'
p4285
sg71
Nsg72
Nsbag1
(g2
g3
Ntp4286
Rp4287
(dp4288
g7
I4
sg8
S'HPPPHHPPPHHH'
p4289
sg10
Nsg11
I0
sg12
Nsg13
(lp4290
g1
(g15
g3
Ntp4291
Rp4292
(dp4293
g19
g20
sbag1
(g15
g3
Ntp4294
Rp4295
(dp4296
g19
(I0
I1
tp4297
sbag1
(g15
g3
Ntp4298
Rp4299
(dp4300
g19
(I1
I1
tp4301
sbag1
(g15
g3
Ntp4302
Rp4303
(dp4304
g19
(I2
I1
tp4305
sbag1
(g15
g3
Ntp4306
Rp4307
(dp4308
g19
(I2
I0
tp4309
sbag1
(g15
g3
Ntp4310
Rp4311
(dp4312
g19
(I2
I-1
tp4313
sbag1
(g15
g3
Ntp4314
Rp4315
(dp4316
g19
(I2
I-2
tp4317
sbag1
(g15
g3
Ntp4318
Rp4319
(dp4320
g19
(I1
I-2
tp4321
sbag1
(g15
g3
Ntp4322
Rp4323
(dp4324
g19
(I0
I-2
tp4325
sbag1
(g15
g3
Ntp4326
Rp4327
(dp4328
g19
(I0
I-1
tp4329
sbag1
(g15
g3
Ntp4330
Rp4331
(dp4332
g19
(I1
I-1
tp4333
sbag1
(g15
g3
Ntp4334
Rp4335
(dp4336
g19
(I1
I0
tp4337
sbasg65
I12
sg66
Nsg67
S'URRDDDLLURU'
p4338
sg69
S'100011000111'
p4339
sg71
Nsg72
Nsbag1
(g2
g3
Ntp4340
Rp4341
(dp4342
g7
I5
sg8
S'HPHPHHPPPHHH'
p4343
sg10
Nsg11
I0
sg12
Nsg13
(lp4344
g1
(g15
g3
Ntp4345
Rp4346
(dp4347
g19
g20
sbag1
(g15
g3
Ntp4348
Rp4349
(dp4350
g19
(I0
I1
tp4351
sbag1
(g15
g3
Ntp4352
Rp4353
(dp4354
g19
(I1
I1
tp4355
sbag1
(g15
g3
Ntp4356
Rp4357
(dp4358
g19
(I2
I1
tp4359
sbag1
(g15
g3
Ntp4360
Rp4361
(dp4362
g19
(I2
I0
tp4363
sbag1
(g15
g3
Ntp4364
Rp4365
(dp4366
g19
(I2
I-1
tp4367
sbag1
(g15
g3
Ntp4368
Rp4369
(dp4370
g19
(I2
I-2
tp4371
sbag1
(g15
g3
Ntp4372
Rp4373
(dp4374
g19
(I1
I-2
tp4375
sbag1
(g15
g3
Ntp4376
Rp4377
(dp4378
g19
(I0
I-2
tp4379
sbag1
(g15
g3
Ntp4380
Rp4381
(dp4382
g19
(I0
I-1
tp4383
sbag1
(g15
g3
Ntp4384
Rp4385
(dp4386
g19
(I1
I-1
tp4387
sbag1
(g15
g3
Ntp4388
Rp4389
(dp4390
g19
(I1
I0
tp4391
sbasg65
I12
sg66
Nsg67
g4338
sg69
S'101011000111'
p4392
sg71
Nsg72
Nsbag1
(g2
g3
Ntp4393
Rp4394
(dp4395
g7
I5
sg8
S'HPPPHHPHPHHH'
p4396
sg10
Nsg11
I0
sg12
Nsg13
(lp4397
g1
(g15
g3
Ntp4398
Rp4399
(dp4400
g19
g20
sbag1
(g15
g3
Ntp4401
Rp4402
(dp4403
g19
(I0
I1
tp4404
sbag1
(g15
g3
Ntp4405
Rp4406
(dp4407
g19
(I1
I1
tp4408
sbag1
(g15
g3
Ntp4409
Rp4410
(dp4411
g19
(I2
I1
tp4412
sbag1
(g15
g3
Ntp4413
Rp4414
(dp4415
g19
(I2
I0
tp4416
sbag1
(g15
g3
Ntp4417
Rp4418
(dp4419
g19
(I2
I-1
tp4420
sbag1
(g15
g3
Ntp4421
Rp4422
(dp4423
g19
(I2
I-2
tp4424
sbag1
(g15
g3
Ntp4425
Rp4426
(dp4427
g19
(I1
I-2
tp4428
sbag1
(g15
g3
Ntp4429
Rp4430
(dp4431
g19
(I0
I-2
tp4432
sbag1
(g15
g3
Ntp4433
Rp4434
(dp4435
g19
(I0
I-1
tp4436
sbag1
(g15
g3
Ntp4437
Rp4438
(dp4439
g19
(I1
I-1
tp4440
sbag1
(g15
g3
Ntp4441
Rp4442
(dp4443
g19
(I1
I0
tp4444
sbasg65
I12
sg66
Nsg67
g4338
sg69
S'100011010111'
p4445
sg71
Nsg72
Nsbag1
(g2
g3
Ntp4446
Rp4447
(dp4448
g7
I6
sg8
S'HPHPHHPHPHHH'
p4449
sg10
Nsg11
I0
sg12
Nsg13
(lp4450
g1
(g15
g3
Ntp4451
Rp4452
(dp4453
g19
g20
sbag1
(g15
g3
Ntp4454
Rp4455
(dp4456
g19
(I0
I1
tp4457
sbag1
(g15
g3
Ntp4458
Rp4459
(dp4460
g19
(I1
I1
tp4461
sbag1
(g15
g3
Ntp4462
Rp4463
(dp4464
g19
(I2
I1
tp4465
sbag1
(g15
g3
Ntp4466
Rp4467
(dp4468
g19
(I2
I0
tp4469
sbag1
(g15
g3
Ntp4470
Rp4471
(dp4472
g19
(I2
I-1
tp4473
sbag1
(g15
g3
Ntp4474
Rp4475
(dp4476
g19
(I2
I-2
tp4477
sbag1
(g15
g3
Ntp4478
Rp4479
(dp4480
g19
(I1
I-2
tp4481
sbag1
(g15
g3
Ntp4482
Rp4483
(dp4484
g19
(I0
I-2
tp4485
sbag1
(g15
g3
Ntp4486
Rp4487
(dp4488
g19
(I0
I-1
tp4489
sbag1
(g15
g3
Ntp4490
Rp4491
(dp4492
g19
(I1
I-1
tp4493
sbag1
(g15
g3
Ntp4494
Rp4495
(dp4496
g19
(I1
I0
tp4497
sbasg65
I12
sg66
Nsg67
g4338
sg69
S'101011010111'
p4498
sg71
Nsg72
Nsbag1
(g2
g3
Ntp4499
Rp4500
(dp4501
g7
I5
sg8
S'HPPPHHPHHHHH'
p4502
sg10
Nsg11
I0
sg12
Nsg13
(lp4503
g1
(g15
g3
Ntp4504
Rp4505
(dp4506
g19
g20
sbag1
(g15
g3
Ntp4507
Rp4508
(dp4509
g19
(I0
I1
tp4510
sbag1
(g15
g3
Ntp4511
Rp4512
(dp4513
g19
(I1
I1
tp4514
sbag1
(g15
g3
Ntp4515
Rp4516
(dp4517
g19
(I2
I1
tp4518
sbag1
(g15
g3
Ntp4519
Rp4520
(dp4521
g19
(I2
I0
tp4522
sbag1
(g15
g3
Ntp4523
Rp4524
(dp4525
g19
(I2
I-1
tp4526
sbag1
(g15
g3
Ntp4527
Rp4528
(dp4529
g19
(I2
I-2
tp4530
sbag1
(g15
g3
Ntp4531
Rp4532
(dp4533
g19
(I1
I-2
tp4534
sbag1
(g15
g3
Ntp4535
Rp4536
(dp4537
g19
(I0
I-2
tp4538
sbag1
(g15
g3
Ntp4539
Rp4540
(dp4541
g19
(I0
I-1
tp4542
sbag1
(g15
g3
Ntp4543
Rp4544
(dp4545
g19
(I1
I-1
tp4546
sbag1
(g15
g3
Ntp4547
Rp4548
(dp4549
g19
(I1
I0
tp4550
sbasg65
I12
sg66
Nsg67
g4338
sg69
S'100011011111'
p4551
sg71
Nsg72
Nsbag1
(g2
g3
Ntp4552
Rp4553
(dp4554
g7
I6
sg8
S'HPHPHHPHHHHH'
p4555
sg10
Nsg11
I0
sg12
Nsg13
(lp4556
g1
(g15
g3
Ntp4557
Rp4558
(dp4559
g19
g20
sbag1
(g15
g3
Ntp4560
Rp4561
(dp4562
g19
(I0
I1
tp4563
sbag1
(g15
g3
Ntp4564
Rp4565
(dp4566
g19
(I1
I1
tp4567
sbag1
(g15
g3
Ntp4568
Rp4569
(dp4570
g19
(I2
I1
tp4571
sbag1
(g15
g3
Ntp4572
Rp4573
(dp4574
g19
(I2
I0
tp4575
sbag1
(g15
g3
Ntp4576
Rp4577
(dp4578
g19
(I2
I-1
tp4579
sbag1
(g15
g3
Ntp4580
Rp4581
(dp4582
g19
(I2
I-2
tp4583
sbag1
(g15
g3
Ntp4584
Rp4585
(dp4586
g19
(I1
I-2
tp4587
sbag1
(g15
g3
Ntp4588
Rp4589
(dp4590
g19
(I0
I-2
tp4591
sbag1
(g15
g3
Ntp4592
Rp4593
(dp4594
g19
(I0
I-1
tp4595
sbag1
(g15
g3
Ntp4596
Rp4597
(dp4598
g19
(I1
I-1
tp4599
sbag1
(g15
g3
Ntp4600
Rp4601
(dp4602
g19
(I1
I0
tp4603
sbasg65
I12
sg66
Nsg67
g4338
sg69
S'101011011111'
p4604
sg71
Nsg72
Nsbag1
(g2
g3
Ntp4605
Rp4606
(dp4607
g7
I4
sg8
S'PHPPHHPPHPH'
p4608
sg10
Nsg11
I0
sg12
Nsg13
(lp4609
g1
(g15
g3
Ntp4610
Rp4611
(dp4612
g19
g20
sbag1
(g15
g3
Ntp4613
Rp4614
(dp4615
g19
(I0
I1
tp4616
sbag1
(g15
g3
Ntp4617
Rp4618
(dp4619
g19
(I1
I1
tp4620
sbag1
(g15
g3
Ntp4621
Rp4622
(dp4623
g19
(I1
I2
tp4624
sbag1
(g15
g3
Ntp4625
Rp4626
(dp4627
g19
(I0
I2
tp4628
sbag1
(g15
g3
Ntp4629
Rp4630
(dp4631
g19
(I-1
I2
tp4632
sbag1
(g15
g3
Ntp4633
Rp4634
(dp4635
g19
(I-1
I3
tp4636
sbag1
(g15
g3
Ntp4637
Rp4638
(dp4639
g19
(I-2
I3
tp4640
sbag1
(g15
g3
Ntp4641
Rp4642
(dp4643
g19
(I-2
I2
tp4644
sbag1
(g15
g3
Ntp4645
Rp4646
(dp4647
g19
(I-2
I1
tp4648
sbag1
(g15
g3
Ntp4649
Rp4650
(dp4651
g19
(I-1
I1
tp4652
sbasg65
I11
sg66
Nsg67
S'URULLULDDR'
p4653
sg69
S'01001100101'
p4654
sg71
Nsg72
Nsbag1
(g2
g3
Ntp4655
Rp4656
(dp4657
g7
I4
sg8
S'HHPPHHPPHPH'
p4658
sg10
Nsg11
I0
sg12
Nsg13
(lp4659
g1
(g15
g3
Ntp4660
Rp4661
(dp4662
g19
g20
sbag1
(g15
g3
Ntp4663
Rp4664
(dp4665
g19
(I0
I1
tp4666
sbag1
(g15
g3
Ntp4667
Rp4668
(dp4669
g19
(I1
I1
tp4670
sbag1
(g15
g3
Ntp4671
Rp4672
(dp4673
g19
(I1
I2
tp4674
sbag1
(g15
g3
Ntp4675
Rp4676
(dp4677
g19
(I0
I2
tp4678
sbag1
(g15
g3
Ntp4679
Rp4680
(dp4681
g19
(I-1
I2
tp4682
sbag1
(g15
g3
Ntp4683
Rp4684
(dp4685
g19
(I-1
I3
tp4686
sbag1
(g15
g3
Ntp4687
Rp4688
(dp4689
g19
(I-2
I3
tp4690
sbag1
(g15
g3
Ntp4691
Rp4692
(dp4693
g19
(I-2
I2
tp4694
sbag1
(g15
g3
Ntp4695
Rp4696
(dp4697
g19
(I-2
I1
tp4698
sbag1
(g15
g3
Ntp4699
Rp4700
(dp4701
g19
(I-1
I1
tp4702
sbasg65
I11
sg66
Nsg67
g4653
sg69
S'11001100101'
p4703
sg71
Nsg72
Nsbag1
(g2
g3
Ntp4704
Rp4705
(dp4706
g7
I3
sg8
S'HHPPPPPHPPH'
p4707
sg10
Nsg11
I0
sg12
Nsg13
(lp4708
g1
(g15
g3
Ntp4709
Rp4710
(dp4711
g19
g20
sbag1
(g15
g3
Ntp4712
Rp4713
(dp4714
g19
(I0
I1
tp4715
sbag1
(g15
g3
Ntp4716
Rp4717
(dp4718
g19
(I1
I1
tp4719
sbag1
(g15
g3
Ntp4720
Rp4721
(dp4722
g19
(I1
I0
tp4723
sbag1
(g15
g3
Ntp4724
Rp4725
(dp4726
g19
(I1
I-1
tp4727
sbag1
(g15
g3
Ntp4728
Rp4729
(dp4730
g19
(I0
I-1
tp4731
sbag1
(g15
g3
Ntp4732
Rp4733
(dp4734
g19
(I-1
I-1
tp4735
sbag1
(g15
g3
Ntp4736
Rp4737
(dp4738
g19
(I-1
I0
tp4739
sbag1
(g15
g3
Ntp4740
Rp4741
(dp4742
g19
(I-2
I0
tp4743
sbag1
(g15
g3
Ntp4744
Rp4745
(dp4746
g19
(I-2
I1
tp4747
sbag1
(g15
g3
Ntp4748
Rp4749
(dp4750
g19
(I-1
I1
tp4751
sbasg65
I11
sg66
Nsg67
S'URDDLLULUR'
p4752
sg69
S'11000001001'
p4753
sg71
Nsg72
Nsbag1
(g2
g3
Ntp4754
Rp4755
(dp4756
g7
I4
sg8
S'HHPHPPPHPPH'
p4757
sg10
Nsg11
I0
sg12
Nsg13
(lp4758
g1
(g15
g3
Ntp4759
Rp4760
(dp4761
g19
g20
sbag1
(g15
g3
Ntp4762
Rp4763
(dp4764
g19
(I0
I1
tp4765
sbag1
(g15
g3
Ntp4766
Rp4767
(dp4768
g19
(I1
I1
tp4769
sbag1
(g15
g3
Ntp4770
Rp4771
(dp4772
g19
(I1
I0
tp4773
sbag1
(g15
g3
Ntp4774
Rp4775
(dp4776
g19
(I1
I-1
tp4777
sbag1
(g15
g3
Ntp4778
Rp4779
(dp4780
g19
(I0
I-1
tp4781
sbag1
(g15
g3
Ntp4782
Rp4783
(dp4784
g19
(I-1
I-1
tp4785
sbag1
(g15
g3
Ntp4786
Rp4787
(dp4788
g19
(I-1
I0
tp4789
sbag1
(g15
g3
Ntp4790
Rp4791
(dp4792
g19
(I-2
I0
tp4793
sbag1
(g15
g3
Ntp4794
Rp4795
(dp4796
g19
(I-2
I1
tp4797
sbag1
(g15
g3
Ntp4798
Rp4799
(dp4800
g19
(I-1
I1
tp4801
sbasg65
I11
sg66
Nsg67
g4752
sg69
S'11010001001'
p4802
sg71
Nsg72
Nsbag1
(g2
g3
Ntp4803
Rp4804
(dp4805
g7
I4
sg8
S'HHPPPHPHPPH'
p4806
sg10
Nsg11
I0
sg12
Nsg13
(lp4807
g1
(g15
g3
Ntp4808
Rp4809
(dp4810
g19
g20
sbag1
(g15
g3
Ntp4811
Rp4812
(dp4813
g19
(I0
I1
tp4814
sbag1
(g15
g3
Ntp4815
Rp4816
(dp4817
g19
(I1
I1
tp4818
sbag1
(g15
g3
Ntp4819
Rp4820
(dp4821
g19
(I1
I0
tp4822
sbag1
(g15
g3
Ntp4823
Rp4824
(dp4825
g19
(I1
I-1
tp4826
sbag1
(g15
g3
Ntp4827
Rp4828
(dp4829
g19
(I0
I-1
tp4830
sbag1
(g15
g3
Ntp4831
Rp4832
(dp4833
g19
(I-1
I-1
tp4834
sbag1
(g15
g3
Ntp4835
Rp4836
(dp4837
g19
(I-1
I0
tp4838
sbag1
(g15
g3
Ntp4839
Rp4840
(dp4841
g19
(I-2
I0
tp4842
sbag1
(g15
g3
Ntp4843
Rp4844
(dp4845
g19
(I-2
I1
tp4846
sbag1
(g15
g3
Ntp4847
Rp4848
(dp4849
g19
(I-1
I1
tp4850
sbasg65
I11
sg66
Nsg67
g4752
sg69
S'11000101001'
p4851
sg71
Nsg72
Nsbag1
(g2
g3
Ntp4852
Rp4853
(dp4854
g7
I5
sg8
S'HHPHPHPHPPH'
p4855
sg10
Nsg11
I0
sg12
Nsg13
(lp4856
g1
(g15
g3
Ntp4857
Rp4858
(dp4859
g19
g20
sbag1
(g15
g3
Ntp4860
Rp4861
(dp4862
g19
(I0
I1
tp4863
sbag1
(g15
g3
Ntp4864
Rp4865
(dp4866
g19
(I1
I1
tp4867
sbag1
(g15
g3
Ntp4868
Rp4869
(dp4870
g19
(I1
I0
tp4871
sbag1
(g15
g3
Ntp4872
Rp4873
(dp4874
g19
(I1
I-1
tp4875
sbag1
(g15
g3
Ntp4876
Rp4877
(dp4878
g19
(I0
I-1
tp4879
sbag1
(g15
g3
Ntp4880
Rp4881
(dp4882
g19
(I-1
I-1
tp4883
sbag1
(g15
g3
Ntp4884
Rp4885
(dp4886
g19
(I-1
I0
tp4887
sbag1
(g15
g3
Ntp4888
Rp4889
(dp4890
g19
(I-2
I0
tp4891
sbag1
(g15
g3
Ntp4892
Rp4893
(dp4894
g19
(I-2
I1
tp4895
sbag1
(g15
g3
Ntp4896
Rp4897
(dp4898
g19
(I-1
I1
tp4899
sbasg65
I11
sg66
Nsg67
g4752
sg69
S'11010101001'
p4900
sg71
Nsg72
Nsbag1
(g2
g3
Ntp4901
Rp4902
(dp4903
g7
I4
sg8
S'HPPHPPHPPHP'
p4904
sg10
Nsg11
I0
sg12
Nsg13
(lp4905
g1
(g15
g3
Ntp4906
Rp4907
(dp4908
g19
g20
sbag1
(g15
g3
Ntp4909
Rp4910
(dp4911
g19
(I0
I1
tp4912
sbag1
(g15
g3
Ntp4913
Rp4914
(dp4915
g19
(I1
I1
tp4916
sbag1
(g15
g3
Ntp4917
Rp4918
(dp4919
g19
(I1
I0
tp4920
sbag1
(g15
g3
Ntp4921
Rp4922
(dp4923
g19
(I2
I0
tp4924
sbag1
(g15
g3
Ntp4925
Rp4926
(dp4927
g19
(I2
I-1
tp4928
sbag1
(g15
g3
Ntp4929
Rp4930
(dp4931
g19
(I1
I-1
tp4932
sbag1
(g15
g3
Ntp4933
Rp4934
(dp4935
g19
(I1
I-2
tp4936
sbag1
(g15
g3
Ntp4937
Rp4938
(dp4939
g19
(I0
I-2
tp4940
sbag1
(g15
g3
Ntp4941
Rp4942
(dp4943
g19
(I0
I-1
tp4944
sbag1
(g15
g3
Ntp4945
Rp4946
(dp4947
g19
(I-1
I-1
tp4948
sbasg65
I11
sg66
Nsg67
S'URDRDLDLUL'
p4949
sg69
S'10010010010'
p4950
sg71
Nsg72
Nsbag1
(g2
g3
Ntp4951
Rp4952
(dp4953
g7
I4
sg8
S'HHPHPPHPPHP'
p4954
sg10
Nsg11
I0
sg12
Nsg13
(lp4955
g1
(g15
g3
Ntp4956
Rp4957
(dp4958
g19
g20
sbag1
(g15
g3
Ntp4959
Rp4960
(dp4961
g19
(I0
I1
tp4962
sbag1
(g15
g3
Ntp4963
Rp4964
(dp4965
g19
(I1
I1
tp4966
sbag1
(g15
g3
Ntp4967
Rp4968
(dp4969
g19
(I1
I0
tp4970
sbag1
(g15
g3
Ntp4971
Rp4972
(dp4973
g19
(I2
I0
tp4974
sbag1
(g15
g3
Ntp4975
Rp4976
(dp4977
g19
(I2
I-1
tp4978
sbag1
(g15
g3
Ntp4979
Rp4980
(dp4981
g19
(I1
I-1
tp4982
sbag1
(g15
g3
Ntp4983
Rp4984
(dp4985
g19
(I1
I-2
tp4986
sbag1
(g15
g3
Ntp4987
Rp4988
(dp4989
g19
(I0
I-2
tp4990
sbag1
(g15
g3
Ntp4991
Rp4992
(dp4993
g19
(I0
I-1
tp4994
sbag1
(g15
g3
Ntp4995
Rp4996
(dp4997
g19
(I-1
I-1
tp4998
sbasg65
I11
sg66
Nsg67
g4949
sg69
S'11010010010'
p4999
sg71
Nsg72
Nsbag1
(g2
g3
Ntp5000
Rp5001
(dp5002
g7
I4
sg8
S'HPPHHPHPPHP'
p5003
sg10
Nsg11
I0
sg12
Nsg13
(lp5004
g1
(g15
g3
Ntp5005
Rp5006
(dp5007
g19
g20
sbag1
(g15
g3
Ntp5008
Rp5009
(dp5010
g19
(I0
I1
tp5011
sbag1
(g15
g3
Ntp5012
Rp5013
(dp5014
g19
(I1
I1
tp5015
sbag1
(g15
g3
Ntp5016
Rp5017
(dp5018
g19
(I1
I0
tp5019
sbag1
(g15
g3
Ntp5020
Rp5021
(dp5022
g19
(I2
I0
tp5023
sbag1
(g15
g3
Ntp5024
Rp5025
(dp5026
g19
(I2
I-1
tp5027
sbag1
(g15
g3
Ntp5028
Rp5029
(dp5030
g19
(I1
I-1
tp5031
sbag1
(g15
g3
Ntp5032
Rp5033
(dp5034
g19
(I1
I-2
tp5035
sbag1
(g15
g3
Ntp5036
Rp5037
(dp5038
g19
(I0
I-2
tp5039
sbag1
(g15
g3
Ntp5040
Rp5041
(dp5042
g19
(I0
I-1
tp5043
sbag1
(g15
g3
Ntp5044
Rp5045
(dp5046
g19
(I-1
I-1
tp5047
sbasg65
I11
sg66
Nsg67
g4949
sg69
S'10011010010'
p5048
sg71
Nsg72
Nsbag1
(g2
g3
Ntp5049
Rp5050
(dp5051
g7
I4
sg8
S'HPPHPPHPHHP'
p5052
sg10
Nsg11
I0
sg12
Nsg13
(lp5053
g1
(g15
g3
Ntp5054
Rp5055
(dp5056
g19
g20
sbag1
(g15
g3
Ntp5057
Rp5058
(dp5059
g19
(I0
I1
tp5060
sbag1
(g15
g3
Ntp5061
Rp5062
(dp5063
g19
(I1
I1
tp5064
sbag1
(g15
g3
Ntp5065
Rp5066
(dp5067
g19
(I1
I0
tp5068
sbag1
(g15
g3
Ntp5069
Rp5070
(dp5071
g19
(I2
I0
tp5072
sbag1
(g15
g3
Ntp5073
Rp5074
(dp5075
g19
(I2
I-1
tp5076
sbag1
(g15
g3
Ntp5077
Rp5078
(dp5079
g19
(I1
I-1
tp5080
sbag1
(g15
g3
Ntp5081
Rp5082
(dp5083
g19
(I1
I-2
tp5084
sbag1
(g15
g3
Ntp5085
Rp5086
(dp5087
g19
(I0
I-2
tp5088
sbag1
(g15
g3
Ntp5089
Rp5090
(dp5091
g19
(I0
I-1
tp5092
sbag1
(g15
g3
Ntp5093
Rp5094
(dp5095
g19
(I-1
I-1
tp5096
sbasg65
I11
sg66
Nsg67
g4949
sg69
S'10010010110'
p5097
sg71
Nsg72
Nsbag1
(g2
g3
Ntp5098
Rp5099
(dp5100
g7
I4
sg8
S'HPPHHPHPHHP'
p5101
sg10
Nsg11
I0
sg12
Nsg13
(lp5102
g1
(g15
g3
Ntp5103
Rp5104
(dp5105
g19
g20
sbag1
(g15
g3
Ntp5106
Rp5107
(dp5108
g19
(I0
I1
tp5109
sbag1
(g15
g3
Ntp5110
Rp5111
(dp5112
g19
(I1
I1
tp5113
sbag1
(g15
g3
Ntp5114
Rp5115
(dp5116
g19
(I1
I0
tp5117
sbag1
(g15
g3
Ntp5118
Rp5119
(dp5120
g19
(I2
I0
tp5121
sbag1
(g15
g3
Ntp5122
Rp5123
(dp5124
g19
(I2
I-1
tp5125
sbag1
(g15
g3
Ntp5126
Rp5127
(dp5128
g19
(I1
I-1
tp5129
sbag1
(g15
g3
Ntp5130
Rp5131
(dp5132
g19
(I1
I-2
tp5133
sbag1
(g15
g3
Ntp5134
Rp5135
(dp5136
g19
(I0
I-2
tp5137
sbag1
(g15
g3
Ntp5138
Rp5139
(dp5140
g19
(I0
I-1
tp5141
sbag1
(g15
g3
Ntp5142
Rp5143
(dp5144
g19
(I-1
I-1
tp5145
sbasg65
I11
sg66
Nsg67
g4949
sg69
S'10011010110'
p5146
sg71
Nsg72
Nsbag1
(g2
g3
Ntp5147
Rp5148
(dp5149
g7
I4
sg8
S'HPPHPPHPPHH'
p5150
sg10
Nsg11
I0
sg12
Nsg13
(lp5151
g1
(g15
g3
Ntp5152
Rp5153
(dp5154
g19
g20
sbag1
(g15
g3
Ntp5155
Rp5156
(dp5157
g19
(I0
I1
tp5158
sbag1
(g15
g3
Ntp5159
Rp5160
(dp5161
g19
(I1
I1
tp5162
sbag1
(g15
g3
Ntp5163
Rp5164
(dp5165
g19
(I1
I0
tp5166
sbag1
(g15
g3
Ntp5167
Rp5168
(dp5169
g19
(I2
I0
tp5170
sbag1
(g15
g3
Ntp5171
Rp5172
(dp5173
g19
(I2
I-1
tp5174
sbag1
(g15
g3
Ntp5175
Rp5176
(dp5177
g19
(I1
I-1
tp5178
sbag1
(g15
g3
Ntp5179
Rp5180
(dp5181
g19
(I1
I-2
tp5182
sbag1
(g15
g3
Ntp5183
Rp5184
(dp5185
g19
(I0
I-2
tp5186
sbag1
(g15
g3
Ntp5187
Rp5188
(dp5189
g19
(I0
I-1
tp5190
sbag1
(g15
g3
Ntp5191
Rp5192
(dp5193
g19
(I-1
I-1
tp5194
sbasg65
I11
sg66
Nsg67
g4949
sg69
S'10010010011'
p5195
sg71
Nsg72
Nsbag1
(g2
g3
Ntp5196
Rp5197
(dp5198
g7
I4
sg8
S'HPPHPPHPHHH'
p5199
sg10
Nsg11
I0
sg12
Nsg13
(lp5200
g1
(g15
g3
Ntp5201
Rp5202
(dp5203
g19
g20
sbag1
(g15
g3
Ntp5204
Rp5205
(dp5206
g19
(I0
I1
tp5207
sbag1
(g15
g3
Ntp5208
Rp5209
(dp5210
g19
(I1
I1
tp5211
sbag1
(g15
g3
Ntp5212
Rp5213
(dp5214
g19
(I1
I0
tp5215
sbag1
(g15
g3
Ntp5216
Rp5217
(dp5218
g19
(I2
I0
tp5219
sbag1
(g15
g3
Ntp5220
Rp5221
(dp5222
g19
(I2
I-1
tp5223
sbag1
(g15
g3
Ntp5224
Rp5225
(dp5226
g19
(I1
I-1
tp5227
sbag1
(g15
g3
Ntp5228
Rp5229
(dp5230
g19
(I1
I-2
tp5231
sbag1
(g15
g3
Ntp5232
Rp5233
(dp5234
g19
(I0
I-2
tp5235
sbag1
(g15
g3
Ntp5236
Rp5237
(dp5238
g19
(I0
I-1
tp5239
sbag1
(g15
g3
Ntp5240
Rp5241
(dp5242
g19
(I-1
I-1
tp5243
sbasg65
I11
sg66
Nsg67
g4949
sg69
S'10010010111'
p5244
sg71
Nsg72
Nsbag1
(g2
g3
Ntp5245
Rp5246
(dp5247
g7
I4
sg8
S'PHPHPPHPHPH'
p5248
sg10
Nsg11
I0
sg12
Nsg13
(lp5249
g1
(g15
g3
Ntp5250
Rp5251
(dp5252
g19
g20
sbag1
(g15
g3
Ntp5253
Rp5254
(dp5255
g19
(I0
I1
tp5256
sbag1
(g15
g3
Ntp5257
Rp5258
(dp5259
g19
(I1
I1
tp5260
sbag1
(g15
g3
Ntp5261
Rp5262
(dp5263
g19
(I1
I2
tp5264
sbag1
(g15
g3
Ntp5265
Rp5266
(dp5267
g19
(I2
I2
tp5268
sbag1
(g15
g3
Ntp5269
Rp5270
(dp5271
g19
(I2
I3
tp5272
sbag1
(g15
g3
Ntp5273
Rp5274
(dp5275
g19
(I1
I3
tp5276
sbag1
(g15
g3
Ntp5277
Rp5278
(dp5279
g19
(I0
I3
tp5280
sbag1
(g15
g3
Ntp5281
Rp5282
(dp5283
g19
(I0
I2
tp5284
sbag1
(g15
g3
Ntp5285
Rp5286
(dp5287
g19
(I-1
I2
tp5288
sbag1
(g15
g3
Ntp5289
Rp5290
(dp5291
g19
(I-1
I1
tp5292
sbasg65
I11
sg66
Nsg67
S'URURULLDLD'
p5293
sg69
S'01010010101'
p5294
sg71
Nsg72
Nsbag1
(g2
g3
Ntp5295
Rp5296
(dp5297
g7
I4
sg8
S'HHPHPPHPHPH'
p5298
sg10
Nsg11
I0
sg12
Nsg13
(lp5299
g1
(g15
g3
Ntp5300
Rp5301
(dp5302
g19
g20
sbag1
(g15
g3
Ntp5303
Rp5304
(dp5305
g19
(I0
I1
tp5306
sbag1
(g15
g3
Ntp5307
Rp5308
(dp5309
g19
(I1
I1
tp5310
sbag1
(g15
g3
Ntp5311
Rp5312
(dp5313
g19
(I1
I2
tp5314
sbag1
(g15
g3
Ntp5315
Rp5316
(dp5317
g19
(I2
I2
tp5318
sbag1
(g15
g3
Ntp5319
Rp5320
(dp5321
g19
(I2
I3
tp5322
sbag1
(g15
g3
Ntp5323
Rp5324
(dp5325
g19
(I1
I3
tp5326
sbag1
(g15
g3
Ntp5327
Rp5328
(dp5329
g19
(I0
I3
tp5330
sbag1
(g15
g3
Ntp5331
Rp5332
(dp5333
g19
(I0
I2
tp5334
sbag1
(g15
g3
Ntp5335
Rp5336
(dp5337
g19
(I-1
I2
tp5338
sbag1
(g15
g3
Ntp5339
Rp5340
(dp5341
g19
(I-1
I1
tp5342
sbasg65
I11
sg66
Nsg67
g5293
sg69
S'11010010101'
p5343
sg71
Nsg72
Nsbag1
(g2
g3
Ntp5344
Rp5345
(dp5346
g7
I4
sg8
S'PHHHPPHPHPH'
p5347
sg10
Nsg11
I0
sg12
Nsg13
(lp5348
g1
(g15
g3
Ntp5349
Rp5350
(dp5351
g19
g20
sbag1
(g15
g3
Ntp5352
Rp5353
(dp5354
g19
(I0
I1
tp5355
sbag1
(g15
g3
Ntp5356
Rp5357
(dp5358
g19
(I1
I1
tp5359
sbag1
(g15
g3
Ntp5360
Rp5361
(dp5362
g19
(I1
I2
tp5363
sbag1
(g15
g3
Ntp5364
Rp5365
(dp5366
g19
(I2
I2
tp5367
sbag1
(g15
g3
Ntp5368
Rp5369
(dp5370
g19
(I2
I3
tp5371
sbag1
(g15
g3
Ntp5372
Rp5373
(dp5374
g19
(I1
I3
tp5375
sbag1
(g15
g3
Ntp5376
Rp5377
(dp5378
g19
(I0
I3
tp5379
sbag1
(g15
g3
Ntp5380
Rp5381
(dp5382
g19
(I0
I2
tp5383
sbag1
(g15
g3
Ntp5384
Rp5385
(dp5386
g19
(I-1
I2
tp5387
sbag1
(g15
g3
Ntp5388
Rp5389
(dp5390
g19
(I-1
I1
tp5391
sbasg65
I11
sg66
Nsg67
g5293
sg69
S'01110010101'
p5392
sg71
Nsg72
Nsbag1
(g2
g3
Ntp5393
Rp5394
(dp5395
g7
I4
sg8
S'HHHHPPHPHPH'
p5396
sg10
Nsg11
I0
sg12
Nsg13
(lp5397
g1
(g15
g3
Ntp5398
Rp5399
(dp5400
g19
g20
sbag1
(g15
g3
Ntp5401
Rp5402
(dp5403
g19
(I0
I1
tp5404
sbag1
(g15
g3
Ntp5405
Rp5406
(dp5407
g19
(I1
I1
tp5408
sbag1
(g15
g3
Ntp5409
Rp5410
(dp5411
g19
(I1
I2
tp5412
sbag1
(g15
g3
Ntp5413
Rp5414
(dp5415
g19
(I2
I2
tp5416
sbag1
(g15
g3
Ntp5417
Rp5418
(dp5419
g19
(I2
I3
tp5420
sbag1
(g15
g3
Ntp5421
Rp5422
(dp5423
g19
(I1
I3
tp5424
sbag1
(g15
g3
Ntp5425
Rp5426
(dp5427
g19
(I0
I3
tp5428
sbag1
(g15
g3
Ntp5429
Rp5430
(dp5431
g19
(I0
I2
tp5432
sbag1
(g15
g3
Ntp5433
Rp5434
(dp5435
g19
(I-1
I2
tp5436
sbag1
(g15
g3
Ntp5437
Rp5438
(dp5439
g19
(I-1
I1
tp5440
sbasg65
I11
sg66
Nsg67
g5293
sg69
S'11110010101'
p5441
sg71
Nsg72
Nsbag1
(g2
g3
Ntp5442
Rp5443
(dp5444
g7
I4
sg8
S'PHPHHPHPHPH'
p5445
sg10
Nsg11
I0
sg12
Nsg13
(lp5446
g1
(g15
g3
Ntp5447
Rp5448
(dp5449
g19
g20
sbag1
(g15
g3
Ntp5450
Rp5451
(dp5452
g19
(I0
I1
tp5453
sbag1
(g15
g3
Ntp5454
Rp5455
(dp5456
g19
(I1
I1
tp5457
sbag1
(g15
g3
Ntp5458
Rp5459
(dp5460
g19
(I1
I2
tp5461
sbag1
(g15
g3
Ntp5462
Rp5463
(dp5464
g19
(I2
I2
tp5465
sbag1
(g15
g3
Ntp5466
Rp5467
(dp5468
g19
(I2
I3
tp5469
sbag1
(g15
g3
Ntp5470
Rp5471
(dp5472
g19
(I1
I3
tp5473
sbag1
(g15
g3
Ntp5474
Rp5475
(dp5476
g19
(I0
I3
tp5477
sbag1
(g15
g3
Ntp5478
Rp5479
(dp5480
g19
(I0
I2
tp5481
sbag1
(g15
g3
Ntp5482
Rp5483
(dp5484
g19
(I-1
I2
tp5485
sbag1
(g15
g3
Ntp5486
Rp5487
(dp5488
g19
(I-1
I1
tp5489
sbasg65
I11
sg66
Nsg67
g5293
sg69
S'01011010101'
p5490
sg71
Nsg72
Nsbag1
(g2
g3
Ntp5491
Rp5492
(dp5493
g7
I4
sg8
S'HHPHHPHPHPH'
p5494
sg10
Nsg11
I0
sg12
Nsg13
(lp5495
g1
(g15
g3
Ntp5496
Rp5497
(dp5498
g19
g20
sbag1
(g15
g3
Ntp5499
Rp5500
(dp5501
g19
(I0
I1
tp5502
sbag1
(g15
g3
Ntp5503
Rp5504
(dp5505
g19
(I1
I1
tp5506
sbag1
(g15
g3
Ntp5507
Rp5508
(dp5509
g19
(I1
I2
tp5510
sbag1
(g15
g3
Ntp5511
Rp5512
(dp5513
g19
(I2
I2
tp5514
sbag1
(g15
g3
Ntp5515
Rp5516
(dp5517
g19
(I2
I3
tp5518
sbag1
(g15
g3
Ntp5519
Rp5520
(dp5521
g19
(I1
I3
tp5522
sbag1
(g15
g3
Ntp5523
Rp5524
(dp5525
g19
(I0
I3
tp5526
sbag1
(g15
g3
Ntp5527
Rp5528
(dp5529
g19
(I0
I2
tp5530
sbag1
(g15
g3
Ntp5531
Rp5532
(dp5533
g19
(I-1
I2
tp5534
sbag1
(g15
g3
Ntp5535
Rp5536
(dp5537
g19
(I-1
I1
tp5538
sbasg65
I11
sg66
Nsg67
g5293
sg69
S'11011010101'
p5539
sg71
Nsg72
Nsbag1
(g2
g3
Ntp5540
Rp5541
(dp5542
g7
I4
sg8
S'PHHHHPHPHPH'
p5543
sg10
Nsg11
I0
sg12
Nsg13
(lp5544
g1
(g15
g3
Ntp5545
Rp5546
(dp5547
g19
g20
sbag1
(g15
g3
Ntp5548
Rp5549
(dp5550
g19
(I0
I1
tp5551
sbag1
(g15
g3
Ntp5552
Rp5553
(dp5554
g19
(I1
I1
tp5555
sbag1
(g15
g3
Ntp5556
Rp5557
(dp5558
g19
(I1
I2
tp5559
sbag1
(g15
g3
Ntp5560
Rp5561
(dp5562
g19
(I2
I2
tp5563
sbag1
(g15
g3
Ntp5564
Rp5565
(dp5566
g19
(I2
I3
tp5567
sbag1
(g15
g3
Ntp5568
Rp5569
(dp5570
g19
(I1
I3
tp5571
sbag1
(g15
g3
Ntp5572
Rp5573
(dp5574
g19
(I0
I3
tp5575
sbag1
(g15
g3
Ntp5576
Rp5577
(dp5578
g19
(I0
I2
tp5579
sbag1
(g15
g3
Ntp5580
Rp5581
(dp5582
g19
(I-1
I2
tp5583
sbag1
(g15
g3
Ntp5584
Rp5585
(dp5586
g19
(I-1
I1
tp5587
sbasg65
I11
sg66
Nsg67
g5293
sg69
S'01111010101'
p5588
sg71
Nsg72
Nsbag1
(g2
g3
Ntp5589
Rp5590
(dp5591
g7
I4
sg8
S'HHHHHPHPHPH'
p5592
sg10
Nsg11
I0
sg12
Nsg13
(lp5593
g1
(g15
g3
Ntp5594
Rp5595
(dp5596
g19
g20
sbag1
(g15
g3
Ntp5597
Rp5598
(dp5599
g19
(I0
I1
tp5600
sbag1
(g15
g3
Ntp5601
Rp5602
(dp5603
g19
(I1
I1
tp5604
sbag1
(g15
g3
Ntp5605
Rp5606
(dp5607
g19
(I1
I2
tp5608
sbag1
(g15
g3
Ntp5609
Rp5610
(dp5611
g19
(I2
I2
tp5612
sbag1
(g15
g3
Ntp5613
Rp5614
(dp5615
g19
(I2
I3
tp5616
sbag1
(g15
g3
Ntp5617
Rp5618
(dp5619
g19
(I1
I3
tp5620
sbag1
(g15
g3
Ntp5621
Rp5622
(dp5623
g19
(I0
I3
tp5624
sbag1
(g15
g3
Ntp5625
Rp5626
(dp5627
g19
(I0
I2
tp5628
sbag1
(g15
g3
Ntp5629
Rp5630
(dp5631
g19
(I-1
I2
tp5632
sbag1
(g15
g3
Ntp5633
Rp5634
(dp5635
g19
(I-1
I1
tp5636
sbasg65
I11
sg66
Nsg67
g5293
sg69
S'11111010101'
p5637
sg71
Nsg72
Nsbag1
(g2
g3
Ntp5638
Rp5639
(dp5640
g7
I5
sg8
S'HHHHHPPPHHPH'
p5641
sg10
Nsg11
I0
sg12
Nsg13
(lp5642
g1
(g15
g3
Ntp5643
Rp5644
(dp5645
g19
g20
sbag1
(g15
g3
Ntp5646
Rp5647
(dp5648
g19
(I0
I1
tp5649
sbag1
(g15
g3
Ntp5650
Rp5651
(dp5652
g19
(I1
I1
tp5653
sbag1
(g15
g3
Ntp5654
Rp5655
(dp5656
g19
(I1
I2
tp5657
sbag1
(g15
g3
Ntp5658
Rp5659
(dp5660
g19
(I0
I2
tp5661
sbag1
(g15
g3
Ntp5662
Rp5663
(dp5664
g19
(I0
I3
tp5665
sbag1
(g15
g3
Ntp5666
Rp5667
(dp5668
g19
(I1
I3
tp5669
sbag1
(g15
g3
Ntp5670
Rp5671
(dp5672
g19
(I2
I3
tp5673
sbag1
(g15
g3
Ntp5674
Rp5675
(dp5676
g19
(I2
I2
tp5677
sbag1
(g15
g3
Ntp5678
Rp5679
(dp5680
g19
(I2
I1
tp5681
sbag1
(g15
g3
Ntp5682
Rp5683
(dp5684
g19
(I2
I0
tp5685
sbag1
(g15
g3
Ntp5686
Rp5687
(dp5688
g19
(I1
I0
tp5689
sbasg65
I12
sg66
Nsg67
S'URULURRDDDL'
p5690
sg69
S'111110001101'
p5691
sg71
Nsg72
Nsbag1
(g2
g3
Ntp5692
Rp5693
(dp5694
g7
I6
sg8
S'HHHHHPHPHHPH'
p5695
sg10
Nsg11
I0
sg12
Nsg13
(lp5696
g1
(g15
g3
Ntp5697
Rp5698
(dp5699
g19
g20
sbag1
(g15
g3
Ntp5700
Rp5701
(dp5702
g19
(I0
I1
tp5703
sbag1
(g15
g3
Ntp5704
Rp5705
(dp5706
g19
(I1
I1
tp5707
sbag1
(g15
g3
Ntp5708
Rp5709
(dp5710
g19
(I1
I2
tp5711
sbag1
(g15
g3
Ntp5712
Rp5713
(dp5714
g19
(I0
I2
tp5715
sbag1
(g15
g3
Ntp5716
Rp5717
(dp5718
g19
(I0
I3
tp5719
sbag1
(g15
g3
Ntp5720
Rp5721
(dp5722
g19
(I1
I3
tp5723
sbag1
(g15
g3
Ntp5724
Rp5725
(dp5726
g19
(I2
I3
tp5727
sbag1
(g15
g3
Ntp5728
Rp5729
(dp5730
g19
(I2
I2
tp5731
sbag1
(g15
g3
Ntp5732
Rp5733
(dp5734
g19
(I2
I1
tp5735
sbag1
(g15
g3
Ntp5736
Rp5737
(dp5738
g19
(I2
I0
tp5739
sbag1
(g15
g3
Ntp5740
Rp5741
(dp5742
g19
(I1
I0
tp5743
sbasg65
I12
sg66
Nsg67
g5690
sg69
S'111110101101'
p5744
sg71
Nsg72
Nsbag1
(g2
g3
Ntp5745
Rp5746
(dp5747
g7
I6
sg8
S'HHHHHHHPHHPH'
p5748
sg10
Nsg11
I0
sg12
Nsg13
(lp5749
g1
(g15
g3
Ntp5750
Rp5751
(dp5752
g19
g20
sbag1
(g15
g3
Ntp5753
Rp5754
(dp5755
g19
(I0
I1
tp5756
sbag1
(g15
g3
Ntp5757
Rp5758
(dp5759
g19
(I1
I1
tp5760
sbag1
(g15
g3
Ntp5761
Rp5762
(dp5763
g19
(I1
I2
tp5764
sbag1
(g15
g3
Ntp5765
Rp5766
(dp5767
g19
(I0
I2
tp5768
sbag1
(g15
g3
Ntp5769
Rp5770
(dp5771
g19
(I0
I3
tp5772
sbag1
(g15
g3
Ntp5773
Rp5774
(dp5775
g19
(I1
I3
tp5776
sbag1
(g15
g3
Ntp5777
Rp5778
(dp5779
g19
(I2
I3
tp5780
sbag1
(g15
g3
Ntp5781
Rp5782
(dp5783
g19
(I2
I2
tp5784
sbag1
(g15
g3
Ntp5785
Rp5786
(dp5787
g19
(I2
I1
tp5788
sbag1
(g15
g3
Ntp5789
Rp5790
(dp5791
g19
(I2
I0
tp5792
sbag1
(g15
g3
Ntp5793
Rp5794
(dp5795
g19
(I1
I0
tp5796
sbasg65
I12
sg66
Nsg67
g5690
sg69
S'111111101101'
p5797
sg71
Nsg72
Nsbag1
(g2
g3
Ntp5798
Rp5799
(dp5800
g7
I5
sg8
S'HPHPHPPHHPPH'
p5801
sg10
Nsg11
I0
sg12
Nsg13
(lp5802
g1
(g15
g3
Ntp5803
Rp5804
(dp5805
g19
g20
sbag1
(g15
g3
Ntp5806
Rp5807
(dp5808
g19
(I0
I1
tp5809
sbag1
(g15
g3
Ntp5810
Rp5811
(dp5812
g19
(I1
I1
tp5813
sbag1
(g15
g3
Ntp5814
Rp5815
(dp5816
g19
(I1
I2
tp5817
sbag1
(g15
g3
Ntp5818
Rp5819
(dp5820
g19
(I2
I2
tp5821
sbag1
(g15
g3
Ntp5822
Rp5823
(dp5824
g19
(I3
I2
tp5825
sbag1
(g15
g3
Ntp5826
Rp5827
(dp5828
g19
(I3
I1
tp5829
sbag1
(g15
g3
Ntp5830
Rp5831
(dp5832
g19
(I2
I1
tp5833
sbag1
(g15
g3
Ntp5834
Rp5835
(dp5836
g19
(I2
I0
tp5837
sbag1
(g15
g3
Ntp5838
Rp5839
(dp5840
g19
(I2
I-1
tp5841
sbag1
(g15
g3
Ntp5842
Rp5843
(dp5844
g19
(I1
I-1
tp5845
sbag1
(g15
g3
Ntp5846
Rp5847
(dp5848
g19
(I1
I0
tp5849
sbasg65
I12
sg66
Nsg67
S'URURRDLDDLU'
p5850
sg69
S'101010011001'
p5851
sg71
Nsg72
Nsbag1
(g2
g3
Ntp5852
Rp5853
(dp5854
g7
I5
sg8
S'HPHPHPHHHPPH'
p5855
sg10
Nsg11
I0
sg12
Nsg13
(lp5856
g1
(g15
g3
Ntp5857
Rp5858
(dp5859
g19
g20
sbag1
(g15
g3
Ntp5860
Rp5861
(dp5862
g19
(I0
I1
tp5863
sbag1
(g15
g3
Ntp5864
Rp5865
(dp5866
g19
(I1
I1
tp5867
sbag1
(g15
g3
Ntp5868
Rp5869
(dp5870
g19
(I1
I2
tp5871
sbag1
(g15
g3
Ntp5872
Rp5873
(dp5874
g19
(I2
I2
tp5875
sbag1
(g15
g3
Ntp5876
Rp5877
(dp5878
g19
(I3
I2
tp5879
sbag1
(g15
g3
Ntp5880
Rp5881
(dp5882
g19
(I3
I1
tp5883
sbag1
(g15
g3
Ntp5884
Rp5885
(dp5886
g19
(I2
I1
tp5887
sbag1
(g15
g3
Ntp5888
Rp5889
(dp5890
g19
(I2
I0
tp5891
sbag1
(g15
g3
Ntp5892
Rp5893
(dp5894
g19
(I2
I-1
tp5895
sbag1
(g15
g3
Ntp5896
Rp5897
(dp5898
g19
(I1
I-1
tp5899
sbag1
(g15
g3
Ntp5900
Rp5901
(dp5902
g19
(I1
I0
tp5903
sbasg65
I12
sg66
Nsg67
g5850
sg69
S'101010111001'
p5904
sg71
Nsg72
Nsbag1
(g2
g3
Ntp5905
Rp5906
(dp5907
g7
I3
sg8
S'PHPPHPPHH'
p5908
sg10
Nsg11
I0
sg12
Nsg13
(lp5909
g1
(g15
g3
Ntp5910
Rp5911
(dp5912
g19
g20
sbag1
(g15
g3
Ntp5913
Rp5914
(dp5915
g19
(I0
I1
tp5916
sbag1
(g15
g3
Ntp5917
Rp5918
(dp5919
g19
(I1
I1
tp5920
sbag1
(g15
g3
Ntp5921
Rp5922
(dp5923
g19
(I1
I2
tp5924
sbag1
(g15
g3
Ntp5925
Rp5926
(dp5927
g19
(I0
I2
tp5928
sbag1
(g15
g3
Ntp5929
Rp5930
(dp5931
g19
(I0
I3
tp5932
sbag1
(g15
g3
Ntp5933
Rp5934
(dp5935
g19
(I-1
I3
tp5936
sbag1
(g15
g3
Ntp5937
Rp5938
(dp5939
g19
(I-1
I2
tp5940
sbag1
(g15
g3
Ntp5941
Rp5942
(dp5943
g19
(I-1
I1
tp5944
sbasg65
I9
sg66
Nsg67
S'URULULDD'
p5945
sg69
S'010010011'
p5946
sg71
Nsg72
Nsbag1
(g2
g3
Ntp5947
Rp5948
(dp5949
g7
I3
sg8
S'PHPPHPHHH'
p5950
sg10
Nsg11
I0
sg12
Nsg13
(lp5951
g1
(g15
g3
Ntp5952
Rp5953
(dp5954
g19
g20
sbag1
(g15
g3
Ntp5955
Rp5956
(dp5957
g19
(I0
I1
tp5958
sbag1
(g15
g3
Ntp5959
Rp5960
(dp5961
g19
(I1
I1
tp5962
sbag1
(g15
g3
Ntp5963
Rp5964
(dp5965
g19
(I1
I2
tp5966
sbag1
(g15
g3
Ntp5967
Rp5968
(dp5969
g19
(I0
I2
tp5970
sbag1
(g15
g3
Ntp5971
Rp5972
(dp5973
g19
(I0
I3
tp5974
sbag1
(g15
g3
Ntp5975
Rp5976
(dp5977
g19
(I-1
I3
tp5978
sbag1
(g15
g3
Ntp5979
Rp5980
(dp5981
g19
(I-1
I2
tp5982
sbag1
(g15
g3
Ntp5983
Rp5984
(dp5985
g19
(I-1
I1
tp5986
sbasg65
I9
sg66
Nsg67
g5945
sg69
S'010010111'
p5987
sg71
Nsg72
Nsbag1
(g2
g3
Ntp5988
Rp5989
(dp5990
g7
I3
sg8
S'HHPPPPPHPPHP'
p5991
sg10
Nsg11
I0
sg12
Nsg13
(lp5992
g1
(g15
g3
Ntp5993
Rp5994
(dp5995
g19
g20
sbag1
(g15
g3
Ntp5996
Rp5997
(dp5998
g19
(I0
I1
tp5999
sbag1
(g15
g3
Ntp6000
Rp6001
(dp6002
g19
(I1
I1
tp6003
sbag1
(g15
g3
Ntp6004
Rp6005
(dp6006
g19
(I1
I0
tp6007
sbag1
(g15
g3
Ntp6008
Rp6009
(dp6010
g19
(I1
I-1
tp6011
sbag1
(g15
g3
Ntp6012
Rp6013
(dp6014
g19
(I0
I-1
tp6015
sbag1
(g15
g3
Ntp6016
Rp6017
(dp6018
g19
(I-1
I-1
tp6019
sbag1
(g15
g3
Ntp6020
Rp6021
(dp6022
g19
(I-1
I0
tp6023
sbag1
(g15
g3
Ntp6024
Rp6025
(dp6026
g19
(I-2
I0
tp6027
sbag1
(g15
g3
Ntp6028
Rp6029
(dp6030
g19
(I-2
I1
tp6031
sbag1
(g15
g3
Ntp6032
Rp6033
(dp6034
g19
(I-1
I1
tp6035
sbag1
(g15
g3
Ntp6036
Rp6037
(dp6038
g19
(I-1
I2
tp6039
sbasg65
I12
sg66
Nsg67
S'URDDLLULURU'
p6040
sg69
S'110000010010'
p6041
sg71
Nsg72
Nsbag1
(g2
g3
Ntp6042
Rp6043
(dp6044
g7
I4
sg8
S'HHPHPPPHPPHP'
p6045
sg10
Nsg11
I0
sg12
Nsg13
(lp6046
g1
(g15
g3
Ntp6047
Rp6048
(dp6049
g19
g20
sbag1
(g15
g3
Ntp6050
Rp6051
(dp6052
g19
(I0
I1
tp6053
sbag1
(g15
g3
Ntp6054
Rp6055
(dp6056
g19
(I1
I1
tp6057
sbag1
(g15
g3
Ntp6058
Rp6059
(dp6060
g19
(I1
I0
tp6061
sbag1
(g15
g3
Ntp6062
Rp6063
(dp6064
g19
(I1
I-1
tp6065
sbag1
(g15
g3
Ntp6066
Rp6067
(dp6068
g19
(I0
I-1
tp6069
sbag1
(g15
g3
Ntp6070
Rp6071
(dp6072
g19
(I-1
I-1
tp6073
sbag1
(g15
g3
Ntp6074
Rp6075
(dp6076
g19
(I-1
I0
tp6077
sbag1
(g15
g3
Ntp6078
Rp6079
(dp6080
g19
(I-2
I0
tp6081
sbag1
(g15
g3
Ntp6082
Rp6083
(dp6084
g19
(I-2
I1
tp6085
sbag1
(g15
g3
Ntp6086
Rp6087
(dp6088
g19
(I-1
I1
tp6089
sbag1
(g15
g3
Ntp6090
Rp6091
(dp6092
g19
(I-1
I2
tp6093
sbasg65
I12
sg66
Nsg67
g6040
sg69
S'110100010010'
p6094
sg71
Nsg72
Nsbag1
(g2
g3
Ntp6095
Rp6096
(dp6097
g7
I4
sg8
S'HHPPPHPHPPHP'
p6098
sg10
Nsg11
I0
sg12
Nsg13
(lp6099
g1
(g15
g3
Ntp6100
Rp6101
(dp6102
g19
g20
sbag1
(g15
g3
Ntp6103
Rp6104
(dp6105
g19
(I0
I1
tp6106
sbag1
(g15
g3
Ntp6107
Rp6108
(dp6109
g19
(I1
I1
tp6110
sbag1
(g15
g3
Ntp6111
Rp6112
(dp6113
g19
(I1
I0
tp6114
sbag1
(g15
g3
Ntp6115
Rp6116
(dp6117
g19
(I1
I-1
tp6118
sbag1
(g15
g3
Ntp6119
Rp6120
(dp6121
g19
(I0
I-1
tp6122
sbag1
(g15
g3
Ntp6123
Rp6124
(dp6125
g19
(I-1
I-1
tp6126
sbag1
(g15
g3
Ntp6127
Rp6128
(dp6129
g19
(I-1
I0
tp6130
sbag1
(g15
g3
Ntp6131
Rp6132
(dp6133
g19
(I-2
I0
tp6134
sbag1
(g15
g3
Ntp6135
Rp6136
(dp6137
g19
(I-2
I1
tp6138
sbag1
(g15
g3
Ntp6139
Rp6140
(dp6141
g19
(I-1
I1
tp6142
sbag1
(g15
g3
Ntp6143
Rp6144
(dp6145
g19
(I-1
I2
tp6146
sbasg65
I12
sg66
Nsg67
g6040
sg69
S'110001010010'
p6147
sg71
Nsg72
Nsbag1
(g2
g3
Ntp6148
Rp6149
(dp6150
g7
I5
sg8
S'HHPHPHPHPPHP'
p6151
sg10
Nsg11
I0
sg12
Nsg13
(lp6152
g1
(g15
g3
Ntp6153
Rp6154
(dp6155
g19
g20
sbag1
(g15
g3
Ntp6156
Rp6157
(dp6158
g19
(I0
I1
tp6159
sbag1
(g15
g3
Ntp6160
Rp6161
(dp6162
g19
(I1
I1
tp6163
sbag1
(g15
g3
Ntp6164
Rp6165
(dp6166
g19
(I1
I0
tp6167
sbag1
(g15
g3
Ntp6168
Rp6169
(dp6170
g19
(I1
I-1
tp6171
sbag1
(g15
g3
Ntp6172
Rp6173
(dp6174
g19
(I0
I-1
tp6175
sbag1
(g15
g3
Ntp6176
Rp6177
(dp6178
g19
(I-1
I-1
tp6179
sbag1
(g15
g3
Ntp6180
Rp6181
(dp6182
g19
(I-1
I0
tp6183
sbag1
(g15
g3
Ntp6184
Rp6185
(dp6186
g19
(I-2
I0
tp6187
sbag1
(g15
g3
Ntp6188
Rp6189
(dp6190
g19
(I-2
I1
tp6191
sbag1
(g15
g3
Ntp6192
Rp6193
(dp6194
g19
(I-1
I1
tp6195
sbag1
(g15
g3
Ntp6196
Rp6197
(dp6198
g19
(I-1
I2
tp6199
sbasg65
I12
sg66
Nsg67
g6040
sg69
S'110101010010'
p6200
sg71
Nsg72
Nsbag1
(g2
g3
Ntp6201
Rp6202
(dp6203
g7
I5
sg8
S'HHPHPHPHPHHP'
p6204
sg10
Nsg11
I0
sg12
Nsg13
(lp6205
g1
(g15
g3
Ntp6206
Rp6207
(dp6208
g19
g20
sbag1
(g15
g3
Ntp6209
Rp6210
(dp6211
g19
(I0
I1
tp6212
sbag1
(g15
g3
Ntp6213
Rp6214
(dp6215
g19
(I1
I1
tp6216
sbag1
(g15
g3
Ntp6217
Rp6218
(dp6219
g19
(I1
I0
tp6220
sbag1
(g15
g3
Ntp6221
Rp6222
(dp6223
g19
(I1
I-1
tp6224
sbag1
(g15
g3
Ntp6225
Rp6226
(dp6227
g19
(I0
I-1
tp6228
sbag1
(g15
g3
Ntp6229
Rp6230
(dp6231
g19
(I-1
I-1
tp6232
sbag1
(g15
g3
Ntp6233
Rp6234
(dp6235
g19
(I-1
I0
tp6236
sbag1
(g15
g3
Ntp6237
Rp6238
(dp6239
g19
(I-2
I0
tp6240
sbag1
(g15
g3
Ntp6241
Rp6242
(dp6243
g19
(I-2
I1
tp6244
sbag1
(g15
g3
Ntp6245
Rp6246
(dp6247
g19
(I-1
I1
tp6248
sbag1
(g15
g3
Ntp6249
Rp6250
(dp6251
g19
(I-1
I2
tp6252
sbasg65
I12
sg66
Nsg67
g6040
sg69
S'110101010110'
p6253
sg71
Nsg72
Nsbag1
(g2
g3
Ntp6254
Rp6255
(dp6256
g7
I4
sg8
S'PHPHPPHHPPHP'
p6257
sg10
Nsg11
I0
sg12
Nsg13
(lp6258
g1
(g15
g3
Ntp6259
Rp6260
(dp6261
g19
g20
sbag1
(g15
g3
Ntp6262
Rp6263
(dp6264
g19
(I0
I1
tp6265
sbag1
(g15
g3
Ntp6266
Rp6267
(dp6268
g19
(I1
I1
tp6269
sbag1
(g15
g3
Ntp6270
Rp6271
(dp6272
g19
(I1
I2
tp6273
sbag1
(g15
g3
Ntp6274
Rp6275
(dp6276
g19
(I1
I3
tp6277
sbag1
(g15
g3
Ntp6278
Rp6279
(dp6280
g19
(I0
I3
tp6281
sbag1
(g15
g3
Ntp6282
Rp6283
(dp6284
g19
(I0
I2
tp6285
sbag1
(g15
g3
Ntp6286
Rp6287
(dp6288
g19
(I-1
I2
tp6289
sbag1
(g15
g3
Ntp6290
Rp6291
(dp6292
g19
(I-2
I2
tp6293
sbag1
(g15
g3
Ntp6294
Rp6295
(dp6296
g19
(I-2
I1
tp6297
sbag1
(g15
g3
Ntp6298
Rp6299
(dp6300
g19
(I-1
I1
tp6301
sbag1
(g15
g3
Ntp6302
Rp6303
(dp6304
g19
(I-1
I0
tp6305
sbasg65
I12
sg66
Nsg67
S'URUULDLLDRD'
p6306
sg69
S'010100110010'
p6307
sg71
Nsg72
Nsbag1
(g2
g3
Ntp6308
Rp6309
(dp6310
g7
I4
sg8
S'PHPHPPHHPPHH'
p6311
sg10
Nsg11
I0
sg12
Nsg13
(lp6312
g1
(g15
g3
Ntp6313
Rp6314
(dp6315
g19
g20
sbag1
(g15
g3
Ntp6316
Rp6317
(dp6318
g19
(I0
I1
tp6319
sbag1
(g15
g3
Ntp6320
Rp6321
(dp6322
g19
(I1
I1
tp6323
sbag1
(g15
g3
Ntp6324
Rp6325
(dp6326
g19
(I1
I2
tp6327
sbag1
(g15
g3
Ntp6328
Rp6329
(dp6330
g19
(I1
I3
tp6331
sbag1
(g15
g3
Ntp6332
Rp6333
(dp6334
g19
(I0
I3
tp6335
sbag1
(g15
g3
Ntp6336
Rp6337
(dp6338
g19
(I0
I2
tp6339
sbag1
(g15
g3
Ntp6340
Rp6341
(dp6342
g19
(I-1
I2
tp6343
sbag1
(g15
g3
Ntp6344
Rp6345
(dp6346
g19
(I-2
I2
tp6347
sbag1
(g15
g3
Ntp6348
Rp6349
(dp6350
g19
(I-2
I1
tp6351
sbag1
(g15
g3
Ntp6352
Rp6353
(dp6354
g19
(I-1
I1
tp6355
sbag1
(g15
g3
Ntp6356
Rp6357
(dp6358
g19
(I-1
I0
tp6359
sbasg65
I12
sg66
Nsg67
g6306
sg69
S'010100110011'
p6360
sg71
Nsg72
Nsbag1
(g2
g3
Ntp6361
Rp6362
(dp6363
g7
I5
sg8
S'HHPPHPHPHPPH'
p6364
sg10
Nsg11
I0
sg12
Nsg13
(lp6365
g1
(g15
g3
Ntp6366
Rp6367
(dp6368
g19
g20
sbag1
(g15
g3
Ntp6369
Rp6370
(dp6371
g19
(I0
I1
tp6372
sbag1
(g15
g3
Ntp6373
Rp6374
(dp6375
g19
(I1
I1
tp6376
sbag1
(g15
g3
Ntp6377
Rp6378
(dp6379
g19
(I1
I2
tp6380
sbag1
(g15
g3
Ntp6381
Rp6382
(dp6383
g19
(I0
I2
tp6384
sbag1
(g15
g3
Ntp6385
Rp6386
(dp6387
g19
(I-1
I2
tp6388
sbag1
(g15
g3
Ntp6389
Rp6390
(dp6391
g19
(I-1
I1
tp6392
sbag1
(g15
g3
Ntp6393
Rp6394
(dp6395
g19
(I-2
I1
tp6396
sbag1
(g15
g3
Ntp6397
Rp6398
(dp6399
g19
(I-2
I0
tp6400
sbag1
(g15
g3
Ntp6401
Rp6402
(dp6403
g19
(I-2
I-1
tp6404
sbag1
(g15
g3
Ntp6405
Rp6406
(dp6407
g19
(I-1
I-1
tp6408
sbag1
(g15
g3
Ntp6409
Rp6410
(dp6411
g19
(I-1
I0
tp6412
sbasg65
I12
sg66
Nsg67
S'URULLDLDDRU'
p6413
sg69
S'110010101001'
p6414
sg71
Nsg72
Nsbag1
(g2
g3
Ntp6415
Rp6416
(dp6417
g7
I5
sg8
S'HHHPHPHPHPPH'
p6418
sg10
Nsg11
I0
sg12
Nsg13
(lp6419
g1
(g15
g3
Ntp6420
Rp6421
(dp6422
g19
g20
sbag1
(g15
g3
Ntp6423
Rp6424
(dp6425
g19
(I0
I1
tp6426
sbag1
(g15
g3
Ntp6427
Rp6428
(dp6429
g19
(I1
I1
tp6430
sbag1
(g15
g3
Ntp6431
Rp6432
(dp6433
g19
(I1
I2
tp6434
sbag1
(g15
g3
Ntp6435
Rp6436
(dp6437
g19
(I0
I2
tp6438
sbag1
(g15
g3
Ntp6439
Rp6440
(dp6441
g19
(I-1
I2
tp6442
sbag1
(g15
g3
Ntp6443
Rp6444
(dp6445
g19
(I-1
I1
tp6446
sbag1
(g15
g3
Ntp6447
Rp6448
(dp6449
g19
(I-2
I1
tp6450
sbag1
(g15
g3
Ntp6451
Rp6452
(dp6453
g19
(I-2
I0
tp6454
sbag1
(g15
g3
Ntp6455
Rp6456
(dp6457
g19
(I-2
I-1
tp6458
sbag1
(g15
g3
Ntp6459
Rp6460
(dp6461
g19
(I-1
I-1
tp6462
sbag1
(g15
g3
Ntp6463
Rp6464
(dp6465
g19
(I-1
I0
tp6466
sbasg65
I12
sg66
Nsg67
g6413
sg69
S'111010101001'
p6467
sg71
Nsg72
Nsbag1
(g2
g3
Ntp6468
Rp6469
(dp6470
g7
I4
sg8
S'HHPPHPPPPHPH'
p6471
sg10
Nsg11
I0
sg12
Nsg13
(lp6472
g1
(g15
g3
Ntp6473
Rp6474
(dp6475
g19
g20
sbag1
(g15
g3
Ntp6476
Rp6477
(dp6478
g19
(I0
I1
tp6479
sbag1
(g15
g3
Ntp6480
Rp6481
(dp6482
g19
(I0
I2
tp6483
sbag1
(g15
g3
Ntp6484
Rp6485
(dp6486
g19
(I1
I2
tp6487
sbag1
(g15
g3
Ntp6488
Rp6489
(dp6490
g19
(I1
I1
tp6491
sbag1
(g15
g3
Ntp6492
Rp6493
(dp6494
g19
(I2
I1
tp6495
sbag1
(g15
g3
Ntp6496
Rp6497
(dp6498
g19
(I3
I1
tp6499
sbag1
(g15
g3
Ntp6500
Rp6501
(dp6502
g19
(I3
I0
tp6503
sbag1
(g15
g3
Ntp6504
Rp6505
(dp6506
g19
(I2
I0
tp6507
sbag1
(g15
g3
Ntp6508
Rp6509
(dp6510
g19
(I1
I0
tp6511
sbag1
(g15
g3
Ntp6512
Rp6513
(dp6514
g19
(I1
I-1
tp6515
sbag1
(g15
g3
Ntp6516
Rp6517
(dp6518
g19
(I0
I-1
tp6519
sbasg65
I12
sg66
Nsg67
S'UURDRRDLLDL'
p6520
sg69
S'110010000101'
p6521
sg71
Nsg72
Nsbag1
(g2
g3
Ntp6522
Rp6523
(dp6524
g7
I3
sg8
S'HHPPHPPH'
p6525
sg10
Nsg11
I0
sg12
Nsg13
(lp6526
g1
(g15
g3
Ntp6527
Rp6528
(dp6529
g19
g20
sbag1
(g15
g3
Ntp6530
Rp6531
(dp6532
g19
(I0
I1
tp6533
sbag1
(g15
g3
Ntp6534
Rp6535
(dp6536
g19
(I0
I2
tp6537
sbag1
(g15
g3
Ntp6538
Rp6539
(dp6540
g19
(I1
I2
tp6541
sbag1
(g15
g3
Ntp6542
Rp6543
(dp6544
g19
(I1
I1
tp6545
sbag1
(g15
g3
Ntp6546
Rp6547
(dp6548
g19
(I2
I1
tp6549
sbag1
(g15
g3
Ntp6550
Rp6551
(dp6552
g19
(I2
I0
tp6553
sbag1
(g15
g3
Ntp6554
Rp6555
(dp6556
g19
(I1
I0
tp6557
sbasg65
I8
sg66
Nsg67
S'UURDRDL'
p6558
sg69
S'11001001'
p6559
sg71
Nsg72
Nsbag1
(g2
g3
Ntp6560
Rp6561
(dp6562
g7
I5
sg8
S'HPHPPHPPHPPH'
p6563
sg10
Nsg11
I0
sg12
Nsg13
(lp6564
g1
(g15
g3
Ntp6565
Rp6566
(dp6567
g19
g20
sbag1
(g15
g3
Ntp6568
Rp6569
(dp6570
g19
(I0
I1
tp6571
sbag1
(g15
g3
Ntp6572
Rp6573
(dp6574
g19
(I1
I1
tp6575
sbag1
(g15
g3
Ntp6576
Rp6577
(dp6578
g19
(I1
I2
tp6579
sbag1
(g15
g3
Ntp6580
Rp6581
(dp6582
g19
(I2
I2
tp6583
sbag1
(g15
g3
Ntp6584
Rp6585
(dp6586
g19
(I2
I1
tp6587
sbag1
(g15
g3
Ntp6588
Rp6589
(dp6590
g19
(I3
I1
tp6591
sbag1
(g15
g3
Ntp6592
Rp6593
(dp6594
g19
(I3
I0
tp6595
sbag1
(g15
g3
Ntp6596
Rp6597
(dp6598
g19
(I2
I0
tp6599
sbag1
(g15
g3
Ntp6600
Rp6601
(dp6602
g19
(I2
I-1
tp6603
sbag1
(g15
g3
Ntp6604
Rp6605
(dp6606
g19
(I1
I-1
tp6607
sbag1
(g15
g3
Ntp6608
Rp6609
(dp6610
g19
(I1
I0
tp6611
sbasg65
I12
sg66
Nsg67
S'URURDRDLDLU'
p6612
sg69
S'101001001001'
p6613
sg71
Nsg72
Nsbag1
(g2
g3
Ntp6614
Rp6615
(dp6616
g7
I5
sg8
S'HHHPPHPPHPPH'
p6617
sg10
Nsg11
I0
sg12
Nsg13
(lp6618
g1
(g15
g3
Ntp6619
Rp6620
(dp6621
g19
g20
sbag1
(g15
g3
Ntp6622
Rp6623
(dp6624
g19
(I0
I1
tp6625
sbag1
(g15
g3
Ntp6626
Rp6627
(dp6628
g19
(I1
I1
tp6629
sbag1
(g15
g3
Ntp6630
Rp6631
(dp6632
g19
(I1
I2
tp6633
sbag1
(g15
g3
Ntp6634
Rp6635
(dp6636
g19
(I2
I2
tp6637
sbag1
(g15
g3
Ntp6638
Rp6639
(dp6640
g19
(I2
I1
tp6641
sbag1
(g15
g3
Ntp6642
Rp6643
(dp6644
g19
(I3
I1
tp6645
sbag1
(g15
g3
Ntp6646
Rp6647
(dp6648
g19
(I3
I0
tp6649
sbag1
(g15
g3
Ntp6650
Rp6651
(dp6652
g19
(I2
I0
tp6653
sbag1
(g15
g3
Ntp6654
Rp6655
(dp6656
g19
(I2
I-1
tp6657
sbag1
(g15
g3
Ntp6658
Rp6659
(dp6660
g19
(I1
I-1
tp6661
sbag1
(g15
g3
Ntp6662
Rp6663
(dp6664
g19
(I1
I0
tp6665
sbasg65
I12
sg66
Nsg67
g6612
sg69
S'111001001001'
p6666
sg71
Nsg72
Nsbag1
(g2
g3
Ntp6667
Rp6668
(dp6669
g7
I5
sg8
S'HPHPHHPPHPPH'
p6670
sg10
Nsg11
I0
sg12
Nsg13
(lp6671
g1
(g15
g3
Ntp6672
Rp6673
(dp6674
g19
g20
sbag1
(g15
g3
Ntp6675
Rp6676
(dp6677
g19
(I0
I1
tp6678
sbag1
(g15
g3
Ntp6679
Rp6680
(dp6681
g19
(I1
I1
tp6682
sbag1
(g15
g3
Ntp6683
Rp6684
(dp6685
g19
(I1
I2
tp6686
sbag1
(g15
g3
Ntp6687
Rp6688
(dp6689
g19
(I2
I2
tp6690
sbag1
(g15
g3
Ntp6691
Rp6692
(dp6693
g19
(I2
I1
tp6694
sbag1
(g15
g3
Ntp6695
Rp6696
(dp6697
g19
(I3
I1
tp6698
sbag1
(g15
g3
Ntp6699
Rp6700
(dp6701
g19
(I3
I0
tp6702
sbag1
(g15
g3
Ntp6703
Rp6704
(dp6705
g19
(I2
I0
tp6706
sbag1
(g15
g3
Ntp6707
Rp6708
(dp6709
g19
(I2
I-1
tp6710
sbag1
(g15
g3
Ntp6711
Rp6712
(dp6713
g19
(I1
I-1
tp6714
sbag1
(g15
g3
Ntp6715
Rp6716
(dp6717
g19
(I1
I0
tp6718
sbasg65
I12
sg66
Nsg67
g6612
sg69
S'101011001001'
p6719
sg71
Nsg72
Nsbag1
(g2
g3
Ntp6720
Rp6721
(dp6722
g7
I5
sg8
S'HPHPPHPPHPHH'
p6723
sg10
Nsg11
I0
sg12
Nsg13
(lp6724
g1
(g15
g3
Ntp6725
Rp6726
(dp6727
g19
g20
sbag1
(g15
g3
Ntp6728
Rp6729
(dp6730
g19
(I0
I1
tp6731
sbag1
(g15
g3
Ntp6732
Rp6733
(dp6734
g19
(I1
I1
tp6735
sbag1
(g15
g3
Ntp6736
Rp6737
(dp6738
g19
(I1
I2
tp6739
sbag1
(g15
g3
Ntp6740
Rp6741
(dp6742
g19
(I2
I2
tp6743
sbag1
(g15
g3
Ntp6744
Rp6745
(dp6746
g19
(I2
I1
tp6747
sbag1
(g15
g3
Ntp6748
Rp6749
(dp6750
g19
(I3
I1
tp6751
sbag1
(g15
g3
Ntp6752
Rp6753
(dp6754
g19
(I3
I0
tp6755
sbag1
(g15
g3
Ntp6756
Rp6757
(dp6758
g19
(I2
I0
tp6759
sbag1
(g15
g3
Ntp6760
Rp6761
(dp6762
g19
(I2
I-1
tp6763
sbag1
(g15
g3
Ntp6764
Rp6765
(dp6766
g19
(I1
I-1
tp6767
sbag1
(g15
g3
Ntp6768
Rp6769
(dp6770
g19
(I1
I0
tp6771
sbasg65
I12
sg66
Nsg67
g6612
sg69
S'101001001011'
p6772
sg71
Nsg72
Nsbag1
(g2
g3
Ntp6773
Rp6774
(dp6775
g7
I5
sg8
S'HPHPPHPHPHPH'
p6776
sg10
Nsg11
I0
sg12
Nsg13
(lp6777
g1
(g15
g3
Ntp6778
Rp6779
(dp6780
g19
g20
sbag1
(g15
g3
Ntp6781
Rp6782
(dp6783
g19
(I0
I1
tp6784
sbag1
(g15
g3
Ntp6785
Rp6786
(dp6787
g19
(I1
I1
tp6788
sbag1
(g15
g3
Ntp6789
Rp6790
(dp6791
g19
(I1
I2
tp6792
sbag1
(g15
g3
Ntp6793
Rp6794
(dp6795
g19
(I2
I2
tp6796
sbag1
(g15
g3
Ntp6797
Rp6798
(dp6799
g19
(I2
I1
tp6800
sbag1
(g15
g3
Ntp6801
Rp6802
(dp6803
g19
(I2
I0
tp6804
sbag1
(g15
g3
Ntp6805
Rp6806
(dp6807
g19
(I1
I0
tp6808
sbag1
(g15
g3
Ntp6809
Rp6810
(dp6811
g19
(I1
I-1
tp6812
sbag1
(g15
g3
Ntp6813
Rp6814
(dp6815
g19
(I0
I-1
tp6816
sbag1
(g15
g3
Ntp6817
Rp6818
(dp6819
g19
(I-1
I-1
tp6820
sbag1
(g15
g3
Ntp6821
Rp6822
(dp6823
g19
(I-1
I0
tp6824
sbasg65
I12
sg66
Nsg67
S'URURDDLDLLU'
p6825
sg69
S'101001010101'
p6826
sg71
Nsg72
Nsbag1
(g2
g3
Ntp6827
Rp6828
(dp6829
g7
I5
sg8
S'HHHPPHPHPHPH'
p6830
sg10
Nsg11
I0
sg12
Nsg13
(lp6831
g1
(g15
g3
Ntp6832
Rp6833
(dp6834
g19
g20
sbag1
(g15
g3
Ntp6835
Rp6836
(dp6837
g19
(I0
I1
tp6838
sbag1
(g15
g3
Ntp6839
Rp6840
(dp6841
g19
(I1
I1
tp6842
sbag1
(g15
g3
Ntp6843
Rp6844
(dp6845
g19
(I1
I2
tp6846
sbag1
(g15
g3
Ntp6847
Rp6848
(dp6849
g19
(I2
I2
tp6850
sbag1
(g15
g3
Ntp6851
Rp6852
(dp6853
g19
(I2
I1
tp6854
sbag1
(g15
g3
Ntp6855
Rp6856
(dp6857
g19
(I2
I0
tp6858
sbag1
(g15
g3
Ntp6859
Rp6860
(dp6861
g19
(I1
I0
tp6862
sbag1
(g15
g3
Ntp6863
Rp6864
(dp6865
g19
(I1
I-1
tp6866
sbag1
(g15
g3
Ntp6867
Rp6868
(dp6869
g19
(I0
I-1
tp6870
sbag1
(g15
g3
Ntp6871
Rp6872
(dp6873
g19
(I-1
I-1
tp6874
sbag1
(g15
g3
Ntp6875
Rp6876
(dp6877
g19
(I-1
I0
tp6878
sbasg65
I12
sg66
Nsg67
g6825
sg69
S'111001010101'
p6879
sg71
Nsg72
Nsbag1
(g2
g3
Ntp6880
Rp6881
(dp6882
g7
I5
sg8
S'HPHHPHPHPHPH'
p6883
sg10
Nsg11
I0
sg12
Nsg13
(lp6884
g1
(g15
g3
Ntp6885
Rp6886
(dp6887
g19
g20
sbag1
(g15
g3
Ntp6888
Rp6889
(dp6890
g19
(I0
I1
tp6891
sbag1
(g15
g3
Ntp6892
Rp6893
(dp6894
g19
(I1
I1
tp6895
sbag1
(g15
g3
Ntp6896
Rp6897
(dp6898
g19
(I1
I2
tp6899
sbag1
(g15
g3
Ntp6900
Rp6901
(dp6902
g19
(I2
I2
tp6903
sbag1
(g15
g3
Ntp6904
Rp6905
(dp6906
g19
(I2
I1
tp6907
sbag1
(g15
g3
Ntp6908
Rp6909
(dp6910
g19
(I2
I0
tp6911
sbag1
(g15
g3
Ntp6912
Rp6913
(dp6914
g19
(I1
I0
tp6915
sbag1
(g15
g3
Ntp6916
Rp6917
(dp6918
g19
(I1
I-1
tp6919
sbag1
(g15
g3
Ntp6920
Rp6921
(dp6922
g19
(I0
I-1
tp6923
sbag1
(g15
g3
Ntp6924
Rp6925
(dp6926
g19
(I-1
I-1
tp6927
sbag1
(g15
g3
Ntp6928
Rp6929
(dp6930
g19
(I-1
I0
tp6931
sbasg65
I12
sg66
Nsg67
g6825
sg69
S'101101010101'
p6932
sg71
Nsg72
Nsbag1
(g2
g3
Ntp6933
Rp6934
(dp6935
g7
I5
sg8
S'HHHHPHPHPHPH'
p6936
sg10
Nsg11
I0
sg12
Nsg13
(lp6937
g1
(g15
g3
Ntp6938
Rp6939
(dp6940
g19
g20
sbag1
(g15
g3
Ntp6941
Rp6942
(dp6943
g19
(I0
I1
tp6944
sbag1
(g15
g3
Ntp6945
Rp6946
(dp6947
g19
(I1
I1
tp6948
sbag1
(g15
g3
Ntp6949
Rp6950
(dp6951
g19
(I1
I2
tp6952
sbag1
(g15
g3
Ntp6953
Rp6954
(dp6955
g19
(I2
I2
tp6956
sbag1
(g15
g3
Ntp6957
Rp6958
(dp6959
g19
(I2
I1
tp6960
sbag1
(g15
g3
Ntp6961
Rp6962
(dp6963
g19
(I2
I0
tp6964
sbag1
(g15
g3
Ntp6965
Rp6966
(dp6967
g19
(I1
I0
tp6968
sbag1
(g15
g3
Ntp6969
Rp6970
(dp6971
g19
(I1
I-1
tp6972
sbag1
(g15
g3
Ntp6973
Rp6974
(dp6975
g19
(I0
I-1
tp6976
sbag1
(g15
g3
Ntp6977
Rp6978
(dp6979
g19
(I-1
I-1
tp6980
sbag1
(g15
g3
Ntp6981
Rp6982
(dp6983
g19
(I-1
I0
tp6984
sbasg65
I12
sg66
Nsg67
g6825
sg69
S'111101010101'
p6985
sg71
Nsg72
Nsbag1
(g2
g3
Ntp6986
Rp6987
(dp6988
g7
I4
sg8
S'HPHPPHPPHH'
p6989
sg10
Nsg11
I0
sg12
Nsg13
(lp6990
g1
(g15
g3
Ntp6991
Rp6992
(dp6993
g19
g20
sbag1
(g15
g3
Ntp6994
Rp6995
(dp6996
g19
(I0
I1
tp6997
sbag1
(g15
g3
Ntp6998
Rp6999
(dp7000
g19
(I1
I1
tp7001
sbag1
(g15
g3
Ntp7002
Rp7003
(dp7004
g19
(I1
I2
tp7005
sbag1
(g15
g3
Ntp7006
Rp7007
(dp7008
g19
(I2
I2
tp7009
sbag1
(g15
g3
Ntp7010
Rp7011
(dp7012
g19
(I2
I1
tp7013
sbag1
(g15
g3
Ntp7014
Rp7015
(dp7016
g19
(I3
I1
tp7017
sbag1
(g15
g3
Ntp7018
Rp7019
(dp7020
g19
(I3
I0
tp7021
sbag1
(g15
g3
Ntp7022
Rp7023
(dp7024
g19
(I2
I0
tp7025
sbag1
(g15
g3
Ntp7026
Rp7027
(dp7028
g19
(I1
I0
tp7029
sbasg65
I10
sg66
Nsg67
S'URURDRDLL'
p7030
sg69
S'1010010011'
p7031
sg71
Nsg72
Nsbag1
(g2
g3
Ntp7032
Rp7033
(dp7034
g7
I2
sg8
S'PHPPHPH'
p7035
sg10
Nsg11
I0
sg12
Nsg13
(lp7036
g1
(g15
g3
Ntp7037
Rp7038
(dp7039
g19
g20
sbag1
(g15
g3
Ntp7040
Rp7041
(dp7042
g19
(I0
I1
tp7043
sbag1
(g15
g3
Ntp7044
Rp7045
(dp7046
g19
(I1
I1
tp7047
sbag1
(g15
g3
Ntp7048
Rp7049
(dp7050
g19
(I1
I2
tp7051
sbag1
(g15
g3
Ntp7052
Rp7053
(dp7054
g19
(I0
I2
tp7055
sbag1
(g15
g3
Ntp7056
Rp7057
(dp7058
g19
(I-1
I2
tp7059
sbag1
(g15
g3
Ntp7060
Rp7061
(dp7062
g19
(I-1
I1
tp7063
sbasg65
I7
sg66
Nsg67
S'URULLD'
p7064
sg69
S'0100101'
p7065
sg71
Nsg72
Nsbag1
(g2
g3
Ntp7066
Rp7067
(dp7068
g7
I2
sg8
S'HHPPHPH'
p7069
sg10
Nsg11
I0
sg12
Nsg13
(lp7070
g1
(g15
g3
Ntp7071
Rp7072
(dp7073
g19
g20
sbag1
(g15
g3
Ntp7074
Rp7075
(dp7076
g19
(I0
I1
tp7077
sbag1
(g15
g3
Ntp7078
Rp7079
(dp7080
g19
(I1
I1
tp7081
sbag1
(g15
g3
Ntp7082
Rp7083
(dp7084
g19
(I1
I2
tp7085
sbag1
(g15
g3
Ntp7086
Rp7087
(dp7088
g19
(I0
I2
tp7089
sbag1
(g15
g3
Ntp7090
Rp7091
(dp7092
g19
(I-1
I2
tp7093
sbag1
(g15
g3
Ntp7094
Rp7095
(dp7096
g19
(I-1
I1
tp7097
sbasg65
I7
sg66
Nsg67
g7064
sg69
S'1100101'
p7098
sg71
Nsg72
Nsbag1
(g2
g3
Ntp7099
Rp7100
(dp7101
g7
I2
sg8
S'PHHPHPH'
p7102
sg10
Nsg11
I0
sg12
Nsg13
(lp7103
g1
(g15
g3
Ntp7104
Rp7105
(dp7106
g19
g20
sbag1
(g15
g3
Ntp7107
Rp7108
(dp7109
g19
(I0
I1
tp7110
sbag1
(g15
g3
Ntp7111
Rp7112
(dp7113
g19
(I1
I1
tp7114
sbag1
(g15
g3
Ntp7115
Rp7116
(dp7117
g19
(I1
I2
tp7118
sbag1
(g15
g3
Ntp7119
Rp7120
(dp7121
g19
(I0
I2
tp7122
sbag1
(g15
g3
Ntp7123
Rp7124
(dp7125
g19
(I-1
I2
tp7126
sbag1
(g15
g3
Ntp7127
Rp7128
(dp7129
g19
(I-1
I1
tp7130
sbasg65
I7
sg66
Nsg67
g7064
sg69
S'0110101'
p7131
sg71
Nsg72
Nsbag1
(g2
g3
Ntp7132
Rp7133
(dp7134
g7
I2
sg8
S'HHHPHPH'
p7135
sg10
Nsg11
I0
sg12
Nsg13
(lp7136
g1
(g15
g3
Ntp7137
Rp7138
(dp7139
g19
g20
sbag1
(g15
g3
Ntp7140
Rp7141
(dp7142
g19
(I0
I1
tp7143
sbag1
(g15
g3
Ntp7144
Rp7145
(dp7146
g19
(I1
I1
tp7147
sbag1
(g15
g3
Ntp7148
Rp7149
(dp7150
g19
(I1
I2
tp7151
sbag1
(g15
g3
Ntp7152
Rp7153
(dp7154
g19
(I0
I2
tp7155
sbag1
(g15
g3
Ntp7156
Rp7157
(dp7158
g19
(I-1
I2
tp7159
sbag1
(g15
g3
Ntp7160
Rp7161
(dp7162
g19
(I-1
I1
tp7163
sbasg65
I7
sg66
Nsg67
g7064
sg69
S'1110101'
p7164
sg71
Nsg72
Nsbag1
(g2
g3
Ntp7165
Rp7166
(dp7167
g7
I2
sg8
S'PHPPHHH'
p7168
sg10
Nsg11
I0
sg12
Nsg13
(lp7169
g1
(g15
g3
Ntp7170
Rp7171
(dp7172
g19
g20
sbag1
(g15
g3
Ntp7173
Rp7174
(dp7175
g19
(I0
I1
tp7176
sbag1
(g15
g3
Ntp7177
Rp7178
(dp7179
g19
(I1
I1
tp7180
sbag1
(g15
g3
Ntp7181
Rp7182
(dp7183
g19
(I1
I2
tp7184
sbag1
(g15
g3
Ntp7185
Rp7186
(dp7187
g19
(I0
I2
tp7188
sbag1
(g15
g3
Ntp7189
Rp7190
(dp7191
g19
(I-1
I2
tp7192
sbag1
(g15
g3
Ntp7193
Rp7194
(dp7195
g19
(I-1
I1
tp7196
sbasg65
I7
sg66
Nsg67
g7064
sg69
S'0100111'
p7197
sg71
Nsg72
Nsbag1
(g2
g3
Ntp7198
Rp7199
(dp7200
g7
I4
sg8
S'PHPPHHPPHPHP'
p7201
sg10
Nsg11
I0
sg12
Nsg13
(lp7202
g1
(g15
g3
Ntp7203
Rp7204
(dp7205
g19
g20
sbag1
(g15
g3
Ntp7206
Rp7207
(dp7208
g19
(I0
I1
tp7209
sbag1
(g15
g3
Ntp7210
Rp7211
(dp7212
g19
(I1
I1
tp7213
sbag1
(g15
g3
Ntp7214
Rp7215
(dp7216
g19
(I1
I2
tp7217
sbag1
(g15
g3
Ntp7218
Rp7219
(dp7220
g19
(I0
I2
tp7221
sbag1
(g15
g3
Ntp7222
Rp7223
(dp7224
g19
(I-1
I2
tp7225
sbag1
(g15
g3
Ntp7226
Rp7227
(dp7228
g19
(I-1
I3
tp7229
sbag1
(g15
g3
Ntp7230
Rp7231
(dp7232
g19
(I-2
I3
tp7233
sbag1
(g15
g3
Ntp7234
Rp7235
(dp7236
g19
(I-2
I2
tp7237
sbag1
(g15
g3
Ntp7238
Rp7239
(dp7240
g19
(I-2
I1
tp7241
sbag1
(g15
g3
Ntp7242
Rp7243
(dp7244
g19
(I-1
I1
tp7245
sbag1
(g15
g3
Ntp7246
Rp7247
(dp7248
g19
(I-1
I0
tp7249
sbasg65
I12
sg66
Nsg67
S'URULLULDDRD'
p7250
sg69
S'010011001010'
p7251
sg71
Nsg72
Nsbag1
(g2
g3
Ntp7252
Rp7253
(dp7254
g7
I4
sg8
S'HHPPHHPPHPHP'
p7255
sg10
Nsg11
I0
sg12
Nsg13
(lp7256
g1
(g15
g3
Ntp7257
Rp7258
(dp7259
g19
g20
sbag1
(g15
g3
Ntp7260
Rp7261
(dp7262
g19
(I0
I1
tp7263
sbag1
(g15
g3
Ntp7264
Rp7265
(dp7266
g19
(I1
I1
tp7267
sbag1
(g15
g3
Ntp7268
Rp7269
(dp7270
g19
(I1
I2
tp7271
sbag1
(g15
g3
Ntp7272
Rp7273
(dp7274
g19
(I0
I2
tp7275
sbag1
(g15
g3
Ntp7276
Rp7277
(dp7278
g19
(I-1
I2
tp7279
sbag1
(g15
g3
Ntp7280
Rp7281
(dp7282
g19
(I-1
I3
tp7283
sbag1
(g15
g3
Ntp7284
Rp7285
(dp7286
g19
(I-2
I3
tp7287
sbag1
(g15
g3
Ntp7288
Rp7289
(dp7290
g19
(I-2
I2
tp7291
sbag1
(g15
g3
Ntp7292
Rp7293
(dp7294
g19
(I-2
I1
tp7295
sbag1
(g15
g3
Ntp7296
Rp7297
(dp7298
g19
(I-1
I1
tp7299
sbag1
(g15
g3
Ntp7300
Rp7301
(dp7302
g19
(I-1
I0
tp7303
sbasg65
I12
sg66
Nsg67
g7250
sg69
S'110011001010'
p7304
sg71
Nsg72
Nsbag1
(g2
g3
Ntp7305
Rp7306
(dp7307
g7
I4
sg8
S'PHPPHPPHPPH'
p7308
sg10
Nsg11
I0
sg12
Nsg13
(lp7309
g1
(g15
g3
Ntp7310
Rp7311
(dp7312
g19
g20
sbag1
(g15
g3
Ntp7313
Rp7314
(dp7315
g19
(I0
I1
tp7316
sbag1
(g15
g3
Ntp7317
Rp7318
(dp7319
g19
(I1
I1
tp7320
sbag1
(g15
g3
Ntp7321
Rp7322
(dp7323
g19
(I1
I2
tp7324
sbag1
(g15
g3
Ntp7325
Rp7326
(dp7327
g19
(I0
I2
tp7328
sbag1
(g15
g3
Ntp7329
Rp7330
(dp7331
g19
(I0
I3
tp7332
sbag1
(g15
g3
Ntp7333
Rp7334
(dp7335
g19
(I-1
I3
tp7336
sbag1
(g15
g3
Ntp7337
Rp7338
(dp7339
g19
(I-1
I2
tp7340
sbag1
(g15
g3
Ntp7341
Rp7342
(dp7343
g19
(I-2
I2
tp7344
sbag1
(g15
g3
Ntp7345
Rp7346
(dp7347
g19
(I-2
I1
tp7348
sbag1
(g15
g3
Ntp7349
Rp7350
(dp7351
g19
(I-1
I1
tp7352
sbasg65
I11
sg66
Nsg67
S'URULULDLDR'
p7353
sg69
S'01001001001'
p7354
sg71
Nsg72
Nsbag1
(g2
g3
Ntp7355
Rp7356
(dp7357
g7
I4
sg8
S'HHPPHPPHPPH'
p7358
sg10
Nsg11
I0
sg12
Nsg13
(lp7359
g1
(g15
g3
Ntp7360
Rp7361
(dp7362
g19
g20
sbag1
(g15
g3
Ntp7363
Rp7364
(dp7365
g19
(I0
I1
tp7366
sbag1
(g15
g3
Ntp7367
Rp7368
(dp7369
g19
(I1
I1
tp7370
sbag1
(g15
g3
Ntp7371
Rp7372
(dp7373
g19
(I1
I2
tp7374
sbag1
(g15
g3
Ntp7375
Rp7376
(dp7377
g19
(I0
I2
tp7378
sbag1
(g15
g3
Ntp7379
Rp7380
(dp7381
g19
(I0
I3
tp7382
sbag1
(g15
g3
Ntp7383
Rp7384
(dp7385
g19
(I-1
I3
tp7386
sbag1
(g15
g3
Ntp7387
Rp7388
(dp7389
g19
(I-1
I2
tp7390
sbag1
(g15
g3
Ntp7391
Rp7392
(dp7393
g19
(I-2
I2
tp7394
sbag1
(g15
g3
Ntp7395
Rp7396
(dp7397
g19
(I-2
I1
tp7398
sbag1
(g15
g3
Ntp7399
Rp7400
(dp7401
g19
(I-1
I1
tp7402
sbasg65
I11
sg66
Nsg67
g7353
sg69
S'11001001001'
p7403
sg71
Nsg72
Nsbag1
(g2
g3
Ntp7404
Rp7405
(dp7406
g7
I4
sg8
S'PHHPHPPHPPH'
p7407
sg10
Nsg11
I0
sg12
Nsg13
(lp7408
g1
(g15
g3
Ntp7409
Rp7410
(dp7411
g19
g20
sbag1
(g15
g3
Ntp7412
Rp7413
(dp7414
g19
(I0
I1
tp7415
sbag1
(g15
g3
Ntp7416
Rp7417
(dp7418
g19
(I1
I1
tp7419
sbag1
(g15
g3
Ntp7420
Rp7421
(dp7422
g19
(I1
I2
tp7423
sbag1
(g15
g3
Ntp7424
Rp7425
(dp7426
g19
(I0
I2
tp7427
sbag1
(g15
g3
Ntp7428
Rp7429
(dp7430
g19
(I0
I3
tp7431
sbag1
(g15
g3
Ntp7432
Rp7433
(dp7434
g19
(I-1
I3
tp7435
sbag1
(g15
g3
Ntp7436
Rp7437
(dp7438
g19
(I-1
I2
tp7439
sbag1
(g15
g3
Ntp7440
Rp7441
(dp7442
g19
(I-2
I2
tp7443
sbag1
(g15
g3
Ntp7444
Rp7445
(dp7446
g19
(I-2
I1
tp7447
sbag1
(g15
g3
Ntp7448
Rp7449
(dp7450
g19
(I-1
I1
tp7451
sbasg65
I11
sg66
Nsg67
g7353
sg69
S'01101001001'
p7452
sg71
Nsg72
Nsbag1
(g2
g3
Ntp7453
Rp7454
(dp7455
g7
I4
sg8
S'HHHPHPPHPPH'
p7456
sg10
Nsg11
I0
sg12
Nsg13
(lp7457
g1
(g15
g3
Ntp7458
Rp7459
(dp7460
g19
g20
sbag1
(g15
g3
Ntp7461
Rp7462
(dp7463
g19
(I0
I1
tp7464
sbag1
(g15
g3
Ntp7465
Rp7466
(dp7467
g19
(I1
I1
tp7468
sbag1
(g15
g3
Ntp7469
Rp7470
(dp7471
g19
(I1
I2
tp7472
sbag1
(g15
g3
Ntp7473
Rp7474
(dp7475
g19
(I0
I2
tp7476
sbag1
(g15
g3
Ntp7477
Rp7478
(dp7479
g19
(I0
I3
tp7480
sbag1
(g15
g3
Ntp7481
Rp7482
(dp7483
g19
(I-1
I3
tp7484
sbag1
(g15
g3
Ntp7485
Rp7486
(dp7487
g19
(I-1
I2
tp7488
sbag1
(g15
g3
Ntp7489
Rp7490
(dp7491
g19
(I-2
I2
tp7492
sbag1
(g15
g3
Ntp7493
Rp7494
(dp7495
g19
(I-2
I1
tp7496
sbag1
(g15
g3
Ntp7497
Rp7498
(dp7499
g19
(I-1
I1
tp7500
sbasg65
I11
sg66
Nsg67
g7353
sg69
S'11101001001'
p7501
sg71
Nsg72
Nsbag1
(g2
g3
Ntp7502
Rp7503
(dp7504
g7
I4
sg8
S'PHPPHPHHPPH'
p7505
sg10
Nsg11
I0
sg12
Nsg13
(lp7506
g1
(g15
g3
Ntp7507
Rp7508
(dp7509
g19
g20
sbag1
(g15
g3
Ntp7510
Rp7511
(dp7512
g19
(I0
I1
tp7513
sbag1
(g15
g3
Ntp7514
Rp7515
(dp7516
g19
(I1
I1
tp7517
sbag1
(g15
g3
Ntp7518
Rp7519
(dp7520
g19
(I1
I2
tp7521
sbag1
(g15
g3
Ntp7522
Rp7523
(dp7524
g19
(I0
I2
tp7525
sbag1
(g15
g3
Ntp7526
Rp7527
(dp7528
g19
(I0
I3
tp7529
sbag1
(g15
g3
Ntp7530
Rp7531
(dp7532
g19
(I-1
I3
tp7533
sbag1
(g15
g3
Ntp7534
Rp7535
(dp7536
g19
(I-1
I2
tp7537
sbag1
(g15
g3
Ntp7538
Rp7539
(dp7540
g19
(I-2
I2
tp7541
sbag1
(g15
g3
Ntp7542
Rp7543
(dp7544
g19
(I-2
I1
tp7545
sbag1
(g15
g3
Ntp7546
Rp7547
(dp7548
g19
(I-1
I1
tp7549
sbasg65
I11
sg66
Nsg67
g7353
sg69
S'01001011001'
p7550
sg71
Nsg72
Nsbag1
(g2
g3
Ntp7551
Rp7552
(dp7553
g7
I4
sg8
S'PHHPHPHHPPH'
p7554
sg10
Nsg11
I0
sg12
Nsg13
(lp7555
g1
(g15
g3
Ntp7556
Rp7557
(dp7558
g19
g20
sbag1
(g15
g3
Ntp7559
Rp7560
(dp7561
g19
(I0
I1
tp7562
sbag1
(g15
g3
Ntp7563
Rp7564
(dp7565
g19
(I1
I1
tp7566
sbag1
(g15
g3
Ntp7567
Rp7568
(dp7569
g19
(I1
I2
tp7570
sbag1
(g15
g3
Ntp7571
Rp7572
(dp7573
g19
(I0
I2
tp7574
sbag1
(g15
g3
Ntp7575
Rp7576
(dp7577
g19
(I0
I3
tp7578
sbag1
(g15
g3
Ntp7579
Rp7580
(dp7581
g19
(I-1
I3
tp7582
sbag1
(g15
g3
Ntp7583
Rp7584
(dp7585
g19
(I-1
I2
tp7586
sbag1
(g15
g3
Ntp7587
Rp7588
(dp7589
g19
(I-2
I2
tp7590
sbag1
(g15
g3
Ntp7591
Rp7592
(dp7593
g19
(I-2
I1
tp7594
sbag1
(g15
g3
Ntp7595
Rp7596
(dp7597
g19
(I-1
I1
tp7598
sbasg65
I11
sg66
Nsg67
g7353
sg69
S'01101011001'
p7599
sg71
Nsg72
Nsbag1
(g2
g3
Ntp7600
Rp7601
(dp7602
g7
I4
sg8
S'PHPPHPPHPHH'
p7603
sg10
Nsg11
I0
sg12
Nsg13
(lp7604
g1
(g15
g3
Ntp7605
Rp7606
(dp7607
g19
g20
sbag1
(g15
g3
Ntp7608
Rp7609
(dp7610
g19
(I0
I1
tp7611
sbag1
(g15
g3
Ntp7612
Rp7613
(dp7614
g19
(I1
I1
tp7615
sbag1
(g15
g3
Ntp7616
Rp7617
(dp7618
g19
(I1
I2
tp7619
sbag1
(g15
g3
Ntp7620
Rp7621
(dp7622
g19
(I0
I2
tp7623
sbag1
(g15
g3
Ntp7624
Rp7625
(dp7626
g19
(I0
I3
tp7627
sbag1
(g15
g3
Ntp7628
Rp7629
(dp7630
g19
(I-1
I3
tp7631
sbag1
(g15
g3
Ntp7632
Rp7633
(dp7634
g19
(I-1
I2
tp7635
sbag1
(g15
g3
Ntp7636
Rp7637
(dp7638
g19
(I-2
I2
tp7639
sbag1
(g15
g3
Ntp7640
Rp7641
(dp7642
g19
(I-2
I1
tp7643
sbag1
(g15
g3
Ntp7644
Rp7645
(dp7646
g19
(I-1
I1
tp7647
sbasg65
I11
sg66
Nsg67
g7353
sg69
S'01001001011'
p7648
sg71
Nsg72
Nsbag1
(g2
g3
Ntp7649
Rp7650
(dp7651
g7
I5
sg8
S'HPHPHPPHPPHH'
p7652
sg10
Nsg11
I0
sg12
Nsg13
(lp7653
g1
(g15
g3
Ntp7654
Rp7655
(dp7656
g19
g20
sbag1
(g15
g3
Ntp7657
Rp7658
(dp7659
g19
(I0
I1
tp7660
sbag1
(g15
g3
Ntp7661
Rp7662
(dp7663
g19
(I1
I1
tp7664
sbag1
(g15
g3
Ntp7665
Rp7666
(dp7667
g19
(I2
I1
tp7668
sbag1
(g15
g3
Ntp7669
Rp7670
(dp7671
g19
(I2
I0
tp7672
sbag1
(g15
g3
Ntp7673
Rp7674
(dp7675
g19
(I3
I0
tp7676
sbag1
(g15
g3
Ntp7677
Rp7678
(dp7679
g19
(I3
I-1
tp7680
sbag1
(g15
g3
Ntp7681
Rp7682
(dp7683
g19
(I2
I-1
tp7684
sbag1
(g15
g3
Ntp7685
Rp7686
(dp7687
g19
(I2
I-2
tp7688
sbag1
(g15
g3
Ntp7689
Rp7690
(dp7691
g19
(I1
I-2
tp7692
sbag1
(g15
g3
Ntp7693
Rp7694
(dp7695
g19
(I1
I-1
tp7696
sbag1
(g15
g3
Ntp7697
Rp7698
(dp7699
g19
(I1
I0
tp7700
sbasg65
I12
sg66
Nsg67
S'URRDRDLDLUU'
p7701
sg69
S'101010010011'
p7702
sg71
Nsg72
Nsbag1
(g2
g3
Ntp7703
Rp7704
(dp7705
g7
I5
sg8
S'HPHPHPHHPPHH'
p7706
sg10
Nsg11
I0
sg12
Nsg13
(lp7707
g1
(g15
g3
Ntp7708
Rp7709
(dp7710
g19
g20
sbag1
(g15
g3
Ntp7711
Rp7712
(dp7713
g19
(I0
I1
tp7714
sbag1
(g15
g3
Ntp7715
Rp7716
(dp7717
g19
(I1
I1
tp7718
sbag1
(g15
g3
Ntp7719
Rp7720
(dp7721
g19
(I2
I1
tp7722
sbag1
(g15
g3
Ntp7723
Rp7724
(dp7725
g19
(I2
I0
tp7726
sbag1
(g15
g3
Ntp7727
Rp7728
(dp7729
g19
(I3
I0
tp7730
sbag1
(g15
g3
Ntp7731
Rp7732
(dp7733
g19
(I3
I-1
tp7734
sbag1
(g15
g3
Ntp7735
Rp7736
(dp7737
g19
(I2
I-1
tp7738
sbag1
(g15
g3
Ntp7739
Rp7740
(dp7741
g19
(I2
I-2
tp7742
sbag1
(g15
g3
Ntp7743
Rp7744
(dp7745
g19
(I1
I-2
tp7746
sbag1
(g15
g3
Ntp7747
Rp7748
(dp7749
g19
(I1
I-1
tp7750
sbag1
(g15
g3
Ntp7751
Rp7752
(dp7753
g19
(I1
I0
tp7754
sbasg65
I12
sg66
Nsg67
g7701
sg69
S'101010110011'
p7755
sg71
Nsg72
Nsbag1
(g2
g3
Ntp7756
Rp7757
(dp7758
g7
I3
sg8
S'HPHPHPPH'
p7759
sg10
Nsg11
I0
sg12
Nsg13
(lp7760
g1
(g15
g3
Ntp7761
Rp7762
(dp7763
g19
g20
sbag1
(g15
g3
Ntp7764
Rp7765
(dp7766
g19
(I0
I1
tp7767
sbag1
(g15
g3
Ntp7768
Rp7769
(dp7770
g19
(I1
I1
tp7771
sbag1
(g15
g3
Ntp7772
Rp7773
(dp7774
g19
(I2
I1
tp7775
sbag1
(g15
g3
Ntp7776
Rp7777
(dp7778
g19
(I2
I0
tp7779
sbag1
(g15
g3
Ntp7780
Rp7781
(dp7782
g19
(I2
I-1
tp7783
sbag1
(g15
g3
Ntp7784
Rp7785
(dp7786
g19
(I1
I-1
tp7787
sbag1
(g15
g3
Ntp7788
Rp7789
(dp7790
g19
(I1
I0
tp7791
sbasg65
I8
sg66
Nsg67
S'URRDDLU'
p7792
sg69
S'10101001'
p7793
sg71
Nsg72
Nsbag1
(g2
g3
Ntp7794
Rp7795
(dp7796
g7
I3
sg8
S'HPHPHPHH'
p7797
sg10
Nsg11
I0
sg12
Nsg13
(lp7798
g1
(g15
g3
Ntp7799
Rp7800
(dp7801
g19
g20
sbag1
(g15
g3
Ntp7802
Rp7803
(dp7804
g19
(I0
I1
tp7805
sbag1
(g15
g3
Ntp7806
Rp7807
(dp7808
g19
(I1
I1
tp7809
sbag1
(g15
g3
Ntp7810
Rp7811
(dp7812
g19
(I2
I1
tp7813
sbag1
(g15
g3
Ntp7814
Rp7815
(dp7816
g19
(I2
I0
tp7817
sbag1
(g15
g3
Ntp7818
Rp7819
(dp7820
g19
(I2
I-1
tp7821
sbag1
(g15
g3
Ntp7822
Rp7823
(dp7824
g19
(I1
I-1
tp7825
sbag1
(g15
g3
Ntp7826
Rp7827
(dp7828
g19
(I1
I0
tp7829
sbasg65
I8
sg66
Nsg67
g7792
sg69
S'10101011'
p7830
sg71
Nsg72
Nsbag1
(g2
g3
Ntp7831
Rp7832
(dp7833
g7
I2
sg8
S'HPPHPH'
p7834
sg10
Nsg11
I0
sg12
Nsg13
(lp7835
g1
(g15
g3
Ntp7836
Rp7837
(dp7838
g19
g20
sbag1
(g15
g3
Ntp7839
Rp7840
(dp7841
g19
(I0
I1
tp7842
sbag1
(g15
g3
Ntp7843
Rp7844
(dp7845
g19
(I1
I1
tp7846
sbag1
(g15
g3
Ntp7847
Rp7848
(dp7849
g19
(I1
I0
tp7850
sbag1
(g15
g3
Ntp7851
Rp7852
(dp7853
g19
(I1
I-1
tp7854
sbag1
(g15
g3
Ntp7855
Rp7856
(dp7857
g19
(I0
I-1
tp7858
sbasg65
I6
sg66
Nsg67
S'URDDL'
p7859
sg69
S'100101'
p7860
sg71
Nsg72
Nsbag1
(g2
g3
Ntp7861
Rp7862
(dp7863
g7
I2
sg8
S'HHPHPH'
p7864
sg10
Nsg11
I0
sg12
Nsg13
(lp7865
g1
(g15
g3
Ntp7866
Rp7867
(dp7868
g19
g20
sbag1
(g15
g3
Ntp7869
Rp7870
(dp7871
g19
(I0
I1
tp7872
sbag1
(g15
g3
Ntp7873
Rp7874
(dp7875
g19
(I1
I1
tp7876
sbag1
(g15
g3
Ntp7877
Rp7878
(dp7879
g19
(I1
I0
tp7880
sbag1
(g15
g3
Ntp7881
Rp7882
(dp7883
g19
(I1
I-1
tp7884
sbag1
(g15
g3
Ntp7885
Rp7886
(dp7887
g19
(I0
I-1
tp7888
sbasg65
I6
sg66
Nsg67
g7859
sg69
S'110101'
p7889
sg71
Nsg72
Nsbag1
(g2
g3
Ntp7890
Rp7891
(dp7892
g7
I2
sg8
S'HPPHHH'
p7893
sg10
Nsg11
I0
sg12
Nsg13
(lp7894
g1
(g15
g3
Ntp7895
Rp7896
(dp7897
g19
g20
sbag1
(g15
g3
Ntp7898
Rp7899
(dp7900
g19
(I0
I1
tp7901
sbag1
(g15
g3
Ntp7902
Rp7903
(dp7904
g19
(I1
I1
tp7905
sbag1
(g15
g3
Ntp7906
Rp7907
(dp7908
g19
(I1
I0
tp7909
sbag1
(g15
g3
Ntp7910
Rp7911
(dp7912
g19
(I1
I-1
tp7913
sbag1
(g15
g3
Ntp7914
Rp7915
(dp7916
g19
(I0
I-1
tp7917
sbasg65
I6
sg66
Nsg67
g7859
sg69
S'100111'
p7918
sg71
Nsg72
Nsbag1
(g2
g3
Ntp7919
Rp7920
(dp7921
g7
I4
sg8
S'HPHPPHPPHHP'
p7922
sg10
Nsg11
I0
sg12
Nsg13
(lp7923
g1
(g15
g3
Ntp7924
Rp7925
(dp7926
g19
g20
sbag1
(g15
g3
Ntp7927
Rp7928
(dp7929
g19
(I0
I1
tp7930
sbag1
(g15
g3
Ntp7931
Rp7932
(dp7933
g19
(I1
I1
tp7934
sbag1
(g15
g3
Ntp7935
Rp7936
(dp7937
g19
(I1
I2
tp7938
sbag1
(g15
g3
Ntp7939
Rp7940
(dp7941
g19
(I2
I2
tp7942
sbag1
(g15
g3
Ntp7943
Rp7944
(dp7945
g19
(I2
I1
tp7946
sbag1
(g15
g3
Ntp7947
Rp7948
(dp7949
g19
(I3
I1
tp7950
sbag1
(g15
g3
Ntp7951
Rp7952
(dp7953
g19
(I3
I0
tp7954
sbag1
(g15
g3
Ntp7955
Rp7956
(dp7957
g19
(I2
I0
tp7958
sbag1
(g15
g3
Ntp7959
Rp7960
(dp7961
g19
(I1
I0
tp7962
sbag1
(g15
g3
Ntp7963
Rp7964
(dp7965
g19
(I1
I-1
tp7966
sbasg65
I11
sg66
Nsg67
S'URURDRDLLD'
p7967
sg69
S'10100100110'
p7968
sg71
Nsg72
Nsbag1
(g2
g3
Ntp7969
Rp7970
(dp7971
g7
I4
sg8
S'HPHPHHPPHHP'
p7972
sg10
Nsg11
I0
sg12
Nsg13
(lp7973
g1
(g15
g3
Ntp7974
Rp7975
(dp7976
g19
g20
sbag1
(g15
g3
Ntp7977
Rp7978
(dp7979
g19
(I0
I1
tp7980
sbag1
(g15
g3
Ntp7981
Rp7982
(dp7983
g19
(I1
I1
tp7984
sbag1
(g15
g3
Ntp7985
Rp7986
(dp7987
g19
(I1
I2
tp7988
sbag1
(g15
g3
Ntp7989
Rp7990
(dp7991
g19
(I2
I2
tp7992
sbag1
(g15
g3
Ntp7993
Rp7994
(dp7995
g19
(I2
I1
tp7996
sbag1
(g15
g3
Ntp7997
Rp7998
(dp7999
g19
(I3
I1
tp8000
sbag1
(g15
g3
Ntp8001
Rp8002
(dp8003
g19
(I3
I0
tp8004
sbag1
(g15
g3
Ntp8005
Rp8006
(dp8007
g19
(I2
I0
tp8008
sbag1
(g15
g3
Ntp8009
Rp8010
(dp8011
g19
(I1
I0
tp8012
sbag1
(g15
g3
Ntp8013
Rp8014
(dp8015
g19
(I1
I-1
tp8016
sbasg65
I11
sg66
Nsg67
g7967
sg69
S'10101100110'
p8017
sg71
Nsg72
Nsbag1
(g2
g3
Ntp8018
Rp8019
(dp8020
g7
I4
sg8
S'HPHPPHPPHHH'
p8021
sg10
Nsg11
I0
sg12
Nsg13
(lp8022
g1
(g15
g3
Ntp8023
Rp8024
(dp8025
g19
g20
sbag1
(g15
g3
Ntp8026
Rp8027
(dp8028
g19
(I0
I1
tp8029
sbag1
(g15
g3
Ntp8030
Rp8031
(dp8032
g19
(I1
I1
tp8033
sbag1
(g15
g3
Ntp8034
Rp8035
(dp8036
g19
(I1
I2
tp8037
sbag1
(g15
g3
Ntp8038
Rp8039
(dp8040
g19
(I2
I2
tp8041
sbag1
(g15
g3
Ntp8042
Rp8043
(dp8044
g19
(I2
I1
tp8045
sbag1
(g15
g3
Ntp8046
Rp8047
(dp8048
g19
(I3
I1
tp8049
sbag1
(g15
g3
Ntp8050
Rp8051
(dp8052
g19
(I3
I0
tp8053
sbag1
(g15
g3
Ntp8054
Rp8055
(dp8056
g19
(I2
I0
tp8057
sbag1
(g15
g3
Ntp8058
Rp8059
(dp8060
g19
(I1
I0
tp8061
sbag1
(g15
g3
Ntp8062
Rp8063
(dp8064
g19
(I1
I-1
tp8065
sbasg65
I11
sg66
Nsg67
g7967
sg69
S'10100100111'
p8066
sg71
Nsg72
Nsbag1
(g2
g3
Ntp8067
Rp8068
(dp8069
g7
I4
sg8
S'HPHPHHPPHHH'
p8070
sg10
Nsg11
I0
sg12
Nsg13
(lp8071
g1
(g15
g3
Ntp8072
Rp8073
(dp8074
g19
g20
sbag1
(g15
g3
Ntp8075
Rp8076
(dp8077
g19
(I0
I1
tp8078
sbag1
(g15
g3
Ntp8079
Rp8080
(dp8081
g19
(I1
I1
tp8082
sbag1
(g15
g3
Ntp8083
Rp8084
(dp8085
g19
(I1
I2
tp8086
sbag1
(g15
g3
Ntp8087
Rp8088
(dp8089
g19
(I2
I2
tp8090
sbag1
(g15
g3
Ntp8091
Rp8092
(dp8093
g19
(I2
I1
tp8094
sbag1
(g15
g3
Ntp8095
Rp8096
(dp8097
g19
(I3
I1
tp8098
sbag1
(g15
g3
Ntp8099
Rp8100
(dp8101
g19
(I3
I0
tp8102
sbag1
(g15
g3
Ntp8103
Rp8104
(dp8105
g19
(I2
I0
tp8106
sbag1
(g15
g3
Ntp8107
Rp8108
(dp8109
g19
(I1
I0
tp8110
sbag1
(g15
g3
Ntp8111
Rp8112
(dp8113
g19
(I1
I-1
tp8114
sbasg65
I11
sg66
Nsg67
g7967
sg69
S'10101100111'
p8115
sg71
Nsg72
Nsbag1
(g2
g3
Ntp8116
Rp8117
(dp8118
g7
I4
sg8
S'HHHPPPHHPPPH'
p8119
sg10
Nsg11
I0
sg12
Nsg13
(lp8120
g1
(g15
g3
Ntp8121
Rp8122
(dp8123
g19
g20
sbag1
(g15
g3
Ntp8124
Rp8125
(dp8126
g19
(I0
I1
tp8127
sbag1
(g15
g3
Ntp8128
Rp8129
(dp8130
g19
(I1
I1
tp8131
sbag1
(g15
g3
Ntp8132
Rp8133
(dp8134
g19
(I1
I2
tp8135
sbag1
(g15
g3
Ntp8136
Rp8137
(dp8138
g19
(I0
I2
tp8139
sbag1
(g15
g3
Ntp8140
Rp8141
(dp8142
g19
(I-1
I2
tp8143
sbag1
(g15
g3
Ntp8144
Rp8145
(dp8146
g19
(I-1
I1
tp8147
sbag1
(g15
g3
Ntp8148
Rp8149
(dp8150
g19
(I-1
I0
tp8151
sbag1
(g15
g3
Ntp8152
Rp8153
(dp8154
g19
(I-1
I-1
tp8155
sbag1
(g15
g3
Ntp8156
Rp8157
(dp8158
g19
(I0
I-1
tp8159
sbag1
(g15
g3
Ntp8160
Rp8161
(dp8162
g19
(I1
I-1
tp8163
sbag1
(g15
g3
Ntp8164
Rp8165
(dp8166
g19
(I1
I0
tp8167
sbasg65
I12
sg66
Nsg67
S'URULLDDDRRU'
p8168
sg69
S'111000110001'
p8169
sg71
Nsg72
Nsbag1
(g2
g3
Ntp8170
Rp8171
(dp8172
g7
I5
sg8
S'HHHPHPHHPPPH'
p8173
sg10
Nsg11
I0
sg12
Nsg13
(lp8174
g1
(g15
g3
Ntp8175
Rp8176
(dp8177
g19
g20
sbag1
(g15
g3
Ntp8178
Rp8179
(dp8180
g19
(I0
I1
tp8181
sbag1
(g15
g3
Ntp8182
Rp8183
(dp8184
g19
(I1
I1
tp8185
sbag1
(g15
g3
Ntp8186
Rp8187
(dp8188
g19
(I1
I2
tp8189
sbag1
(g15
g3
Ntp8190
Rp8191
(dp8192
g19
(I0
I2
tp8193
sbag1
(g15
g3
Ntp8194
Rp8195
(dp8196
g19
(I-1
I2
tp8197
sbag1
(g15
g3
Ntp8198
Rp8199
(dp8200
g19
(I-1
I1
tp8201
sbag1
(g15
g3
Ntp8202
Rp8203
(dp8204
g19
(I-1
I0
tp8205
sbag1
(g15
g3
Ntp8206
Rp8207
(dp8208
g19
(I-1
I-1
tp8209
sbag1
(g15
g3
Ntp8210
Rp8211
(dp8212
g19
(I0
I-1
tp8213
sbag1
(g15
g3
Ntp8214
Rp8215
(dp8216
g19
(I1
I-1
tp8217
sbag1
(g15
g3
Ntp8218
Rp8219
(dp8220
g19
(I1
I0
tp8221
sbasg65
I12
sg66
Nsg67
g8168
sg69
S'111010110001'
p8222
sg71
Nsg72
Nsbag1
(g2
g3
Ntp8223
Rp8224
(dp8225
g7
I5
sg8
S'HHHHHPHHPPPH'
p8226
sg10
Nsg11
I0
sg12
Nsg13
(lp8227
g1
(g15
g3
Ntp8228
Rp8229
(dp8230
g19
g20
sbag1
(g15
g3
Ntp8231
Rp8232
(dp8233
g19
(I0
I1
tp8234
sbag1
(g15
g3
Ntp8235
Rp8236
(dp8237
g19
(I1
I1
tp8238
sbag1
(g15
g3
Ntp8239
Rp8240
(dp8241
g19
(I1
I2
tp8242
sbag1
(g15
g3
Ntp8243
Rp8244
(dp8245
g19
(I0
I2
tp8246
sbag1
(g15
g3
Ntp8247
Rp8248
(dp8249
g19
(I-1
I2
tp8250
sbag1
(g15
g3
Ntp8251
Rp8252
(dp8253
g19
(I-1
I1
tp8254
sbag1
(g15
g3
Ntp8255
Rp8256
(dp8257
g19
(I-1
I0
tp8258
sbag1
(g15
g3
Ntp8259
Rp8260
(dp8261
g19
(I-1
I-1
tp8262
sbag1
(g15
g3
Ntp8263
Rp8264
(dp8265
g19
(I0
I-1
tp8266
sbag1
(g15
g3
Ntp8267
Rp8268
(dp8269
g19
(I1
I-1
tp8270
sbag1
(g15
g3
Ntp8271
Rp8272
(dp8273
g19
(I1
I0
tp8274
sbasg65
I12
sg66
Nsg67
g8168
sg69
S'111110110001'
p8275
sg71
Nsg72
Nsbag1
(g2
g3
Ntp8276
Rp8277
(dp8278
g7
I5
sg8
S'HHHPPPHHPHPH'
p8279
sg10
Nsg11
I0
sg12
Nsg13
(lp8280
g1
(g15
g3
Ntp8281
Rp8282
(dp8283
g19
g20
sbag1
(g15
g3
Ntp8284
Rp8285
(dp8286
g19
(I0
I1
tp8287
sbag1
(g15
g3
Ntp8288
Rp8289
(dp8290
g19
(I1
I1
tp8291
sbag1
(g15
g3
Ntp8292
Rp8293
(dp8294
g19
(I1
I2
tp8295
sbag1
(g15
g3
Ntp8296
Rp8297
(dp8298
g19
(I0
I2
tp8299
sbag1
(g15
g3
Ntp8300
Rp8301
(dp8302
g19
(I-1
I2
tp8303
sbag1
(g15
g3
Ntp8304
Rp8305
(dp8306
g19
(I-1
I1
tp8307
sbag1
(g15
g3
Ntp8308
Rp8309
(dp8310
g19
(I-1
I0
tp8311
sbag1
(g15
g3
Ntp8312
Rp8313
(dp8314
g19
(I-1
I-1
tp8315
sbag1
(g15
g3
Ntp8316
Rp8317
(dp8318
g19
(I0
I-1
tp8319
sbag1
(g15
g3
Ntp8320
Rp8321
(dp8322
g19
(I1
I-1
tp8323
sbag1
(g15
g3
Ntp8324
Rp8325
(dp8326
g19
(I1
I0
tp8327
sbasg65
I12
sg66
Nsg67
g8168
sg69
S'111000110101'
p8328
sg71
Nsg72
Nsbag1
(g2
g3
Ntp8329
Rp8330
(dp8331
g7
I6
sg8
S'HHHPHPHHPHPH'
p8332
sg10
Nsg11
I0
sg12
Nsg13
(lp8333
g1
(g15
g3
Ntp8334
Rp8335
(dp8336
g19
g20
sbag1
(g15
g3
Ntp8337
Rp8338
(dp8339
g19
(I0
I1
tp8340
sbag1
(g15
g3
Ntp8341
Rp8342
(dp8343
g19
(I1
I1
tp8344
sbag1
(g15
g3
Ntp8345
Rp8346
(dp8347
g19
(I1
I2
tp8348
sbag1
(g15
g3
Ntp8349
Rp8350
(dp8351
g19
(I0
I2
tp8352
sbag1
(g15
g3
Ntp8353
Rp8354
(dp8355
g19
(I-1
I2
tp8356
sbag1
(g15
g3
Ntp8357
Rp8358
(dp8359
g19
(I-1
I1
tp8360
sbag1
(g15
g3
Ntp8361
Rp8362
(dp8363
g19
(I-1
I0
tp8364
sbag1
(g15
g3
Ntp8365
Rp8366
(dp8367
g19
(I-1
I-1
tp8368
sbag1
(g15
g3
Ntp8369
Rp8370
(dp8371
g19
(I0
I-1
tp8372
sbag1
(g15
g3
Ntp8373
Rp8374
(dp8375
g19
(I1
I-1
tp8376
sbag1
(g15
g3
Ntp8377
Rp8378
(dp8379
g19
(I1
I0
tp8380
sbasg65
I12
sg66
Nsg67
g8168
sg69
S'111010110101'
p8381
sg71
Nsg72
Nsbag1
(g2
g3
Ntp8382
Rp8383
(dp8384
g7
I6
sg8
S'HHHHHPHHPHPH'
p8385
sg10
Nsg11
I0
sg12
Nsg13
(lp8386
g1
(g15
g3
Ntp8387
Rp8388
(dp8389
g19
g20
sbag1
(g15
g3
Ntp8390
Rp8391
(dp8392
g19
(I0
I1
tp8393
sbag1
(g15
g3
Ntp8394
Rp8395
(dp8396
g19
(I1
I1
tp8397
sbag1
(g15
g3
Ntp8398
Rp8399
(dp8400
g19
(I1
I2
tp8401
sbag1
(g15
g3
Ntp8402
Rp8403
(dp8404
g19
(I0
I2
tp8405
sbag1
(g15
g3
Ntp8406
Rp8407
(dp8408
g19
(I-1
I2
tp8409
sbag1
(g15
g3
Ntp8410
Rp8411
(dp8412
g19
(I-1
I1
tp8413
sbag1
(g15
g3
Ntp8414
Rp8415
(dp8416
g19
(I-1
I0
tp8417
sbag1
(g15
g3
Ntp8418
Rp8419
(dp8420
g19
(I-1
I-1
tp8421
sbag1
(g15
g3
Ntp8422
Rp8423
(dp8424
g19
(I0
I-1
tp8425
sbag1
(g15
g3
Ntp8426
Rp8427
(dp8428
g19
(I1
I-1
tp8429
sbag1
(g15
g3
Ntp8430
Rp8431
(dp8432
g19
(I1
I0
tp8433
sbasg65
I12
sg66
Nsg67
g8168
sg69
S'111110110101'
p8434
sg71
Nsg72
Nsbag1
(g2
g3
Ntp8435
Rp8436
(dp8437
g7
I3
sg8
S'HPPHPHPH'
p8438
sg10
Nsg11
I0
sg12
Nsg13
(lp8439
g1
(g15
g3
Ntp8440
Rp8441
(dp8442
g19
g20
sbag1
(g15
g3
Ntp8443
Rp8444
(dp8445
g19
(I0
I1
tp8446
sbag1
(g15
g3
Ntp8447
Rp8448
(dp8449
g19
(I1
I1
tp8450
sbag1
(g15
g3
Ntp8451
Rp8452
(dp8453
g19
(I1
I0
tp8454
sbag1
(g15
g3
Ntp8455
Rp8456
(dp8457
g19
(I1
I-1
tp8458
sbag1
(g15
g3
Ntp8459
Rp8460
(dp8461
g19
(I0
I-1
tp8462
sbag1
(g15
g3
Ntp8463
Rp8464
(dp8465
g19
(I-1
I-1
tp8466
sbag1
(g15
g3
Ntp8467
Rp8468
(dp8469
g19
(I-1
I0
tp8470
sbasg65
I8
sg66
Nsg67
S'URDDLLU'
p8471
sg69
S'10010101'
p8472
sg71
Nsg72
Nsbag1
(g2
g3
Ntp8473
Rp8474
(dp8475
g7
I3
sg8
S'HHPHPHPH'
p8476
sg10
Nsg11
I0
sg12
Nsg13
(lp8477
g1
(g15
g3
Ntp8478
Rp8479
(dp8480
g19
g20
sbag1
(g15
g3
Ntp8481
Rp8482
(dp8483
g19
(I0
I1
tp8484
sbag1
(g15
g3
Ntp8485
Rp8486
(dp8487
g19
(I1
I1
tp8488
sbag1
(g15
g3
Ntp8489
Rp8490
(dp8491
g19
(I1
I0
tp8492
sbag1
(g15
g3
Ntp8493
Rp8494
(dp8495
g19
(I1
I-1
tp8496
sbag1
(g15
g3
Ntp8497
Rp8498
(dp8499
g19
(I0
I-1
tp8500
sbag1
(g15
g3
Ntp8501
Rp8502
(dp8503
g19
(I-1
I-1
tp8504
sbag1
(g15
g3
Ntp8505
Rp8506
(dp8507
g19
(I-1
I0
tp8508
sbasg65
I8
sg66
Nsg67
g8471
sg69
S'11010101'
p8509
sg71
Nsg72
Nsbag1
(g2
g3
Ntp8510
Rp8511
(dp8512
g7
I4
sg8
S'PHPPHPHPPHH'
p8513
sg10
Nsg11
I0
sg12
Nsg13
(lp8514
g1
(g15
g3
Ntp8515
Rp8516
(dp8517
g19
g20
sbag1
(g15
g3
Ntp8518
Rp8519
(dp8520
g19
(I0
I1
tp8521
sbag1
(g15
g3
Ntp8522
Rp8523
(dp8524
g19
(I1
I1
tp8525
sbag1
(g15
g3
Ntp8526
Rp8527
(dp8528
g19
(I1
I2
tp8529
sbag1
(g15
g3
Ntp8530
Rp8531
(dp8532
g19
(I0
I2
tp8533
sbag1
(g15
g3
Ntp8534
Rp8535
(dp8536
g19
(I0
I3
tp8537
sbag1
(g15
g3
Ntp8538
Rp8539
(dp8540
g19
(I-1
I3
tp8541
sbag1
(g15
g3
Ntp8542
Rp8543
(dp8544
g19
(I-2
I3
tp8545
sbag1
(g15
g3
Ntp8546
Rp8547
(dp8548
g19
(I-2
I2
tp8549
sbag1
(g15
g3
Ntp8550
Rp8551
(dp8552
g19
(I-1
I2
tp8553
sbag1
(g15
g3
Ntp8554
Rp8555
(dp8556
g19
(I-1
I1
tp8557
sbasg65
I11
sg66
Nsg67
S'URULULLDRD'
p8558
sg69
S'01001010011'
p8559
sg71
Nsg72
Nsbag1
(g2
g3
Ntp8560
Rp8561
(dp8562
g7
I4
sg8
S'PHHPHPHPPHH'
p8563
sg10
Nsg11
I0
sg12
Nsg13
(lp8564
g1
(g15
g3
Ntp8565
Rp8566
(dp8567
g19
g20
sbag1
(g15
g3
Ntp8568
Rp8569
(dp8570
g19
(I0
I1
tp8571
sbag1
(g15
g3
Ntp8572
Rp8573
(dp8574
g19
(I1
I1
tp8575
sbag1
(g15
g3
Ntp8576
Rp8577
(dp8578
g19
(I1
I2
tp8579
sbag1
(g15
g3
Ntp8580
Rp8581
(dp8582
g19
(I0
I2
tp8583
sbag1
(g15
g3
Ntp8584
Rp8585
(dp8586
g19
(I0
I3
tp8587
sbag1
(g15
g3
Ntp8588
Rp8589
(dp8590
g19
(I-1
I3
tp8591
sbag1
(g15
g3
Ntp8592
Rp8593
(dp8594
g19
(I-2
I3
tp8595
sbag1
(g15
g3
Ntp8596
Rp8597
(dp8598
g19
(I-2
I2
tp8599
sbag1
(g15
g3
Ntp8600
Rp8601
(dp8602
g19
(I-1
I2
tp8603
sbag1
(g15
g3
Ntp8604
Rp8605
(dp8606
g19
(I-1
I1
tp8607
sbasg65
I11
sg66
Nsg67
g8558
sg69
S'01101010011'
p8608
sg71
Nsg72
Nsbag1
(g2
g3
Ntp8609
Rp8610
(dp8611
g7
I4
sg8
S'PHPPHPHPHHH'
p8612
sg10
Nsg11
I0
sg12
Nsg13
(lp8613
g1
(g15
g3
Ntp8614
Rp8615
(dp8616
g19
g20
sbag1
(g15
g3
Ntp8617
Rp8618
(dp8619
g19
(I0
I1
tp8620
sbag1
(g15
g3
Ntp8621
Rp8622
(dp8623
g19
(I1
I1
tp8624
sbag1
(g15
g3
Ntp8625
Rp8626
(dp8627
g19
(I1
I2
tp8628
sbag1
(g15
g3
Ntp8629
Rp8630
(dp8631
g19
(I0
I2
tp8632
sbag1
(g15
g3
Ntp8633
Rp8634
(dp8635
g19
(I0
I3
tp8636
sbag1
(g15
g3
Ntp8637
Rp8638
(dp8639
g19
(I-1
I3
tp8640
sbag1
(g15
g3
Ntp8641
Rp8642
(dp8643
g19
(I-2
I3
tp8644
sbag1
(g15
g3
Ntp8645
Rp8646
(dp8647
g19
(I-2
I2
tp8648
sbag1
(g15
g3
Ntp8649
Rp8650
(dp8651
g19
(I-1
I2
tp8652
sbag1
(g15
g3
Ntp8653
Rp8654
(dp8655
g19
(I-1
I1
tp8656
sbasg65
I11
sg66
Nsg67
g8558
sg69
S'01001010111'
p8657
sg71
Nsg72
Nsbag1
(g2
g3
Ntp8658
Rp8659
(dp8660
g7
I4
sg8
S'PHHPHPHPHHH'
p8661
sg10
Nsg11
I0
sg12
Nsg13
(lp8662
g1
(g15
g3
Ntp8663
Rp8664
(dp8665
g19
g20
sbag1
(g15
g3
Ntp8666
Rp8667
(dp8668
g19
(I0
I1
tp8669
sbag1
(g15
g3
Ntp8670
Rp8671
(dp8672
g19
(I1
I1
tp8673
sbag1
(g15
g3
Ntp8674
Rp8675
(dp8676
g19
(I1
I2
tp8677
sbag1
(g15
g3
Ntp8678
Rp8679
(dp8680
g19
(I0
I2
tp8681
sbag1
(g15
g3
Ntp8682
Rp8683
(dp8684
g19
(I0
I3
tp8685
sbag1
(g15
g3
Ntp8686
Rp8687
(dp8688
g19
(I-1
I3
tp8689
sbag1
(g15
g3
Ntp8690
Rp8691
(dp8692
g19
(I-2
I3
tp8693
sbag1
(g15
g3
Ntp8694
Rp8695
(dp8696
g19
(I-2
I2
tp8697
sbag1
(g15
g3
Ntp8698
Rp8699
(dp8700
g19
(I-1
I2
tp8701
sbag1
(g15
g3
Ntp8702
Rp8703
(dp8704
g19
(I-1
I1
tp8705
sbasg65
I11
sg66
Nsg67
g8558
sg69
S'01101010111'
p8706
sg71
Nsg72
Nsbag1
(g2
g3
Ntp8707
Rp8708
(dp8709
g7
I2
sg8
S'HPHPPH'
p8710
sg10
Nsg11
I0
sg12
Nsg13
(lp8711
g1
(g15
g3
Ntp8712
Rp8713
(dp8714
g19
g20
sbag1
(g15
g3
Ntp8715
Rp8716
(dp8717
g19
(I0
I1
tp8718
sbag1
(g15
g3
Ntp8719
Rp8720
(dp8721
g19
(I1
I1
tp8722
sbag1
(g15
g3
Ntp8723
Rp8724
(dp8725
g19
(I2
I1
tp8726
sbag1
(g15
g3
Ntp8727
Rp8728
(dp8729
g19
(I2
I0
tp8730
sbag1
(g15
g3
Ntp8731
Rp8732
(dp8733
g19
(I1
I0
tp8734
sbasg65
I6
sg66
Nsg67
S'URRDL'
p8735
sg69
S'101001'
p8736
sg71
Nsg72
Nsbag1
(g2
g3
Ntp8737
Rp8738
(dp8739
g7
I2
sg8
S'HHHPPH'
p8740
sg10
Nsg11
I0
sg12
Nsg13
(lp8741
g1
(g15
g3
Ntp8742
Rp8743
(dp8744
g19
g20
sbag1
(g15
g3
Ntp8745
Rp8746
(dp8747
g19
(I0
I1
tp8748
sbag1
(g15
g3
Ntp8749
Rp8750
(dp8751
g19
(I1
I1
tp8752
sbag1
(g15
g3
Ntp8753
Rp8754
(dp8755
g19
(I2
I1
tp8756
sbag1
(g15
g3
Ntp8757
Rp8758
(dp8759
g19
(I2
I0
tp8760
sbag1
(g15
g3
Ntp8761
Rp8762
(dp8763
g19
(I1
I0
tp8764
sbasg65
I6
sg66
Nsg67
g8735
sg69
S'111001'
p8765
sg71
Nsg72
Nsbag1
(g2
g3
Ntp8766
Rp8767
(dp8768
g7
I2
sg8
S'HPHPHH'
p8769
sg10
Nsg11
I0
sg12
Nsg13
(lp8770
g1
(g15
g3
Ntp8771
Rp8772
(dp8773
g19
g20
sbag1
(g15
g3
Ntp8774
Rp8775
(dp8776
g19
(I0
I1
tp8777
sbag1
(g15
g3
Ntp8778
Rp8779
(dp8780
g19
(I1
I1
tp8781
sbag1
(g15
g3
Ntp8782
Rp8783
(dp8784
g19
(I2
I1
tp8785
sbag1
(g15
g3
Ntp8786
Rp8787
(dp8788
g19
(I2
I0
tp8789
sbag1
(g15
g3
Ntp8790
Rp8791
(dp8792
g19
(I1
I0
tp8793
sbasg65
I6
sg66
Nsg67
g8735
sg69
S'101011'
p8794
sg71
Nsg72
Nsbag1
(g2
g3
Ntp8795
Rp8796
(dp8797
g7
I3
sg8
S'PHPPHHPPHP'
p8798
sg10
Nsg11
I0
sg12
Nsg13
(lp8799
g1
(g15
g3
Ntp8800
Rp8801
(dp8802
g19
g20
sbag1
(g15
g3
Ntp8803
Rp8804
(dp8805
g19
(I0
I1
tp8806
sbag1
(g15
g3
Ntp8807
Rp8808
(dp8809
g19
(I1
I1
tp8810
sbag1
(g15
g3
Ntp8811
Rp8812
(dp8813
g19
(I1
I2
tp8814
sbag1
(g15
g3
Ntp8815
Rp8816
(dp8817
g19
(I0
I2
tp8818
sbag1
(g15
g3
Ntp8819
Rp8820
(dp8821
g19
(I-1
I2
tp8822
sbag1
(g15
g3
Ntp8823
Rp8824
(dp8825
g19
(I-2
I2
tp8826
sbag1
(g15
g3
Ntp8827
Rp8828
(dp8829
g19
(I-2
I1
tp8830
sbag1
(g15
g3
Ntp8831
Rp8832
(dp8833
g19
(I-1
I1
tp8834
sbag1
(g15
g3
Ntp8835
Rp8836
(dp8837
g19
(I-1
I0
tp8838
sbasg65
I10
sg66
Nsg67
S'URULLLDRD'
p8839
sg69
S'0100110010'
p8840
sg71
Nsg72
Nsbag1
(g2
g3
Ntp8841
Rp8842
(dp8843
g7
I4
sg8
S'HHPPHPHPPHP'
p8844
sg10
Nsg11
I0
sg12
Nsg13
(lp8845
g1
(g15
g3
Ntp8846
Rp8847
(dp8848
g19
g20
sbag1
(g15
g3
Ntp8849
Rp8850
(dp8851
g19
(I0
I1
tp8852
sbag1
(g15
g3
Ntp8853
Rp8854
(dp8855
g19
(I1
I1
tp8856
sbag1
(g15
g3
Ntp8857
Rp8858
(dp8859
g19
(I1
I2
tp8860
sbag1
(g15
g3
Ntp8861
Rp8862
(dp8863
g19
(I0
I2
tp8864
sbag1
(g15
g3
Ntp8865
Rp8866
(dp8867
g19
(I-1
I2
tp8868
sbag1
(g15
g3
Ntp8869
Rp8870
(dp8871
g19
(I-1
I1
tp8872
sbag1
(g15
g3
Ntp8873
Rp8874
(dp8875
g19
(I-2
I1
tp8876
sbag1
(g15
g3
Ntp8877
Rp8878
(dp8879
g19
(I-2
I0
tp8880
sbag1
(g15
g3
Ntp8881
Rp8882
(dp8883
g19
(I-1
I0
tp8884
sbag1
(g15
g3
Ntp8885
Rp8886
(dp8887
g19
(I-1
I-1
tp8888
sbasg65
I11
sg66
Nsg67
S'URULLDLDRD'
p8889
sg69
S'11001010010'
p8890
sg71
Nsg72
Nsbag1
(g2
g3
Ntp8891
Rp8892
(dp8893
g7
I4
sg8
S'HHHPHPHPPHP'
p8894
sg10
Nsg11
I0
sg12
Nsg13
(lp8895
g1
(g15
g3
Ntp8896
Rp8897
(dp8898
g19
g20
sbag1
(g15
g3
Ntp8899
Rp8900
(dp8901
g19
(I0
I1
tp8902
sbag1
(g15
g3
Ntp8903
Rp8904
(dp8905
g19
(I1
I1
tp8906
sbag1
(g15
g3
Ntp8907
Rp8908
(dp8909
g19
(I1
I2
tp8910
sbag1
(g15
g3
Ntp8911
Rp8912
(dp8913
g19
(I0
I2
tp8914
sbag1
(g15
g3
Ntp8915
Rp8916
(dp8917
g19
(I-1
I2
tp8918
sbag1
(g15
g3
Ntp8919
Rp8920
(dp8921
g19
(I-1
I1
tp8922
sbag1
(g15
g3
Ntp8923
Rp8924
(dp8925
g19
(I-2
I1
tp8926
sbag1
(g15
g3
Ntp8927
Rp8928
(dp8929
g19
(I-2
I0
tp8930
sbag1
(g15
g3
Ntp8931
Rp8932
(dp8933
g19
(I-1
I0
tp8934
sbag1
(g15
g3
Ntp8935
Rp8936
(dp8937
g19
(I-1
I-1
tp8938
sbasg65
I11
sg66
Nsg67
g8889
sg69
S'11101010010'
p8939
sg71
Nsg72
Nsbag1
(g2
g3
Ntp8940
Rp8941
(dp8942
g7
I4
sg8
S'HHPPHPHPHHP'
p8943
sg10
Nsg11
I0
sg12
Nsg13
(lp8944
g1
(g15
g3
Ntp8945
Rp8946
(dp8947
g19
g20
sbag1
(g15
g3
Ntp8948
Rp8949
(dp8950
g19
(I0
I1
tp8951
sbag1
(g15
g3
Ntp8952
Rp8953
(dp8954
g19
(I1
I1
tp8955
sbag1
(g15
g3
Ntp8956
Rp8957
(dp8958
g19
(I1
I2
tp8959
sbag1
(g15
g3
Ntp8960
Rp8961
(dp8962
g19
(I0
I2
tp8963
sbag1
(g15
g3
Ntp8964
Rp8965
(dp8966
g19
(I-1
I2
tp8967
sbag1
(g15
g3
Ntp8968
Rp8969
(dp8970
g19
(I-1
I1
tp8971
sbag1
(g15
g3
Ntp8972
Rp8973
(dp8974
g19
(I-2
I1
tp8975
sbag1
(g15
g3
Ntp8976
Rp8977
(dp8978
g19
(I-2
I0
tp8979
sbag1
(g15
g3
Ntp8980
Rp8981
(dp8982
g19
(I-1
I0
tp8983
sbag1
(g15
g3
Ntp8984
Rp8985
(dp8986
g19
(I-1
I-1
tp8987
sbasg65
I11
sg66
Nsg67
g8889
sg69
S'11001010110'
p8988
sg71
Nsg72
Nsbag1
(g2
g3
Ntp8989
Rp8990
(dp8991
g7
I4
sg8
S'HHHPHPHPHHP'
p8992
sg10
Nsg11
I0
sg12
Nsg13
(lp8993
g1
(g15
g3
Ntp8994
Rp8995
(dp8996
g19
g20
sbag1
(g15
g3
Ntp8997
Rp8998
(dp8999
g19
(I0
I1
tp9000
sbag1
(g15
g3
Ntp9001
Rp9002
(dp9003
g19
(I1
I1
tp9004
sbag1
(g15
g3
Ntp9005
Rp9006
(dp9007
g19
(I1
I2
tp9008
sbag1
(g15
g3
Ntp9009
Rp9010
(dp9011
g19
(I0
I2
tp9012
sbag1
(g15
g3
Ntp9013
Rp9014
(dp9015
g19
(I-1
I2
tp9016
sbag1
(g15
g3
Ntp9017
Rp9018
(dp9019
g19
(I-1
I1
tp9020
sbag1
(g15
g3
Ntp9021
Rp9022
(dp9023
g19
(I-2
I1
tp9024
sbag1
(g15
g3
Ntp9025
Rp9026
(dp9027
g19
(I-2
I0
tp9028
sbag1
(g15
g3
Ntp9029
Rp9030
(dp9031
g19
(I-1
I0
tp9032
sbag1
(g15
g3
Ntp9033
Rp9034
(dp9035
g19
(I-1
I-1
tp9036
sbasg65
I11
sg66
Nsg67
g8889
sg69
S'11101010110'
p9037
sg71
Nsg72
Nsbag1
(g2
g3
Ntp9038
Rp9039
(dp9040
g7
I3
sg8
S'PHPPHHPPH'
p9041
sg10
Nsg11
I0
sg12
Nsg13
(lp9042
g1
(g15
g3
Ntp9043
Rp9044
(dp9045
g19
g20
sbag1
(g15
g3
Ntp9046
Rp9047
(dp9048
g19
(I0
I1
tp9049
sbag1
(g15
g3
Ntp9050
Rp9051
(dp9052
g19
(I1
I1
tp9053
sbag1
(g15
g3
Ntp9054
Rp9055
(dp9056
g19
(I1
I2
tp9057
sbag1
(g15
g3
Ntp9058
Rp9059
(dp9060
g19
(I0
I2
tp9061
sbag1
(g15
g3
Ntp9062
Rp9063
(dp9064
g19
(I-1
I2
tp9065
sbag1
(g15
g3
Ntp9066
Rp9067
(dp9068
g19
(I-2
I2
tp9069
sbag1
(g15
g3
Ntp9070
Rp9071
(dp9072
g19
(I-2
I1
tp9073
sbag1
(g15
g3
Ntp9074
Rp9075
(dp9076
g19
(I-1
I1
tp9077
sbasg65
I9
sg66
Nsg67
S'URULLLDR'
p9078
sg69
S'010011001'
p9079
sg71
Nsg72
Nsbag1
(g2
g3
Ntp9080
Rp9081
(dp9082
g7
I3
sg8
S'HPPHHPPH'
p9083
sg10
Nsg11
I0
sg12
Nsg13
(lp9084
g1
(g15
g3
Ntp9085
Rp9086
(dp9087
g19
g20
sbag1
(g15
g3
Ntp9088
Rp9089
(dp9090
g19
(I0
I1
tp9091
sbag1
(g15
g3
Ntp9092
Rp9093
(dp9094
g19
(I1
I1
tp9095
sbag1
(g15
g3
Ntp9096
Rp9097
(dp9098
g19
(I1
I0
tp9099
sbag1
(g15
g3
Ntp9100
Rp9101
(dp9102
g19
(I1
I-1
tp9103
sbag1
(g15
g3
Ntp9104
Rp9105
(dp9106
g19
(I1
I-2
tp9107
sbag1
(g15
g3
Ntp9108
Rp9109
(dp9110
g19
(I0
I-2
tp9111
sbag1
(g15
g3
Ntp9112
Rp9113
(dp9114
g19
(I0
I-1
tp9115
sbasg65
I8
sg66
Nsg67
S'URDDDLU'
p9116
sg69
S'10011001'
p9117
sg71
Nsg72
Nsba.