(lp0
ccopy_reg
_reconstructor
p1
(cnativeChain
NativeChain
p2
c__builtin__
object
p3
Ntp4
Rp5
(dp6
S'nativeEnergy'
p7
I4
sS'hpstring'
p8
S'PHHPPHPPHPH'
p9
sS'ifCat'
p10
I00
sS'generatedNumber'
p11
I0
sS'ifSub'
p12
I01
sS'coordinates'
p13
(lp14
g1
(ccoordinate
Coordinate
p15
g3
Ntp16
Rp17
(dp18
S'coordTuple'
p19
(I0
I0
tp20
sbag1
(g15
g3
Ntp21
Rp22
(dp23
g19
(I0
I1
tp24
sbag1
(g15
g3
Ntp25
Rp26
(dp27
g19
(I1
I1
tp28
sbag1
(g15
g3
Ntp29
Rp30
(dp31
g19
(I2
I1
tp32
sbag1
(g15
g3
Ntp33
Rp34
(dp35
g19
(I2
I2
tp36
sbag1
(g15
g3
Ntp37
Rp38
(dp39
g19
(I1
I2
tp40
sbag1
(g15
g3
Ntp41
Rp42
(dp43
g19
(I1
I3
tp44
sbag1
(g15
g3
Ntp45
Rp46
(dp47
g19
(I0
I3
tp48
sbag1
(g15
g3
Ntp49
Rp50
(dp51
g19
(I0
I2
tp52
sbag1
(g15
g3
Ntp53
Rp54
(dp55
g19
(I-1
I2
tp56
sbag1
(g15
g3
Ntp57
Rp58
(dp59
g19
(I-1
I1
tp60
sbasS'n'
p61
I11
sS'catalystPattern'
p62
S''
p63
sS'vec'
p64
S'URRULULDLD'
p65
sS'Type'
p66
NsS'substratePattern'
p67
S'HHPP'
p68
sbag1
(g2
g3
Ntp69
Rp70
(dp71
g7
I4
sg8
S'HHHPPHPPHPH'
p72
sg10
I00
sg11
I0
sg12
I01
sg13
(lp73
g1
(g15
g3
Ntp74
Rp75
(dp76
g19
g20
sbag1
(g15
g3
Ntp77
Rp78
(dp79
g19
(I0
I1
tp80
sbag1
(g15
g3
Ntp81
Rp82
(dp83
g19
(I1
I1
tp84
sbag1
(g15
g3
Ntp85
Rp86
(dp87
g19
(I2
I1
tp88
sbag1
(g15
g3
Ntp89
Rp90
(dp91
g19
(I2
I2
tp92
sbag1
(g15
g3
Ntp93
Rp94
(dp95
g19
(I1
I2
tp96
sbag1
(g15
g3
Ntp97
Rp98
(dp99
g19
(I1
I3
tp100
sbag1
(g15
g3
Ntp101
Rp102
(dp103
g19
(I0
I3
tp104
sbag1
(g15
g3
Ntp105
Rp106
(dp107
g19
(I0
I2
tp108
sbag1
(g15
g3
Ntp109
Rp110
(dp111
g19
(I-1
I2
tp112
sbag1
(g15
g3
Ntp113
Rp114
(dp115
g19
(I-1
I1
tp116
sbasg61
I11
sg62
g63
sg64
g65
sg66
Nsg67
S'HHHPP'
p117
sbag1
(g2
g3
Ntp118
Rp119
(dp120
g7
I4
sg8
S'PHHPPHHPHPH'
p121
sg10
I00
sg11
I0
sg12
I01
sg13
(lp122
g1
(g15
g3
Ntp123
Rp124
(dp125
g19
g20
sbag1
(g15
g3
Ntp126
Rp127
(dp128
g19
(I0
I1
tp129
sbag1
(g15
g3
Ntp130
Rp131
(dp132
g19
(I1
I1
tp133
sbag1
(g15
g3
Ntp134
Rp135
(dp136
g19
(I2
I1
tp137
sbag1
(g15
g3
Ntp138
Rp139
(dp140
g19
(I2
I2
tp141
sbag1
(g15
g3
Ntp142
Rp143
(dp144
g19
(I1
I2
tp145
sbag1
(g15
g3
Ntp146
Rp147
(dp148
g19
(I1
I3
tp149
sbag1
(g15
g3
Ntp150
Rp151
(dp152
g19
(I0
I3
tp153
sbag1
(g15
g3
Ntp154
Rp155
(dp156
g19
(I0
I2
tp157
sbag1
(g15
g3
Ntp158
Rp159
(dp160
g19
(I-1
I2
tp161
sbag1
(g15
g3
Ntp162
Rp163
(dp164
g19
(I-1
I1
tp165
sbasg61
I11
sg62
g63
sg64
g65
sg66
Nsg67
S'HHPH'
p166
sbag1
(g2
g3
Ntp167
Rp168
(dp169
g7
I4
sg8
S'HHHPPHHPHPH'
p170
sg10
I00
sg11
I0
sg12
I01
sg13
(lp171
g1
(g15
g3
Ntp172
Rp173
(dp174
g19
g20
sbag1
(g15
g3
Ntp175
Rp176
(dp177
g19
(I0
I1
tp178
sbag1
(g15
g3
Ntp179
Rp180
(dp181
g19
(I1
I1
tp182
sbag1
(g15
g3
Ntp183
Rp184
(dp185
g19
(I2
I1
tp186
sbag1
(g15
g3
Ntp187
Rp188
(dp189
g19
(I2
I2
tp190
sbag1
(g15
g3
Ntp191
Rp192
(dp193
g19
(I1
I2
tp194
sbag1
(g15
g3
Ntp195
Rp196
(dp197
g19
(I1
I3
tp198
sbag1
(g15
g3
Ntp199
Rp200
(dp201
g19
(I0
I3
tp202
sbag1
(g15
g3
Ntp203
Rp204
(dp205
g19
(I0
I2
tp206
sbag1
(g15
g3
Ntp207
Rp208
(dp209
g19
(I-1
I2
tp210
sbag1
(g15
g3
Ntp211
Rp212
(dp213
g19
(I-1
I1
tp214
sbasg61
I11
sg62
g63
sg64
g65
sg66
Nsg67
S'HHHPP'
p215
sbag1
(g2
g3
Ntp216
Rp217
(dp218
g7
I4
sg8
S'HPHPPHHPPHP'
p219
sg10
I00
sg11
I0
sg12
I01
sg13
(lp220
g1
(g15
g3
Ntp221
Rp222
(dp223
g19
g20
sbag1
(g15
g3
Ntp224
Rp225
(dp226
g19
(I0
I1
tp227
sbag1
(g15
g3
Ntp228
Rp229
(dp230
g19
(I1
I1
tp231
sbag1
(g15
g3
Ntp232
Rp233
(dp234
g19
(I2
I1
tp235
sbag1
(g15
g3
Ntp236
Rp237
(dp238
g19
(I2
I0
tp239
sbag1
(g15
g3
Ntp240
Rp241
(dp242
g19
(I1
I0
tp243
sbag1
(g15
g3
Ntp244
Rp245
(dp246
g19
(I1
I-1
tp247
sbag1
(g15
g3
Ntp248
Rp249
(dp250
g19
(I1
I-2
tp251
sbag1
(g15
g3
Ntp252
Rp253
(dp254
g19
(I0
I-2
tp255
sbag1
(g15
g3
Ntp256
Rp257
(dp258
g19
(I0
I-1
tp259
sbag1
(g15
g3
Ntp260
Rp261
(dp262
g19
(I-1
I-1
tp263
sbasg61
I11
sg62
g63
sg64
S'URRDLDDLUL'
p264
sg66
Nsg67
S'HHPP'
p265
sbag1
(g2
g3
Ntp266
Rp267
(dp268
g7
I4
sg8
S'HPHPPHHPPHH'
p269
sg10
I00
sg11
I0
sg12
I01
sg13
(lp270
g1
(g15
g3
Ntp271
Rp272
(dp273
g19
g20
sbag1
(g15
g3
Ntp274
Rp275
(dp276
g19
(I0
I1
tp277
sbag1
(g15
g3
Ntp278
Rp279
(dp280
g19
(I1
I1
tp281
sbag1
(g15
g3
Ntp282
Rp283
(dp284
g19
(I2
I1
tp285
sbag1
(g15
g3
Ntp286
Rp287
(dp288
g19
(I2
I0
tp289
sbag1
(g15
g3
Ntp290
Rp291
(dp292
g19
(I1
I0
tp293
sbag1
(g15
g3
Ntp294
Rp295
(dp296
g19
(I1
I-1
tp297
sbag1
(g15
g3
Ntp298
Rp299
(dp300
g19
(I1
I-2
tp301
sbag1
(g15
g3
Ntp302
Rp303
(dp304
g19
(I0
I-2
tp305
sbag1
(g15
g3
Ntp306
Rp307
(dp308
g19
(I0
I-1
tp309
sbag1
(g15
g3
Ntp310
Rp311
(dp312
g19
(I-1
I-1
tp313
sbasg61
I11
sg62
g63
sg64
g264
sg66
Nsg67
S'HHPP'
p314
sbag1
(g2
g3
Ntp315
Rp316
(dp317
g7
I4
sg8
S'HPPHPPHPPH'
p318
sg10
I01
sg11
I0
sg12
I00
sg13
(lp319
g1
(g15
g3
Ntp320
Rp321
(dp322
g19
g20
sbag1
(g15
g3
Ntp323
Rp324
(dp325
g19
(I0
I1
tp326
sbag1
(g15
g3
Ntp327
Rp328
(dp329
g19
(I1
I1
tp330
sbag1
(g15
g3
Ntp331
Rp332
(dp333
g19
(I1
I0
tp334
sbag1
(g15
g3
Ntp335
Rp336
(dp337
g19
(I2
I0
tp338
sbag1
(g15
g3
Ntp339
Rp340
(dp341
g19
(I2
I-1
tp342
sbag1
(g15
g3
Ntp343
Rp344
(dp345
g19
(I1
I-1
tp346
sbag1
(g15
g3
Ntp347
Rp348
(dp349
g19
(I1
I-2
tp350
sbag1
(g15
g3
Ntp351
Rp352
(dp353
g19
(I0
I-2
tp354
sbag1
(g15
g3
Ntp355
Rp356
(dp357
g19
(I0
I-1
tp358
sbasg61
I10
sg62
S'HHPP'
p359
sg64
S'URDRDLDLU'
p360
sg66
Nsg67
g63
sbag1
(g2
g3
Ntp361
Rp362
(dp363
g7
I4
sg8
S'HHPHPPHPPH'
p364
sg10
I01
sg11
I1
sg12
I01
sg13
(lp365
g1
(g15
g3
Ntp366
Rp367
(dp368
g19
g20
sbag1
(g15
g3
Ntp369
Rp370
(dp371
g19
(I0
I1
tp372
sbag1
(g15
g3
Ntp373
Rp374
(dp375
g19
(I1
I1
tp376
sbag1
(g15
g3
Ntp377
Rp378
(dp379
g19
(I1
I0
tp380
sbag1
(g15
g3
Ntp381
Rp382
(dp383
g19
(I2
I0
tp384
sbag1
(g15
g3
Ntp385
Rp386
(dp387
g19
(I2
I-1
tp388
sbag1
(g15
g3
Ntp389
Rp390
(dp391
g19
(I1
I-1
tp392
sbag1
(g15
g3
Ntp393
Rp394
(dp395
g19
(I1
I-2
tp396
sbag1
(g15
g3
Ntp397
Rp398
(dp399
g19
(I0
I-2
tp400
sbag1
(g15
g3
Ntp401
Rp402
(dp403
g19
(I0
I-1
tp404
sbasg61
I10
sg62
S'HHHPP'
p405
sg64
g360
sg66
(I10
S'HHPH'
p406
g405
tp407
sg67
g406
sbag1
(g2
g3
Ntp408
Rp409
(dp410
g7
I4
sg8
S'HPPHPPHPHH'
p411
sg10
I01
sg11
I1
sg12
I00
sg13
(lp412
g1
(g15
g3
Ntp413
Rp414
(dp415
g19
g20
sbag1
(g15
g3
Ntp416
Rp417
(dp418
g19
(I0
I1
tp419
sbag1
(g15
g3
Ntp420
Rp421
(dp422
g19
(I1
I1
tp423
sbag1
(g15
g3
Ntp424
Rp425
(dp426
g19
(I1
I0
tp427
sbag1
(g15
g3
Ntp428
Rp429
(dp430
g19
(I2
I0
tp431
sbag1
(g15
g3
Ntp432
Rp433
(dp434
g19
(I2
I-1
tp435
sbag1
(g15
g3
Ntp436
Rp437
(dp438
g19
(I1
I-1
tp439
sbag1
(g15
g3
Ntp440
Rp441
(dp442
g19
(I1
I-2
tp443
sbag1
(g15
g3
Ntp444
Rp445
(dp446
g19
(I0
I-2
tp447
sbag1
(g15
g3
Ntp448
Rp449
(dp450
g19
(I0
I-1
tp451
sbasg61
I10
sg62
S'HHHPH'
p452
sg64
g360
sg66
Nsg67
g63
sbag1
(g2
g3
Ntp453
Rp454
(dp455
g7
I3
sg8
S'HPPHPPHH'
p456
sg10
I01
sg11
I1
sg12
I00
sg13
(lp457
g1
(g15
g3
Ntp458
Rp459
(dp460
g19
g20
sbag1
(g15
g3
Ntp461
Rp462
(dp463
g19
(I0
I1
tp464
sbag1
(g15
g3
Ntp465
Rp466
(dp467
g19
(I1
I1
tp468
sbag1
(g15
g3
Ntp469
Rp470
(dp471
g19
(I1
I0
tp472
sbag1
(g15
g3
Ntp473
Rp474
(dp475
g19
(I2
I0
tp476
sbag1
(g15
g3
Ntp477
Rp478
(dp479
g19
(I2
I-1
tp480
sbag1
(g15
g3
Ntp481
Rp482
(dp483
g19
(I1
I-1
tp484
sbag1
(g15
g3
Ntp485
Rp486
(dp487
g19
(I0
I-1
tp488
sbasg61
I8
sg62
S'HHPHH'
p489
sg64
S'URDRDLL'
p490
sg66
Nsg67
g63
sbag1
(g2
g3
Ntp491
Rp492
(dp493
g7
I4
sg8
S'HHPPHPPHPH'
p494
sg10
I01
sg11
I2
sg12
I01
sg13
(lp495
g1
(g15
g3
Ntp496
Rp497
(dp498
g19
g20
sbag1
(g15
g3
Ntp499
Rp500
(dp501
g19
(I0
I1
tp502
sbag1
(g15
g3
Ntp503
Rp504
(dp505
g19
(I0
I2
tp506
sbag1
(g15
g3
Ntp507
Rp508
(dp509
g19
(I1
I2
tp510
sbag1
(g15
g3
Ntp511
Rp512
(dp513
g19
(I1
I1
tp514
sbag1
(g15
g3
Ntp515
Rp516
(dp517
g19
(I2
I1
tp518
sbag1
(g15
g3
Ntp519
Rp520
(dp521
g19
(I2
I0
tp522
sbag1
(g15
g3
Ntp523
Rp524
(dp525
g19
(I1
I0
tp526
sbag1
(g15
g3
Ntp527
Rp528
(dp529
g19
(I1
I-1
tp530
sbag1
(g15
g3
Ntp531
Rp532
(dp533
g19
(I0
I-1
tp534
sbasg61
I10
sg62
S'HHHPH'
p535
sg64
S'UURDRDLDL'
p536
sg66
(I10
S'HHPP'
p537
g535
tp538
sg67
g537
sbag1
(g2
g3
Ntp539
Rp540
(dp541
g7
I3
sg8
S'HPPHHPPHP'
p542
sg10
I01
sg11
I3
sg12
I01
sg13
(lp543
g1
(g15
g3
Ntp544
Rp545
(dp546
g19
g20
sbag1
(g15
g3
Ntp547
Rp548
(dp549
g19
(I0
I1
tp550
sbag1
(g15
g3
Ntp551
Rp552
(dp553
g19
(I1
I1
tp554
sbag1
(g15
g3
Ntp555
Rp556
(dp557
g19
(I1
I0
tp558
sbag1
(g15
g3
Ntp559
Rp560
(dp561
g19
(I1
I-1
tp562
sbag1
(g15
g3
Ntp563
Rp564
(dp565
g19
(I1
I-2
tp566
sbag1
(g15
g3
Ntp567
Rp568
(dp569
g19
(I0
I-2
tp570
sbag1
(g15
g3
Ntp571
Rp572
(dp573
g19
(I0
I-1
tp574
sbag1
(g15
g3
Ntp575
Rp576
(dp577
g19
(I-1
I-1
tp578
sbasg61
I9
sg62
S'HHPP'
p579
sg64
S'URDDDLUL'
p580
sg66
(I9
S'HHPP'
p581
g579
tp582
sg67
g581
sbag1
(g2
g3
Ntp583
Rp584
(dp585
g7
I4
sg8
S'HPHPHPPHPHP'
p586
sg10
I00
sg11
I3
sg12
I00
sg13
(lp587
g1
(g15
g3
Ntp588
Rp589
(dp590
g19
g20
sbag1
(g15
g3
Ntp591
Rp592
(dp593
g19
(I0
I1
tp594
sbag1
(g15
g3
Ntp595
Rp596
(dp597
g19
(I1
I1
tp598
sbag1
(g15
g3
Ntp599
Rp600
(dp601
g19
(I1
I2
tp602
sbag1
(g15
g3
Ntp603
Rp604
(dp605
g19
(I2
I2
tp606
sbag1
(g15
g3
Ntp607
Rp608
(dp609
g19
(I3
I2
tp610
sbag1
(g15
g3
Ntp611
Rp612
(dp613
g19
(I3
I1
tp614
sbag1
(g15
g3
Ntp615
Rp616
(dp617
g19
(I2
I1
tp618
sbag1
(g15
g3
Ntp619
Rp620
(dp621
g19
(I2
I0
tp622
sbag1
(g15
g3
Ntp623
Rp624
(dp625
g19
(I1
I0
tp626
sbag1
(g15
g3
Ntp627
Rp628
(dp629
g19
(I1
I-1
tp630
sbasg61
I11
sg62
g63
sg64
S'URURRDLDLD'
p631
sg66
Nsg67
g63
sbag1
(g2
g3
Ntp632
Rp633
(dp634
g7
I4
sg8
S'HPHPHPHHPHP'
p635
sg10
I00
sg11
I3
sg12
I01
sg13
(lp636
g1
(g15
g3
Ntp637
Rp638
(dp639
g19
g20
sbag1
(g15
g3
Ntp640
Rp641
(dp642
g19
(I0
I1
tp643
sbag1
(g15
g3
Ntp644
Rp645
(dp646
g19
(I1
I1
tp647
sbag1
(g15
g3
Ntp648
Rp649
(dp650
g19
(I1
I2
tp651
sbag1
(g15
g3
Ntp652
Rp653
(dp654
g19
(I2
I2
tp655
sbag1
(g15
g3
Ntp656
Rp657
(dp658
g19
(I3
I2
tp659
sbag1
(g15
g3
Ntp660
Rp661
(dp662
g19
(I3
I1
tp663
sbag1
(g15
g3
Ntp664
Rp665
(dp666
g19
(I2
I1
tp667
sbag1
(g15
g3
Ntp668
Rp669
(dp670
g19
(I2
I0
tp671
sbag1
(g15
g3
Ntp672
Rp673
(dp674
g19
(I1
I0
tp675
sbag1
(g15
g3
Ntp676
Rp677
(dp678
g19
(I1
I-1
tp679
sbasg61
I11
sg62
g63
sg64
g631
sg66
Nsg67
S'HHPH'
p680
sbag1
(g2
g3
Ntp681
Rp682
(dp683
g7
I4
sg8
S'HPHPHPPHHHP'
p684
sg10
I00
sg11
I3
sg12
I00
sg13
(lp685
g1
(g15
g3
Ntp686
Rp687
(dp688
g19
g20
sbag1
(g15
g3
Ntp689
Rp690
(dp691
g19
(I0
I1
tp692
sbag1
(g15
g3
Ntp693
Rp694
(dp695
g19
(I1
I1
tp696
sbag1
(g15
g3
Ntp697
Rp698
(dp699
g19
(I1
I2
tp700
sbag1
(g15
g3
Ntp701
Rp702
(dp703
g19
(I2
I2
tp704
sbag1
(g15
g3
Ntp705
Rp706
(dp707
g19
(I3
I2
tp708
sbag1
(g15
g3
Ntp709
Rp710
(dp711
g19
(I3
I1
tp712
sbag1
(g15
g3
Ntp713
Rp714
(dp715
g19
(I2
I1
tp716
sbag1
(g15
g3
Ntp717
Rp718
(dp719
g19
(I2
I0
tp720
sbag1
(g15
g3
Ntp721
Rp722
(dp723
g19
(I1
I0
tp724
sbag1
(g15
g3
Ntp725
Rp726
(dp727
g19
(I1
I-1
tp728
sbasg61
I11
sg62
g63
sg64
g631
sg66
Nsg67
g63
sbag1
(g2
g3
Ntp729
Rp730
(dp731
g7
I4
sg8
S'HPHPHPHHHHP'
p732
sg10
I00
sg11
I3
sg12
I00
sg13
(lp733
g1
(g15
g3
Ntp734
Rp735
(dp736
g19
g20
sbag1
(g15
g3
Ntp737
Rp738
(dp739
g19
(I0
I1
tp740
sbag1
(g15
g3
Ntp741
Rp742
(dp743
g19
(I1
I1
tp744
sbag1
(g15
g3
Ntp745
Rp746
(dp747
g19
(I1
I2
tp748
sbag1
(g15
g3
Ntp749
Rp750
(dp751
g19
(I2
I2
tp752
sbag1
(g15
g3
Ntp753
Rp754
(dp755
g19
(I3
I2
tp756
sbag1
(g15
g3
Ntp757
Rp758
(dp759
g19
(I3
I1
tp760
sbag1
(g15
g3
Ntp761
Rp762
(dp763
g19
(I2
I1
tp764
sbag1
(g15
g3
Ntp765
Rp766
(dp767
g19
(I2
I0
tp768
sbag1
(g15
g3
Ntp769
Rp770
(dp771
g19
(I1
I0
tp772
sbag1
(g15
g3
Ntp773
Rp774
(dp775
g19
(I1
I-1
tp776
sbasg61
I11
sg62
g63
sg64
g631
sg66
Nsg67
g63
sbag1
(g2
g3
Ntp777
Rp778
(dp779
g7
I4
sg8
S'HPHPHPPHPHH'
p780
sg10
I00
sg11
I3
sg12
I00
sg13
(lp781
g1
(g15
g3
Ntp782
Rp783
(dp784
g19
g20
sbag1
(g15
g3
Ntp785
Rp786
(dp787
g19
(I0
I1
tp788
sbag1
(g15
g3
Ntp789
Rp790
(dp791
g19
(I1
I1
tp792
sbag1
(g15
g3
Ntp793
Rp794
(dp795
g19
(I1
I2
tp796
sbag1
(g15
g3
Ntp797
Rp798
(dp799
g19
(I2
I2
tp800
sbag1
(g15
g3
Ntp801
Rp802
(dp803
g19
(I3
I2
tp804
sbag1
(g15
g3
Ntp805
Rp806
(dp807
g19
(I3
I1
tp808
sbag1
(g15
g3
Ntp809
Rp810
(dp811
g19
(I2
I1
tp812
sbag1
(g15
g3
Ntp813
Rp814
(dp815
g19
(I2
I0
tp816
sbag1
(g15
g3
Ntp817
Rp818
(dp819
g19
(I1
I0
tp820
sbag1
(g15
g3
Ntp821
Rp822
(dp823
g19
(I1
I-1
tp824
sbasg61
I11
sg62
g63
sg64
g631
sg66
Nsg67
g63
sbag1
(g2
g3
Ntp825
Rp826
(dp827
g7
I4
sg8
S'HPHPHPHHPHH'
p828
sg10
I00
sg11
I3
sg12
I01
sg13
(lp829
g1
(g15
g3
Ntp830
Rp831
(dp832
g19
g20
sbag1
(g15
g3
Ntp833
Rp834
(dp835
g19
(I0
I1
tp836
sbag1
(g15
g3
Ntp837
Rp838
(dp839
g19
(I1
I1
tp840
sbag1
(g15
g3
Ntp841
Rp842
(dp843
g19
(I1
I2
tp844
sbag1
(g15
g3
Ntp845
Rp846
(dp847
g19
(I2
I2
tp848
sbag1
(g15
g3
Ntp849
Rp850
(dp851
g19
(I3
I2
tp852
sbag1
(g15
g3
Ntp853
Rp854
(dp855
g19
(I3
I1
tp856
sbag1
(g15
g3
Ntp857
Rp858
(dp859
g19
(I2
I1
tp860
sbag1
(g15
g3
Ntp861
Rp862
(dp863
g19
(I2
I0
tp864
sbag1
(g15
g3
Ntp865
Rp866
(dp867
g19
(I1
I0
tp868
sbag1
(g15
g3
Ntp869
Rp870
(dp871
g19
(I1
I-1
tp872
sbasg61
I11
sg62
g63
sg64
g631
sg66
Nsg67
S'HHPHH'
p873
sbag1
(g2
g3
Ntp874
Rp875
(dp876
g7
I4
sg8
S'HPHPHPPHHHH'
p877
sg10
I00
sg11
I3
sg12
I00
sg13
(lp878
g1
(g15
g3
Ntp879
Rp880
(dp881
g19
g20
sbag1
(g15
g3
Ntp882
Rp883
(dp884
g19
(I0
I1
tp885
sbag1
(g15
g3
Ntp886
Rp887
(dp888
g19
(I1
I1
tp889
sbag1
(g15
g3
Ntp890
Rp891
(dp892
g19
(I1
I2
tp893
sbag1
(g15
g3
Ntp894
Rp895
(dp896
g19
(I2
I2
tp897
sbag1
(g15
g3
Ntp898
Rp899
(dp900
g19
(I3
I2
tp901
sbag1
(g15
g3
Ntp902
Rp903
(dp904
g19
(I3
I1
tp905
sbag1
(g15
g3
Ntp906
Rp907
(dp908
g19
(I2
I1
tp909
sbag1
(g15
g3
Ntp910
Rp911
(dp912
g19
(I2
I0
tp913
sbag1
(g15
g3
Ntp914
Rp915
(dp916
g19
(I1
I0
tp917
sbag1
(g15
g3
Ntp918
Rp919
(dp920
g19
(I1
I-1
tp921
sbasg61
I11
sg62
g63
sg64
g631
sg66
Nsg67
g63
sbag1
(g2
g3
Ntp922
Rp923
(dp924
g7
I4
sg8
S'HPHPHPHHHHH'
p925
sg10
I00
sg11
I3
sg12
I00
sg13
(lp926
g1
(g15
g3
Ntp927
Rp928
(dp929
g19
g20
sbag1
(g15
g3
Ntp930
Rp931
(dp932
g19
(I0
I1
tp933
sbag1
(g15
g3
Ntp934
Rp935
(dp936
g19
(I1
I1
tp937
sbag1
(g15
g3
Ntp938
Rp939
(dp940
g19
(I1
I2
tp941
sbag1
(g15
g3
Ntp942
Rp943
(dp944
g19
(I2
I2
tp945
sbag1
(g15
g3
Ntp946
Rp947
(dp948
g19
(I3
I2
tp949
sbag1
(g15
g3
Ntp950
Rp951
(dp952
g19
(I3
I1
tp953
sbag1
(g15
g3
Ntp954
Rp955
(dp956
g19
(I2
I1
tp957
sbag1
(g15
g3
Ntp958
Rp959
(dp960
g19
(I2
I0
tp961
sbag1
(g15
g3
Ntp962
Rp963
(dp964
g19
(I1
I0
tp965
sbag1
(g15
g3
Ntp966
Rp967
(dp968
g19
(I1
I-1
tp969
sbasg61
I11
sg62
g63
sg64
g631
sg66
Nsg67
g63
sbag1
(g2
g3
Ntp970
Rp971
(dp972
g7
I3
sg8
S'PHPPPPHPPHH'
p973
sg10
I01
sg11
I3
sg12
I00
sg13
(lp974
g1
(g15
g3
Ntp975
Rp976
(dp977
g19
g20
sbag1
(g15
g3
Ntp978
Rp979
(dp980
g19
(I0
I1
tp981
sbag1
(g15
g3
Ntp982
Rp983
(dp984
g19
(I1
I1
tp985
sbag1
(g15
g3
Ntp986
Rp987
(dp988
g19
(I2
I1
tp989
sbag1
(g15
g3
Ntp990
Rp991
(dp992
g19
(I2
I2
tp993
sbag1
(g15
g3
Ntp994
Rp995
(dp996
g19
(I1
I2
tp997
sbag1
(g15
g3
Ntp998
Rp999
(dp1000
g19
(I0
I2
tp1001
sbag1
(g15
g3
Ntp1002
Rp1003
(dp1004
g19
(I0
I3
tp1005
sbag1
(g15
g3
Ntp1006
Rp1007
(dp1008
g19
(I-1
I3
tp1009
sbag1
(g15
g3
Ntp1010
Rp1011
(dp1012
g19
(I-1
I2
tp1013
sbag1
(g15
g3
Ntp1014
Rp1015
(dp1016
g19
(I-1
I1
tp1017
sbasg61
I11
sg62
S'HHPP'
p1018
sg64
S'URRULLULDD'
p1019
sg66
Nsg67
g63
sbag1
(g2
g3
Ntp1020
Rp1021
(dp1022
g7
I3
sg8
S'PHPPPPHPHHH'
p1023
sg10
I01
sg11
I3
sg12
I00
sg13
(lp1024
g1
(g15
g3
Ntp1025
Rp1026
(dp1027
g19
g20
sbag1
(g15
g3
Ntp1028
Rp1029
(dp1030
g19
(I0
I1
tp1031
sbag1
(g15
g3
Ntp1032
Rp1033
(dp1034
g19
(I1
I1
tp1035
sbag1
(g15
g3
Ntp1036
Rp1037
(dp1038
g19
(I2
I1
tp1039
sbag1
(g15
g3
Ntp1040
Rp1041
(dp1042
g19
(I2
I2
tp1043
sbag1
(g15
g3
Ntp1044
Rp1045
(dp1046
g19
(I1
I2
tp1047
sbag1
(g15
g3
Ntp1048
Rp1049
(dp1050
g19
(I0
I2
tp1051
sbag1
(g15
g3
Ntp1052
Rp1053
(dp1054
g19
(I0
I3
tp1055
sbag1
(g15
g3
Ntp1056
Rp1057
(dp1058
g19
(I-1
I3
tp1059
sbag1
(g15
g3
Ntp1060
Rp1061
(dp1062
g19
(I-1
I2
tp1063
sbag1
(g15
g3
Ntp1064
Rp1065
(dp1066
g19
(I-1
I1
tp1067
sbasg61
I11
sg62
S'HHHPH'
p1068
sg64
g1019
sg66
Nsg67
g63
sbag1
(g2
g3
Ntp1069
Rp1070
(dp1071
g7
I3
sg8
S'HPPHPPPPPHH'
p1072
sg10
I01
sg11
I3
sg12
I00
sg13
(lp1073
g1
(g15
g3
Ntp1074
Rp1075
(dp1076
g19
g20
sbag1
(g15
g3
Ntp1077
Rp1078
(dp1079
g19
(I0
I1
tp1080
sbag1
(g15
g3
Ntp1081
Rp1082
(dp1083
g19
(I1
I1
tp1084
sbag1
(g15
g3
Ntp1085
Rp1086
(dp1087
g19
(I1
I0
tp1088
sbag1
(g15
g3
Ntp1089
Rp1090
(dp1091
g19
(I2
I0
tp1092
sbag1
(g15
g3
Ntp1093
Rp1094
(dp1095
g19
(I2
I-1
tp1096
sbag1
(g15
g3
Ntp1097
Rp1098
(dp1099
g19
(I2
I-2
tp1100
sbag1
(g15
g3
Ntp1101
Rp1102
(dp1103
g19
(I1
I-2
tp1104
sbag1
(g15
g3
Ntp1105
Rp1106
(dp1107
g19
(I0
I-2
tp1108
sbag1
(g15
g3
Ntp1109
Rp1110
(dp1111
g19
(I0
I-1
tp1112
sbag1
(g15
g3
Ntp1113
Rp1114
(dp1115
g19
(I1
I-1
tp1116
sbasg61
I11
sg62
S'HHPP'
p1117
sg64
S'URDRDDLLUR'
p1118
sg66
Nsg67
g63
sbag1
(g2
g3
Ntp1119
Rp1120
(dp1121
g7
I4
sg8
S'HPPHPHPPPHH'
p1122
sg10
I01
sg11
I3
sg12
I00
sg13
(lp1123
g1
(g15
g3
Ntp1124
Rp1125
(dp1126
g19
g20
sbag1
(g15
g3
Ntp1127
Rp1128
(dp1129
g19
(I0
I1
tp1130
sbag1
(g15
g3
Ntp1131
Rp1132
(dp1133
g19
(I1
I1
tp1134
sbag1
(g15
g3
Ntp1135
Rp1136
(dp1137
g19
(I1
I0
tp1138
sbag1
(g15
g3
Ntp1139
Rp1140
(dp1141
g19
(I2
I0
tp1142
sbag1
(g15
g3
Ntp1143
Rp1144
(dp1145
g19
(I2
I-1
tp1146
sbag1
(g15
g3
Ntp1147
Rp1148
(dp1149
g19
(I2
I-2
tp1150
sbag1
(g15
g3
Ntp1151
Rp1152
(dp1153
g19
(I1
I-2
tp1154
sbag1
(g15
g3
Ntp1155
Rp1156
(dp1157
g19
(I0
I-2
tp1158
sbag1
(g15
g3
Ntp1159
Rp1160
(dp1161
g19
(I0
I-1
tp1162
sbag1
(g15
g3
Ntp1163
Rp1164
(dp1165
g19
(I1
I-1
tp1166
sbasg61
I11
sg62
S'HHPP'
p1167
sg64
g1118
sg66
Nsg67
g63
sbag1
(g2
g3
Ntp1168
Rp1169
(dp1170
g7
I4
sg8
S'HPPHPPPHPHH'
p1171
sg10
I01
sg11
I3
sg12
I00
sg13
(lp1172
g1
(g15
g3
Ntp1173
Rp1174
(dp1175
g19
g20
sbag1
(g15
g3
Ntp1176
Rp1177
(dp1178
g19
(I0
I1
tp1179
sbag1
(g15
g3
Ntp1180
Rp1181
(dp1182
g19
(I1
I1
tp1183
sbag1
(g15
g3
Ntp1184
Rp1185
(dp1186
g19
(I1
I0
tp1187
sbag1
(g15
g3
Ntp1188
Rp1189
(dp1190
g19
(I2
I0
tp1191
sbag1
(g15
g3
Ntp1192
Rp1193
(dp1194
g19
(I2
I-1
tp1195
sbag1
(g15
g3
Ntp1196
Rp1197
(dp1198
g19
(I2
I-2
tp1199
sbag1
(g15
g3
Ntp1200
Rp1201
(dp1202
g19
(I1
I-2
tp1203
sbag1
(g15
g3
Ntp1204
Rp1205
(dp1206
g19
(I0
I-2
tp1207
sbag1
(g15
g3
Ntp1208
Rp1209
(dp1210
g19
(I0
I-1
tp1211
sbag1
(g15
g3
Ntp1212
Rp1213
(dp1214
g19
(I1
I-1
tp1215
sbasg61
I11
sg62
S'HHPP'
p1216
sg64
g1118
sg66
Nsg67
g63
sbag1
(g2
g3
Ntp1217
Rp1218
(dp1219
g7
I5
sg8
S'HPPHPHPHPHH'
p1220
sg10
I01
sg11
I3
sg12
I00
sg13
(lp1221
g1
(g15
g3
Ntp1222
Rp1223
(dp1224
g19
g20
sbag1
(g15
g3
Ntp1225
Rp1226
(dp1227
g19
(I0
I1
tp1228
sbag1
(g15
g3
Ntp1229
Rp1230
(dp1231
g19
(I1
I1
tp1232
sbag1
(g15
g3
Ntp1233
Rp1234
(dp1235
g19
(I1
I0
tp1236
sbag1
(g15
g3
Ntp1237
Rp1238
(dp1239
g19
(I2
I0
tp1240
sbag1
(g15
g3
Ntp1241
Rp1242
(dp1243
g19
(I2
I-1
tp1244
sbag1
(g15
g3
Ntp1245
Rp1246
(dp1247
g19
(I2
I-2
tp1248
sbag1
(g15
g3
Ntp1249
Rp1250
(dp1251
g19
(I1
I-2
tp1252
sbag1
(g15
g3
Ntp1253
Rp1254
(dp1255
g19
(I0
I-2
tp1256
sbag1
(g15
g3
Ntp1257
Rp1258
(dp1259
g19
(I0
I-1
tp1260
sbag1
(g15
g3
Ntp1261
Rp1262
(dp1263
g19
(I1
I-1
tp1264
sbasg61
I11
sg62
S'HHPP'
p1265
sg64
g1118
sg66
Nsg67
g63
sbag1
(g2
g3
Ntp1266
Rp1267
(dp1268
g7
I3
sg8
S'HHPPHPPPPHP'
p1269
sg10
I01
sg11
I4
sg12
I01
sg13
(lp1270
g1
(g15
g3
Ntp1271
Rp1272
(dp1273
g19
g20
sbag1
(g15
g3
Ntp1274
Rp1275
(dp1276
g19
(I0
I1
tp1277
sbag1
(g15
g3
Ntp1278
Rp1279
(dp1280
g19
(I0
I2
tp1281
sbag1
(g15
g3
Ntp1282
Rp1283
(dp1284
g19
(I1
I2
tp1285
sbag1
(g15
g3
Ntp1286
Rp1287
(dp1288
g19
(I1
I1
tp1289
sbag1
(g15
g3
Ntp1290
Rp1291
(dp1292
g19
(I2
I1
tp1293
sbag1
(g15
g3
Ntp1294
Rp1295
(dp1296
g19
(I3
I1
tp1297
sbag1
(g15
g3
Ntp1298
Rp1299
(dp1300
g19
(I3
I0
tp1301
sbag1
(g15
g3
Ntp1302
Rp1303
(dp1304
g19
(I2
I0
tp1305
sbag1
(g15
g3
Ntp1306
Rp1307
(dp1308
g19
(I1
I0
tp1309
sbag1
(g15
g3
Ntp1310
Rp1311
(dp1312
g19
(I1
I-1
tp1313
sbasg61
I11
sg62
S'HHPH'
p1314
sg64
S'UURDRRDLLD'
p1315
sg66
(I11
S'HHPP'
p1316
g1314
tp1317
sg67
g1316
sbag1
(g2
g3
Ntp1318
Rp1319
(dp1320
g7
I3
sg8
S'HHHPHPPPPHP'
p1321
sg10
I01
sg11
I5
sg12
I01
sg13
(lp1322
g1
(g15
g3
Ntp1323
Rp1324
(dp1325
g19
g20
sbag1
(g15
g3
Ntp1326
Rp1327
(dp1328
g19
(I0
I1
tp1329
sbag1
(g15
g3
Ntp1330
Rp1331
(dp1332
g19
(I0
I2
tp1333
sbag1
(g15
g3
Ntp1334
Rp1335
(dp1336
g19
(I1
I2
tp1337
sbag1
(g15
g3
Ntp1338
Rp1339
(dp1340
g19
(I1
I1
tp1341
sbag1
(g15
g3
Ntp1342
Rp1343
(dp1344
g19
(I2
I1
tp1345
sbag1
(g15
g3
Ntp1346
Rp1347
(dp1348
g19
(I3
I1
tp1349
sbag1
(g15
g3
Ntp1350
Rp1351
(dp1352
g19
(I3
I0
tp1353
sbag1
(g15
g3
Ntp1354
Rp1355
(dp1356
g19
(I2
I0
tp1357
sbag1
(g15
g3
Ntp1358
Rp1359
(dp1360
g19
(I1
I0
tp1361
sbag1
(g15
g3
Ntp1362
Rp1363
(dp1364
g19
(I1
I-1
tp1365
sbasg61
I11
sg62
S'HHHPH'
p1366
sg64
g1315
sg66
(I11
S'HHHPH'
p1367
g1366
tp1368
sg67
g1367
sbag1
(g2
g3
Ntp1369
Rp1370
(dp1371
g7
I2
sg8
S'HPHPPHP'
p1372
sg10
I00
sg11
I5
sg12
I00
sg13
(lp1373
g1
(g15
g3
Ntp1374
Rp1375
(dp1376
g19
g20
sbag1
(g15
g3
Ntp1377
Rp1378
(dp1379
g19
(I0
I1
tp1380
sbag1
(g15
g3
Ntp1381
Rp1382
(dp1383
g19
(I1
I1
tp1384
sbag1
(g15
g3
Ntp1385
Rp1386
(dp1387
g19
(I2
I1
tp1388
sbag1
(g15
g3
Ntp1389
Rp1390
(dp1391
g19
(I2
I0
tp1392
sbag1
(g15
g3
Ntp1393
Rp1394
(dp1395
g19
(I1
I0
tp1396
sbag1
(g15
g3
Ntp1397
Rp1398
(dp1399
g19
(I1
I-1
tp1400
sbasg61
I7
sg62
g63
sg64
S'URRDLD'
p1401
sg66
Nsg67
g63
sbag1
(g2
g3
Ntp1402
Rp1403
(dp1404
g7
I2
sg8
S'HHHPPHP'
p1405
sg10
I01
sg11
I6
sg12
I01
sg13
(lp1406
g1
(g15
g3
Ntp1407
Rp1408
(dp1409
g19
g20
sbag1
(g15
g3
Ntp1410
Rp1411
(dp1412
g19
(I0
I1
tp1413
sbag1
(g15
g3
Ntp1414
Rp1415
(dp1416
g19
(I1
I1
tp1417
sbag1
(g15
g3
Ntp1418
Rp1419
(dp1420
g19
(I2
I1
tp1421
sbag1
(g15
g3
Ntp1422
Rp1423
(dp1424
g19
(I2
I0
tp1425
sbag1
(g15
g3
Ntp1426
Rp1427
(dp1428
g19
(I1
I0
tp1429
sbag1
(g15
g3
Ntp1430
Rp1431
(dp1432
g19
(I1
I-1
tp1433
sbasg61
I7
sg62
S'HHPHH'
p1434
sg64
g1401
sg66
(I7
S'HHHPP'
p1435
g1434
tp1436
sg67
g1435
sbag1
(g2
g3
Ntp1437
Rp1438
(dp1439
g7
I2
sg8
S'HPHPHHP'
p1440
sg10
I00
sg11
I6
sg12
I00
sg13
(lp1441
g1
(g15
g3
Ntp1442
Rp1443
(dp1444
g19
g20
sbag1
(g15
g3
Ntp1445
Rp1446
(dp1447
g19
(I0
I1
tp1448
sbag1
(g15
g3
Ntp1449
Rp1450
(dp1451
g19
(I1
I1
tp1452
sbag1
(g15
g3
Ntp1453
Rp1454
(dp1455
g19
(I2
I1
tp1456
sbag1
(g15
g3
Ntp1457
Rp1458
(dp1459
g19
(I2
I0
tp1460
sbag1
(g15
g3
Ntp1461
Rp1462
(dp1463
g19
(I1
I0
tp1464
sbag1
(g15
g3
Ntp1465
Rp1466
(dp1467
g19
(I1
I-1
tp1468
sbasg61
I7
sg62
g63
sg64
g1401
sg66
Nsg67
g63
sbag1
(g2
g3
Ntp1469
Rp1470
(dp1471
g7
I2
sg8
S'HPHPPHH'
p1472
sg10
I00
sg11
I6
sg12
I00
sg13
(lp1473
g1
(g15
g3
Ntp1474
Rp1475
(dp1476
g19
g20
sbag1
(g15
g3
Ntp1477
Rp1478
(dp1479
g19
(I0
I1
tp1480
sbag1
(g15
g3
Ntp1481
Rp1482
(dp1483
g19
(I1
I1
tp1484
sbag1
(g15
g3
Ntp1485
Rp1486
(dp1487
g19
(I2
I1
tp1488
sbag1
(g15
g3
Ntp1489
Rp1490
(dp1491
g19
(I2
I0
tp1492
sbag1
(g15
g3
Ntp1493
Rp1494
(dp1495
g19
(I1
I0
tp1496
sbag1
(g15
g3
Ntp1497
Rp1498
(dp1499
g19
(I1
I-1
tp1500
sbasg61
I7
sg62
g63
sg64
g1401
sg66
Nsg67
g63
sbag1
(g2
g3
Ntp1501
Rp1502
(dp1503
g7
I2
sg8
S'HPHPHHH'
p1504
sg10
I00
sg11
I6
sg12
I00
sg13
(lp1505
g1
(g15
g3
Ntp1506
Rp1507
(dp1508
g19
g20
sbag1
(g15
g3
Ntp1509
Rp1510
(dp1511
g19
(I0
I1
tp1512
sbag1
(g15
g3
Ntp1513
Rp1514
(dp1515
g19
(I1
I1
tp1516
sbag1
(g15
g3
Ntp1517
Rp1518
(dp1519
g19
(I2
I1
tp1520
sbag1
(g15
g3
Ntp1521
Rp1522
(dp1523
g19
(I2
I0
tp1524
sbag1
(g15
g3
Ntp1525
Rp1526
(dp1527
g19
(I1
I0
tp1528
sbag1
(g15
g3
Ntp1529
Rp1530
(dp1531
g19
(I1
I-1
tp1532
sbasg61
I7
sg62
g63
sg64
g1401
sg66
Nsg67
g63
sbag1
(g2
g3
Ntp1533
Rp1534
(dp1535
g7
I1
sg8
S'HPPH'
p1536
sg10
I01
sg11
I6
sg12
I00
sg13
(lp1537
g1
(g15
g3
Ntp1538
Rp1539
(dp1540
g19
g20
sbag1
(g15
g3
Ntp1541
Rp1542
(dp1543
g19
(I0
I1
tp1544
sbag1
(g15
g3
Ntp1545
Rp1546
(dp1547
g19
(I1
I1
tp1548
sbag1
(g15
g3
Ntp1549
Rp1550
(dp1551
g19
(I1
I0
tp1552
sbasg61
I4
sg62
S'HHPH'
p1553
sg64
S'URD'
p1554
sg66
Nsg67
g63
sbag1
(g2
g3
Ntp1555
Rp1556
(dp1557
g7
I1
sg8
S'HHPH'
p1558
sg10
I01
sg11
I7
sg12
I01
sg13
(lp1559
g1
(g15
g3
Ntp1560
Rp1561
(dp1562
g19
g20
sbag1
(g15
g3
Ntp1563
Rp1564
(dp1565
g19
(I0
I1
tp1566
sbag1
(g15
g3
Ntp1567
Rp1568
(dp1569
g19
(I1
I1
tp1570
sbag1
(g15
g3
Ntp1571
Rp1572
(dp1573
g19
(I1
I0
tp1574
sbasg61
I4
sg62
S'HHPHH'
p1575
sg64
g1554
sg66
(I4
S'HHPH'
p1576
g1575
tp1577
sg67
g1576
sbag1
(g2
g3
Ntp1578
Rp1579
(dp1580
g7
I1
sg8
S'HPHH'
p1581
sg10
I01
sg11
I7
sg12
I00
sg13
(lp1582
g1
(g15
g3
Ntp1583
Rp1584
(dp1585
g19
g20
sbag1
(g15
g3
Ntp1586
Rp1587
(dp1588
g19
(I0
I1
tp1589
sbag1
(g15
g3
Ntp1590
Rp1591
(dp1592
g19
(I1
I1
tp1593
sbag1
(g15
g3
Ntp1594
Rp1595
(dp1596
g19
(I1
I0
tp1597
sbasg61
I4
sg62
S'HHPHH'
p1598
sg64
g1554
sg66
Nsg67
g63
sbag1
(g2
g3
Ntp1599
Rp1600
(dp1601
g7
I1
sg8
S'HHHH'
p1602
sg10
I01
sg11
I7
sg12
I00
sg13
(lp1603
g1
(g15
g3
Ntp1604
Rp1605
(dp1606
g19
g20
sbag1
(g15
g3
Ntp1607
Rp1608
(dp1609
g19
(I0
I1
tp1610
sbag1
(g15
g3
Ntp1611
Rp1612
(dp1613
g19
(I1
I1
tp1614
sbag1
(g15
g3
Ntp1615
Rp1616
(dp1617
g19
(I1
I0
tp1618
sbasg61
I4
sg62
S'HHPHH'
p1619
sg64
g1554
sg66
Nsg67
g63
sbag1
(g2
g3
Ntp1620
Rp1621
(dp1622
g7
I2
sg8
S'HHPPHH'
p1623
sg10
I01
sg11
I8
sg12
I01
sg13
(lp1624
g1
(g15
g3
Ntp1625
Rp1626
(dp1627
g19
g20
sbag1
(g15
g3
Ntp1628
Rp1629
(dp1630
g19
(I0
I1
tp1631
sbag1
(g15
g3
Ntp1632
Rp1633
(dp1634
g19
(I0
I2
tp1635
sbag1
(g15
g3
Ntp1636
Rp1637
(dp1638
g19
(I1
I2
tp1639
sbag1
(g15
g3
Ntp1640
Rp1641
(dp1642
g19
(I1
I1
tp1643
sbag1
(g15
g3
Ntp1644
Rp1645
(dp1646
g19
(I1
I0
tp1647
sbasg61
I6
sg62
S'HHPHH'
p1648
sg64
S'UURDD'
p1649
sg66
(I6
S'HHPP'
p1650
g1648
tp1651
sg67
g1650
sbag1
(g2
g3
Ntp1652
Rp1653
(dp1654
g7
I3
sg8
S'HHPPHPPHP'
p1655
sg10
I01
sg11
I9
sg12
I01
sg13
(lp1656
g1
(g15
g3
Ntp1657
Rp1658
(dp1659
g19
g20
sbag1
(g15
g3
Ntp1660
Rp1661
(dp1662
g19
(I0
I1
tp1663
sbag1
(g15
g3
Ntp1664
Rp1665
(dp1666
g19
(I0
I2
tp1667
sbag1
(g15
g3
Ntp1668
Rp1669
(dp1670
g19
(I1
I2
tp1671
sbag1
(g15
g3
Ntp1672
Rp1673
(dp1674
g19
(I1
I1
tp1675
sbag1
(g15
g3
Ntp1676
Rp1677
(dp1678
g19
(I2
I1
tp1679
sbag1
(g15
g3
Ntp1680
Rp1681
(dp1682
g19
(I2
I0
tp1683
sbag1
(g15
g3
Ntp1684
Rp1685
(dp1686
g19
(I1
I0
tp1687
sbag1
(g15
g3
Ntp1688
Rp1689
(dp1690
g19
(I1
I-1
tp1691
sbasg61
I9
sg62
S'HHPH'
p1692
sg64
S'UURDRDLD'
p1693
sg66
(I9
S'HHPP'
p1694
g1692
tp1695
sg67
g1694
sbag1
(g2
g3
Ntp1696
Rp1697
(dp1698
g7
I3
sg8
S'HHHPHPPHP'
p1699
sg10
I01
sg11
I10
sg12
I01
sg13
(lp1700
g1
(g15
g3
Ntp1701
Rp1702
(dp1703
g19
g20
sbag1
(g15
g3
Ntp1704
Rp1705
(dp1706
g19
(I0
I1
tp1707
sbag1
(g15
g3
Ntp1708
Rp1709
(dp1710
g19
(I0
I2
tp1711
sbag1
(g15
g3
Ntp1712
Rp1713
(dp1714
g19
(I1
I2
tp1715
sbag1
(g15
g3
Ntp1716
Rp1717
(dp1718
g19
(I1
I1
tp1719
sbag1
(g15
g3
Ntp1720
Rp1721
(dp1722
g19
(I2
I1
tp1723
sbag1
(g15
g3
Ntp1724
Rp1725
(dp1726
g19
(I2
I0
tp1727
sbag1
(g15
g3
Ntp1728
Rp1729
(dp1730
g19
(I1
I0
tp1731
sbag1
(g15
g3
Ntp1732
Rp1733
(dp1734
g19
(I1
I-1
tp1735
sbasg61
I9
sg62
S'HHHPH'
p1736
sg64
g1693
sg66
(I9
S'HHHPH'
p1737
g1736
tp1738
sg67
g1737
sbag1
(g2
g3
Ntp1739
Rp1740
(dp1741
g7
I4
sg8
S'PHPPHHPPHPH'
p1742
sg10
I00
sg11
I10
sg12
I01
sg13
(lp1743
g1
(g15
g3
Ntp1744
Rp1745
(dp1746
g19
g20
sbag1
(g15
g3
Ntp1747
Rp1748
(dp1749
g19
(I0
I1
tp1750
sbag1
(g15
g3
Ntp1751
Rp1752
(dp1753
g19
(I1
I1
tp1754
sbag1
(g15
g3
Ntp1755
Rp1756
(dp1757
g19
(I1
I2
tp1758
sbag1
(g15
g3
Ntp1759
Rp1760
(dp1761
g19
(I0
I2
tp1762
sbag1
(g15
g3
Ntp1763
Rp1764
(dp1765
g19
(I-1
I2
tp1766
sbag1
(g15
g3
Ntp1767
Rp1768
(dp1769
g19
(I-1
I3
tp1770
sbag1
(g15
g3
Ntp1771
Rp1772
(dp1773
g19
(I-2
I3
tp1774
sbag1
(g15
g3
Ntp1775
Rp1776
(dp1777
g19
(I-2
I2
tp1778
sbag1
(g15
g3
Ntp1779
Rp1780
(dp1781
g19
(I-2
I1
tp1782
sbag1
(g15
g3
Ntp1783
Rp1784
(dp1785
g19
(I-1
I1
tp1786
sbasg61
I11
sg62
g63
sg64
S'URULLULDDR'
p1787
sg66
Nsg67
S'HHPP'
p1788
sbag1
(g2
g3
Ntp1789
Rp1790
(dp1791
g7
I4
sg8
S'HHPPHHPPHPH'
p1792
sg10
I00
sg11
I10
sg12
I01
sg13
(lp1793
g1
(g15
g3
Ntp1794
Rp1795
(dp1796
g19
g20
sbag1
(g15
g3
Ntp1797
Rp1798
(dp1799
g19
(I0
I1
tp1800
sbag1
(g15
g3
Ntp1801
Rp1802
(dp1803
g19
(I1
I1
tp1804
sbag1
(g15
g3
Ntp1805
Rp1806
(dp1807
g19
(I1
I2
tp1808
sbag1
(g15
g3
Ntp1809
Rp1810
(dp1811
g19
(I0
I2
tp1812
sbag1
(g15
g3
Ntp1813
Rp1814
(dp1815
g19
(I-1
I2
tp1816
sbag1
(g15
g3
Ntp1817
Rp1818
(dp1819
g19
(I-1
I3
tp1820
sbag1
(g15
g3
Ntp1821
Rp1822
(dp1823
g19
(I-2
I3
tp1824
sbag1
(g15
g3
Ntp1825
Rp1826
(dp1827
g19
(I-2
I2
tp1828
sbag1
(g15
g3
Ntp1829
Rp1830
(dp1831
g19
(I-2
I1
tp1832
sbag1
(g15
g3
Ntp1833
Rp1834
(dp1835
g19
(I-1
I1
tp1836
sbasg61
I11
sg62
g63
sg64
g1787
sg66
Nsg67
S'HHPP'
p1837
sbag1
(g2
g3
Ntp1838
Rp1839
(dp1840
g7
I3
sg8
S'HHPPPPPHPPH'
p1841
sg10
I01
sg11
I11
sg12
I01
sg13
(lp1842
g1
(g15
g3
Ntp1843
Rp1844
(dp1845
g19
g20
sbag1
(g15
g3
Ntp1846
Rp1847
(dp1848
g19
(I0
I1
tp1849
sbag1
(g15
g3
Ntp1850
Rp1851
(dp1852
g19
(I1
I1
tp1853
sbag1
(g15
g3
Ntp1854
Rp1855
(dp1856
g19
(I1
I0
tp1857
sbag1
(g15
g3
Ntp1858
Rp1859
(dp1860
g19
(I1
I-1
tp1861
sbag1
(g15
g3
Ntp1862
Rp1863
(dp1864
g19
(I0
I-1
tp1865
sbag1
(g15
g3
Ntp1866
Rp1867
(dp1868
g19
(I-1
I-1
tp1869
sbag1
(g15
g3
Ntp1870
Rp1871
(dp1872
g19
(I-1
I0
tp1873
sbag1
(g15
g3
Ntp1874
Rp1875
(dp1876
g19
(I-2
I0
tp1877
sbag1
(g15
g3
Ntp1878
Rp1879
(dp1880
g19
(I-2
I1
tp1881
sbag1
(g15
g3
Ntp1882
Rp1883
(dp1884
g19
(I-1
I1
tp1885
sbasg61
I11
sg62
S'HHPP'
p1886
sg64
S'URDDLLULUR'
p1887
sg66
(I11
S'HHPP'
p1888
g1886
tp1889
sg67
g1888
sbag1
(g2
g3
Ntp1890
Rp1891
(dp1892
g7
I4
sg8
S'HHPHPPPHPPH'
p1893
sg10
I01
sg11
I12
sg12
I01
sg13
(lp1894
g1
(g15
g3
Ntp1895
Rp1896
(dp1897
g19
g20
sbag1
(g15
g3
Ntp1898
Rp1899
(dp1900
g19
(I0
I1
tp1901
sbag1
(g15
g3
Ntp1902
Rp1903
(dp1904
g19
(I1
I1
tp1905
sbag1
(g15
g3
Ntp1906
Rp1907
(dp1908
g19
(I1
I0
tp1909
sbag1
(g15
g3
Ntp1910
Rp1911
(dp1912
g19
(I1
I-1
tp1913
sbag1
(g15
g3
Ntp1914
Rp1915
(dp1916
g19
(I0
I-1
tp1917
sbag1
(g15
g3
Ntp1918
Rp1919
(dp1920
g19
(I-1
I-1
tp1921
sbag1
(g15
g3
Ntp1922
Rp1923
(dp1924
g19
(I-1
I0
tp1925
sbag1
(g15
g3
Ntp1926
Rp1927
(dp1928
g19
(I-2
I0
tp1929
sbag1
(g15
g3
Ntp1930
Rp1931
(dp1932
g19
(I-2
I1
tp1933
sbag1
(g15
g3
Ntp1934
Rp1935
(dp1936
g19
(I-1
I1
tp1937
sbasg61
I11
sg62
S'HHPP'
p1938
sg64
g1887
sg66
(I11
S'HHPH'
p1939
g1938
tp1940
sg67
g1939
sbag1
(g2
g3
Ntp1941
Rp1942
(dp1943
g7
I4
sg8
S'HHPPPHPHPPH'
p1944
sg10
I01
sg11
I13
sg12
I01
sg13
(lp1945
g1
(g15
g3
Ntp1946
Rp1947
(dp1948
g19
g20
sbag1
(g15
g3
Ntp1949
Rp1950
(dp1951
g19
(I0
I1
tp1952
sbag1
(g15
g3
Ntp1953
Rp1954
(dp1955
g19
(I1
I1
tp1956
sbag1
(g15
g3
Ntp1957
Rp1958
(dp1959
g19
(I1
I0
tp1960
sbag1
(g15
g3
Ntp1961
Rp1962
(dp1963
g19
(I1
I-1
tp1964
sbag1
(g15
g3
Ntp1965
Rp1966
(dp1967
g19
(I0
I-1
tp1968
sbag1
(g15
g3
Ntp1969
Rp1970
(dp1971
g19
(I-1
I-1
tp1972
sbag1
(g15
g3
Ntp1973
Rp1974
(dp1975
g19
(I-1
I0
tp1976
sbag1
(g15
g3
Ntp1977
Rp1978
(dp1979
g19
(I-2
I0
tp1980
sbag1
(g15
g3
Ntp1981
Rp1982
(dp1983
g19
(I-2
I1
tp1984
sbag1
(g15
g3
Ntp1985
Rp1986
(dp1987
g19
(I-1
I1
tp1988
sbasg61
I11
sg62
S'HHPP'
p1989
sg64
g1887
sg66
(I11
S'HHPP'
p1990
g1989
tp1991
sg67
g1990
sbag1
(g2
g3
Ntp1992
Rp1993
(dp1994
g7
I5
sg8
S'HHPHPHPHPPH'
p1995
sg10
I01
sg11
I14
sg12
I01
sg13
(lp1996
g1
(g15
g3
Ntp1997
Rp1998
(dp1999
g19
g20
sbag1
(g15
g3
Ntp2000
Rp2001
(dp2002
g19
(I0
I1
tp2003
sbag1
(g15
g3
Ntp2004
Rp2005
(dp2006
g19
(I1
I1
tp2007
sbag1
(g15
g3
Ntp2008
Rp2009
(dp2010
g19
(I1
I0
tp2011
sbag1
(g15
g3
Ntp2012
Rp2013
(dp2014
g19
(I1
I-1
tp2015
sbag1
(g15
g3
Ntp2016
Rp2017
(dp2018
g19
(I0
I-1
tp2019
sbag1
(g15
g3
Ntp2020
Rp2021
(dp2022
g19
(I-1
I-1
tp2023
sbag1
(g15
g3
Ntp2024
Rp2025
(dp2026
g19
(I-1
I0
tp2027
sbag1
(g15
g3
Ntp2028
Rp2029
(dp2030
g19
(I-2
I0
tp2031
sbag1
(g15
g3
Ntp2032
Rp2033
(dp2034
g19
(I-2
I1
tp2035
sbag1
(g15
g3
Ntp2036
Rp2037
(dp2038
g19
(I-1
I1
tp2039
sbasg61
I11
sg62
S'HHPP'
p2040
sg64
g1887
sg66
(I11
S'HHPH'
p2041
g2040
tp2042
sg67
g2041
sbag1
(g2
g3
Ntp2043
Rp2044
(dp2045
g7
I4
sg8
S'HPPHPPHPPHP'
p2046
sg10
I00
sg11
I14
sg12
I00
sg13
(lp2047
g1
(g15
g3
Ntp2048
Rp2049
(dp2050
g19
g20
sbag1
(g15
g3
Ntp2051
Rp2052
(dp2053
g19
(I0
I1
tp2054
sbag1
(g15
g3
Ntp2055
Rp2056
(dp2057
g19
(I1
I1
tp2058
sbag1
(g15
g3
Ntp2059
Rp2060
(dp2061
g19
(I1
I0
tp2062
sbag1
(g15
g3
Ntp2063
Rp2064
(dp2065
g19
(I2
I0
tp2066
sbag1
(g15
g3
Ntp2067
Rp2068
(dp2069
g19
(I2
I-1
tp2070
sbag1
(g15
g3
Ntp2071
Rp2072
(dp2073
g19
(I1
I-1
tp2074
sbag1
(g15
g3
Ntp2075
Rp2076
(dp2077
g19
(I1
I-2
tp2078
sbag1
(g15
g3
Ntp2079
Rp2080
(dp2081
g19
(I0
I-2
tp2082
sbag1
(g15
g3
Ntp2083
Rp2084
(dp2085
g19
(I0
I-1
tp2086
sbag1
(g15
g3
Ntp2087
Rp2088
(dp2089
g19
(I-1
I-1
tp2090
sbasg61
I11
sg62
g63
sg64
S'URDRDLDLUL'
p2091
sg66
Nsg67
g63
sbag1
(g2
g3
Ntp2092
Rp2093
(dp2094
g7
I4
sg8
S'HHPHPPHPPHP'
p2095
sg10
I01
sg11
I15
sg12
I01
sg13
(lp2096
g1
(g15
g3
Ntp2097
Rp2098
(dp2099
g19
g20
sbag1
(g15
g3
Ntp2100
Rp2101
(dp2102
g19
(I0
I1
tp2103
sbag1
(g15
g3
Ntp2104
Rp2105
(dp2106
g19
(I1
I1
tp2107
sbag1
(g15
g3
Ntp2108
Rp2109
(dp2110
g19
(I1
I0
tp2111
sbag1
(g15
g3
Ntp2112
Rp2113
(dp2114
g19
(I2
I0
tp2115
sbag1
(g15
g3
Ntp2116
Rp2117
(dp2118
g19
(I2
I-1
tp2119
sbag1
(g15
g3
Ntp2120
Rp2121
(dp2122
g19
(I1
I-1
tp2123
sbag1
(g15
g3
Ntp2124
Rp2125
(dp2126
g19
(I1
I-2
tp2127
sbag1
(g15
g3
Ntp2128
Rp2129
(dp2130
g19
(I0
I-2
tp2131
sbag1
(g15
g3
Ntp2132
Rp2133
(dp2134
g19
(I0
I-1
tp2135
sbag1
(g15
g3
Ntp2136
Rp2137
(dp2138
g19
(I-1
I-1
tp2139
sbasg61
I11
sg62
S'HHPP'
p2140
sg64
g2091
sg66
(I11
S'HHPH'
p2141
g2140
tp2142
sg67
g2141
sbag1
(g2
g3
Ntp2143
Rp2144
(dp2145
g7
I4
sg8
S'HPPHHPHPPHP'
p2146
sg10
I00
sg11
I15
sg12
I01
sg13
(lp2147
g1
(g15
g3
Ntp2148
Rp2149
(dp2150
g19
g20
sbag1
(g15
g3
Ntp2151
Rp2152
(dp2153
g19
(I0
I1
tp2154
sbag1
(g15
g3
Ntp2155
Rp2156
(dp2157
g19
(I1
I1
tp2158
sbag1
(g15
g3
Ntp2159
Rp2160
(dp2161
g19
(I1
I0
tp2162
sbag1
(g15
g3
Ntp2163
Rp2164
(dp2165
g19
(I2
I0
tp2166
sbag1
(g15
g3
Ntp2167
Rp2168
(dp2169
g19
(I2
I-1
tp2170
sbag1
(g15
g3
Ntp2171
Rp2172
(dp2173
g19
(I1
I-1
tp2174
sbag1
(g15
g3
Ntp2175
Rp2176
(dp2177
g19
(I1
I-2
tp2178
sbag1
(g15
g3
Ntp2179
Rp2180
(dp2181
g19
(I0
I-2
tp2182
sbag1
(g15
g3
Ntp2183
Rp2184
(dp2185
g19
(I0
I-1
tp2186
sbag1
(g15
g3
Ntp2187
Rp2188
(dp2189
g19
(I-1
I-1
tp2190
sbasg61
I11
sg62
g63
sg64
g2091
sg66
Nsg67
S'HHPH'
p2191
sbag1
(g2
g3
Ntp2192
Rp2193
(dp2194
g7
I4
sg8
S'HPPHPPHPHHP'
p2195
sg10
I00
sg11
I15
sg12
I00
sg13
(lp2196
g1
(g15
g3
Ntp2197
Rp2198
(dp2199
g19
g20
sbag1
(g15
g3
Ntp2200
Rp2201
(dp2202
g19
(I0
I1
tp2203
sbag1
(g15
g3
Ntp2204
Rp2205
(dp2206
g19
(I1
I1
tp2207
sbag1
(g15
g3
Ntp2208
Rp2209
(dp2210
g19
(I1
I0
tp2211
sbag1
(g15
g3
Ntp2212
Rp2213
(dp2214
g19
(I2
I0
tp2215
sbag1
(g15
g3
Ntp2216
Rp2217
(dp2218
g19
(I2
I-1
tp2219
sbag1
(g15
g3
Ntp2220
Rp2221
(dp2222
g19
(I1
I-1
tp2223
sbag1
(g15
g3
Ntp2224
Rp2225
(dp2226
g19
(I1
I-2
tp2227
sbag1
(g15
g3
Ntp2228
Rp2229
(dp2230
g19
(I0
I-2
tp2231
sbag1
(g15
g3
Ntp2232
Rp2233
(dp2234
g19
(I0
I-1
tp2235
sbag1
(g15
g3
Ntp2236
Rp2237
(dp2238
g19
(I-1
I-1
tp2239
sbasg61
I11
sg62
g63
sg64
g2091
sg66
Nsg67
g63
sbag1
(g2
g3
Ntp2240
Rp2241
(dp2242
g7
I4
sg8
S'HPPHHPHPHHP'
p2243
sg10
I00
sg11
I15
sg12
I01
sg13
(lp2244
g1
(g15
g3
Ntp2245
Rp2246
(dp2247
g19
g20
sbag1
(g15
g3
Ntp2248
Rp2249
(dp2250
g19
(I0
I1
tp2251
sbag1
(g15
g3
Ntp2252
Rp2253
(dp2254
g19
(I1
I1
tp2255
sbag1
(g15
g3
Ntp2256
Rp2257
(dp2258
g19
(I1
I0
tp2259
sbag1
(g15
g3
Ntp2260
Rp2261
(dp2262
g19
(I2
I0
tp2263
sbag1
(g15
g3
Ntp2264
Rp2265
(dp2266
g19
(I2
I-1
tp2267
sbag1
(g15
g3
Ntp2268
Rp2269
(dp2270
g19
(I1
I-1
tp2271
sbag1
(g15
g3
Ntp2272
Rp2273
(dp2274
g19
(I1
I-2
tp2275
sbag1
(g15
g3
Ntp2276
Rp2277
(dp2278
g19
(I0
I-2
tp2279
sbag1
(g15
g3
Ntp2280
Rp2281
(dp2282
g19
(I0
I-1
tp2283
sbag1
(g15
g3
Ntp2284
Rp2285
(dp2286
g19
(I-1
I-1
tp2287
sbasg61
I11
sg62
g63
sg64
g2091
sg66
Nsg67
S'HHPH'
p2288
sbag1
(g2
g3
Ntp2289
Rp2290
(dp2291
g7
I4
sg8
S'HPPHPPHPPHH'
p2292
sg10
I00
sg11
I15
sg12
I00
sg13
(lp2293
g1
(g15
g3
Ntp2294
Rp2295
(dp2296
g19
g20
sbag1
(g15
g3
Ntp2297
Rp2298
(dp2299
g19
(I0
I1
tp2300
sbag1
(g15
g3
Ntp2301
Rp2302
(dp2303
g19
(I1
I1
tp2304
sbag1
(g15
g3
Ntp2305
Rp2306
(dp2307
g19
(I1
I0
tp2308
sbag1
(g15
g3
Ntp2309
Rp2310
(dp2311
g19
(I2
I0
tp2312
sbag1
(g15
g3
Ntp2313
Rp2314
(dp2315
g19
(I2
I-1
tp2316
sbag1
(g15
g3
Ntp2317
Rp2318
(dp2319
g19
(I1
I-1
tp2320
sbag1
(g15
g3
Ntp2321
Rp2322
(dp2323
g19
(I1
I-2
tp2324
sbag1
(g15
g3
Ntp2325
Rp2326
(dp2327
g19
(I0
I-2
tp2328
sbag1
(g15
g3
Ntp2329
Rp2330
(dp2331
g19
(I0
I-1
tp2332
sbag1
(g15
g3
Ntp2333
Rp2334
(dp2335
g19
(I-1
I-1
tp2336
sbasg61
I11
sg62
g63
sg64
g2091
sg66
Nsg67
g63
sbag1
(g2
g3
Ntp2337
Rp2338
(dp2339
g7
I4
sg8
S'HPPHPPHPHHH'
p2340
sg10
I00
sg11
I15
sg12
I00
sg13
(lp2341
g1
(g15
g3
Ntp2342
Rp2343
(dp2344
g19
g20
sbag1
(g15
g3
Ntp2345
Rp2346
(dp2347
g19
(I0
I1
tp2348
sbag1
(g15
g3
Ntp2349
Rp2350
(dp2351
g19
(I1
I1
tp2352
sbag1
(g15
g3
Ntp2353
Rp2354
(dp2355
g19
(I1
I0
tp2356
sbag1
(g15
g3
Ntp2357
Rp2358
(dp2359
g19
(I2
I0
tp2360
sbag1
(g15
g3
Ntp2361
Rp2362
(dp2363
g19
(I2
I-1
tp2364
sbag1
(g15
g3
Ntp2365
Rp2366
(dp2367
g19
(I1
I-1
tp2368
sbag1
(g15
g3
Ntp2369
Rp2370
(dp2371
g19
(I1
I-2
tp2372
sbag1
(g15
g3
Ntp2373
Rp2374
(dp2375
g19
(I0
I-2
tp2376
sbag1
(g15
g3
Ntp2377
Rp2378
(dp2379
g19
(I0
I-1
tp2380
sbag1
(g15
g3
Ntp2381
Rp2382
(dp2383
g19
(I-1
I-1
tp2384
sbasg61
I11
sg62
g63
sg64
g2091
sg66
Nsg67
g63
sbag1
(g2
g3
Ntp2385
Rp2386
(dp2387
g7
I4
sg8
S'PHPHPPHPHPH'
p2388
sg10
I00
sg11
I15
sg12
I00
sg13
(lp2389
g1
(g15
g3
Ntp2390
Rp2391
(dp2392
g19
g20
sbag1
(g15
g3
Ntp2393
Rp2394
(dp2395
g19
(I0
I1
tp2396
sbag1
(g15
g3
Ntp2397
Rp2398
(dp2399
g19
(I1
I1
tp2400
sbag1
(g15
g3
Ntp2401
Rp2402
(dp2403
g19
(I1
I2
tp2404
sbag1
(g15
g3
Ntp2405
Rp2406
(dp2407
g19
(I2
I2
tp2408
sbag1
(g15
g3
Ntp2409
Rp2410
(dp2411
g19
(I2
I3
tp2412
sbag1
(g15
g3
Ntp2413
Rp2414
(dp2415
g19
(I1
I3
tp2416
sbag1
(g15
g3
Ntp2417
Rp2418
(dp2419
g19
(I0
I3
tp2420
sbag1
(g15
g3
Ntp2421
Rp2422
(dp2423
g19
(I0
I2
tp2424
sbag1
(g15
g3
Ntp2425
Rp2426
(dp2427
g19
(I-1
I2
tp2428
sbag1
(g15
g3
Ntp2429
Rp2430
(dp2431
g19
(I-1
I1
tp2432
sbasg61
I11
sg62
g63
sg64
S'URURULLDLD'
p2433
sg66
Nsg67
g63
sbag1
(g2
g3
Ntp2434
Rp2435
(dp2436
g7
I4
sg8
S'HHPHPPHPHPH'
p2437
sg10
I00
sg11
I15
sg12
I01
sg13
(lp2438
g1
(g15
g3
Ntp2439
Rp2440
(dp2441
g19
g20
sbag1
(g15
g3
Ntp2442
Rp2443
(dp2444
g19
(I0
I1
tp2445
sbag1
(g15
g3
Ntp2446
Rp2447
(dp2448
g19
(I1
I1
tp2449
sbag1
(g15
g3
Ntp2450
Rp2451
(dp2452
g19
(I1
I2
tp2453
sbag1
(g15
g3
Ntp2454
Rp2455
(dp2456
g19
(I2
I2
tp2457
sbag1
(g15
g3
Ntp2458
Rp2459
(dp2460
g19
(I2
I3
tp2461
sbag1
(g15
g3
Ntp2462
Rp2463
(dp2464
g19
(I1
I3
tp2465
sbag1
(g15
g3
Ntp2466
Rp2467
(dp2468
g19
(I0
I3
tp2469
sbag1
(g15
g3
Ntp2470
Rp2471
(dp2472
g19
(I0
I2
tp2473
sbag1
(g15
g3
Ntp2474
Rp2475
(dp2476
g19
(I-1
I2
tp2477
sbag1
(g15
g3
Ntp2478
Rp2479
(dp2480
g19
(I-1
I1
tp2481
sbasg61
I11
sg62
g63
sg64
g2433
sg66
Nsg67
S'HHPH'
p2482
sbag1
(g2
g3
Ntp2483
Rp2484
(dp2485
g7
I4
sg8
S'PHHHPPHPHPH'
p2486
sg10
I00
sg11
I15
sg12
I01
sg13
(lp2487
g1
(g15
g3
Ntp2488
Rp2489
(dp2490
g19
g20
sbag1
(g15
g3
Ntp2491
Rp2492
(dp2493
g19
(I0
I1
tp2494
sbag1
(g15
g3
Ntp2495
Rp2496
(dp2497
g19
(I1
I1
tp2498
sbag1
(g15
g3
Ntp2499
Rp2500
(dp2501
g19
(I1
I2
tp2502
sbag1
(g15
g3
Ntp2503
Rp2504
(dp2505
g19
(I2
I2
tp2506
sbag1
(g15
g3
Ntp2507
Rp2508
(dp2509
g19
(I2
I3
tp2510
sbag1
(g15
g3
Ntp2511
Rp2512
(dp2513
g19
(I1
I3
tp2514
sbag1
(g15
g3
Ntp2515
Rp2516
(dp2517
g19
(I0
I3
tp2518
sbag1
(g15
g3
Ntp2519
Rp2520
(dp2521
g19
(I0
I2
tp2522
sbag1
(g15
g3
Ntp2523
Rp2524
(dp2525
g19
(I-1
I2
tp2526
sbag1
(g15
g3
Ntp2527
Rp2528
(dp2529
g19
(I-1
I1
tp2530
sbasg61
I11
sg62
g63
sg64
g2433
sg66
Nsg67
S'HHHPP'
p2531
sbag1
(g2
g3
Ntp2532
Rp2533
(dp2534
g7
I4
sg8
S'HHHHPPHPHPH'
p2535
sg10
I00
sg11
I15
sg12
I01
sg13
(lp2536
g1
(g15
g3
Ntp2537
Rp2538
(dp2539
g19
g20
sbag1
(g15
g3
Ntp2540
Rp2541
(dp2542
g19
(I0
I1
tp2543
sbag1
(g15
g3
Ntp2544
Rp2545
(dp2546
g19
(I1
I1
tp2547
sbag1
(g15
g3
Ntp2548
Rp2549
(dp2550
g19
(I1
I2
tp2551
sbag1
(g15
g3
Ntp2552
Rp2553
(dp2554
g19
(I2
I2
tp2555
sbag1
(g15
g3
Ntp2556
Rp2557
(dp2558
g19
(I2
I3
tp2559
sbag1
(g15
g3
Ntp2560
Rp2561
(dp2562
g19
(I1
I3
tp2563
sbag1
(g15
g3
Ntp2564
Rp2565
(dp2566
g19
(I0
I3
tp2567
sbag1
(g15
g3
Ntp2568
Rp2569
(dp2570
g19
(I0
I2
tp2571
sbag1
(g15
g3
Ntp2572
Rp2573
(dp2574
g19
(I-1
I2
tp2575
sbag1
(g15
g3
Ntp2576
Rp2577
(dp2578
g19
(I-1
I1
tp2579
sbasg61
I11
sg62
g63
sg64
g2433
sg66
Nsg67
S'HHHHPP'
p2580
sbag1
(g2
g3
Ntp2581
Rp2582
(dp2583
g7
I4
sg8
S'PHPHHPHPHPH'
p2584
sg10
I00
sg11
I15
sg12
I01
sg13
(lp2585
g1
(g15
g3
Ntp2586
Rp2587
(dp2588
g19
g20
sbag1
(g15
g3
Ntp2589
Rp2590
(dp2591
g19
(I0
I1
tp2592
sbag1
(g15
g3
Ntp2593
Rp2594
(dp2595
g19
(I1
I1
tp2596
sbag1
(g15
g3
Ntp2597
Rp2598
(dp2599
g19
(I1
I2
tp2600
sbag1
(g15
g3
Ntp2601
Rp2602
(dp2603
g19
(I2
I2
tp2604
sbag1
(g15
g3
Ntp2605
Rp2606
(dp2607
g19
(I2
I3
tp2608
sbag1
(g15
g3
Ntp2609
Rp2610
(dp2611
g19
(I1
I3
tp2612
sbag1
(g15
g3
Ntp2613
Rp2614
(dp2615
g19
(I0
I3
tp2616
sbag1
(g15
g3
Ntp2617
Rp2618
(dp2619
g19
(I0
I2
tp2620
sbag1
(g15
g3
Ntp2621
Rp2622
(dp2623
g19
(I-1
I2
tp2624
sbag1
(g15
g3
Ntp2625
Rp2626
(dp2627
g19
(I-1
I1
tp2628
sbasg61
I11
sg62
g63
sg64
g2433
sg66
Nsg67
S'HHPH'
p2629
sbag1
(g2
g3
Ntp2630
Rp2631
(dp2632
g7
I4
sg8
S'HHPHHPHPHPH'
p2633
sg10
I00
sg11
I15
sg12
I01
sg13
(lp2634
g1
(g15
g3
Ntp2635
Rp2636
(dp2637
g19
g20
sbag1
(g15
g3
Ntp2638
Rp2639
(dp2640
g19
(I0
I1
tp2641
sbag1
(g15
g3
Ntp2642
Rp2643
(dp2644
g19
(I1
I1
tp2645
sbag1
(g15
g3
Ntp2646
Rp2647
(dp2648
g19
(I1
I2
tp2649
sbag1
(g15
g3
Ntp2650
Rp2651
(dp2652
g19
(I2
I2
tp2653
sbag1
(g15
g3
Ntp2654
Rp2655
(dp2656
g19
(I2
I3
tp2657
sbag1
(g15
g3
Ntp2658
Rp2659
(dp2660
g19
(I1
I3
tp2661
sbag1
(g15
g3
Ntp2662
Rp2663
(dp2664
g19
(I0
I3
tp2665
sbag1
(g15
g3
Ntp2666
Rp2667
(dp2668
g19
(I0
I2
tp2669
sbag1
(g15
g3
Ntp2670
Rp2671
(dp2672
g19
(I-1
I2
tp2673
sbag1
(g15
g3
Ntp2674
Rp2675
(dp2676
g19
(I-1
I1
tp2677
sbasg61
I11
sg62
g63
sg64
g2433
sg66
Nsg67
S'HHPHH'
p2678
sbag1
(g2
g3
Ntp2679
Rp2680
(dp2681
g7
I4
sg8
S'PHHHHPHPHPH'
p2682
sg10
I00
sg11
I15
sg12
I01
sg13
(lp2683
g1
(g15
g3
Ntp2684
Rp2685
(dp2686
g19
g20
sbag1
(g15
g3
Ntp2687
Rp2688
(dp2689
g19
(I0
I1
tp2690
sbag1
(g15
g3
Ntp2691
Rp2692
(dp2693
g19
(I1
I1
tp2694
sbag1
(g15
g3
Ntp2695
Rp2696
(dp2697
g19
(I1
I2
tp2698
sbag1
(g15
g3
Ntp2699
Rp2700
(dp2701
g19
(I2
I2
tp2702
sbag1
(g15
g3
Ntp2703
Rp2704
(dp2705
g19
(I2
I3
tp2706
sbag1
(g15
g3
Ntp2707
Rp2708
(dp2709
g19
(I1
I3
tp2710
sbag1
(g15
g3
Ntp2711
Rp2712
(dp2713
g19
(I0
I3
tp2714
sbag1
(g15
g3
Ntp2715
Rp2716
(dp2717
g19
(I0
I2
tp2718
sbag1
(g15
g3
Ntp2719
Rp2720
(dp2721
g19
(I-1
I2
tp2722
sbag1
(g15
g3
Ntp2723
Rp2724
(dp2725
g19
(I-1
I1
tp2726
sbasg61
I11
sg62
g63
sg64
g2433
sg66
Nsg67
S'HHHHPH'
p2727
sbag1
(g2
g3
Ntp2728
Rp2729
(dp2730
g7
I4
sg8
S'HHHHHPHPHPH'
p2731
sg10
I00
sg11
I15
sg12
I01
sg13
(lp2732
g1
(g15
g3
Ntp2733
Rp2734
(dp2735
g19
g20
sbag1
(g15
g3
Ntp2736
Rp2737
(dp2738
g19
(I0
I1
tp2739
sbag1
(g15
g3
Ntp2740
Rp2741
(dp2742
g19
(I1
I1
tp2743
sbag1
(g15
g3
Ntp2744
Rp2745
(dp2746
g19
(I1
I2
tp2747
sbag1
(g15
g3
Ntp2748
Rp2749
(dp2750
g19
(I2
I2
tp2751
sbag1
(g15
g3
Ntp2752
Rp2753
(dp2754
g19
(I2
I3
tp2755
sbag1
(g15
g3
Ntp2756
Rp2757
(dp2758
g19
(I1
I3
tp2759
sbag1
(g15
g3
Ntp2760
Rp2761
(dp2762
g19
(I0
I3
tp2763
sbag1
(g15
g3
Ntp2764
Rp2765
(dp2766
g19
(I0
I2
tp2767
sbag1
(g15
g3
Ntp2768
Rp2769
(dp2770
g19
(I-1
I2
tp2771
sbag1
(g15
g3
Ntp2772
Rp2773
(dp2774
g19
(I-1
I1
tp2775
sbasg61
I11
sg62
g63
sg64
g2433
sg66
Nsg67
S'HHHHPH'
p2776
sbag1
(g2
g3
Ntp2777
Rp2778
(dp2779
g7
I3
sg8
S'PHPPHPPHH'
p2780
sg10
I01
sg11
I15
sg12
I00
sg13
(lp2781
g1
(g15
g3
Ntp2782
Rp2783
(dp2784
g19
g20
sbag1
(g15
g3
Ntp2785
Rp2786
(dp2787
g19
(I0
I1
tp2788
sbag1
(g15
g3
Ntp2789
Rp2790
(dp2791
g19
(I1
I1
tp2792
sbag1
(g15
g3
Ntp2793
Rp2794
(dp2795
g19
(I1
I2
tp2796
sbag1
(g15
g3
Ntp2797
Rp2798
(dp2799
g19
(I0
I2
tp2800
sbag1
(g15
g3
Ntp2801
Rp2802
(dp2803
g19
(I0
I3
tp2804
sbag1
(g15
g3
Ntp2805
Rp2806
(dp2807
g19
(I-1
I3
tp2808
sbag1
(g15
g3
Ntp2809
Rp2810
(dp2811
g19
(I-1
I2
tp2812
sbag1
(g15
g3
Ntp2813
Rp2814
(dp2815
g19
(I-1
I1
tp2816
sbasg61
I9
sg62
S'HHPP'
p2817
sg64
S'URULULDD'
p2818
sg66
Nsg67
g63
sbag1
(g2
g3
Ntp2819
Rp2820
(dp2821
g7
I3
sg8
S'PHPPHPHHH'
p2822
sg10
I01
sg11
I15
sg12
I00
sg13
(lp2823
g1
(g15
g3
Ntp2824
Rp2825
(dp2826
g19
g20
sbag1
(g15
g3
Ntp2827
Rp2828
(dp2829
g19
(I0
I1
tp2830
sbag1
(g15
g3
Ntp2831
Rp2832
(dp2833
g19
(I1
I1
tp2834
sbag1
(g15
g3
Ntp2835
Rp2836
(dp2837
g19
(I1
I2
tp2838
sbag1
(g15
g3
Ntp2839
Rp2840
(dp2841
g19
(I0
I2
tp2842
sbag1
(g15
g3
Ntp2843
Rp2844
(dp2845
g19
(I0
I3
tp2846
sbag1
(g15
g3
Ntp2847
Rp2848
(dp2849
g19
(I-1
I3
tp2850
sbag1
(g15
g3
Ntp2851
Rp2852
(dp2853
g19
(I-1
I2
tp2854
sbag1
(g15
g3
Ntp2855
Rp2856
(dp2857
g19
(I-1
I1
tp2858
sbasg61
I9
sg62
S'HHHPH'
p2859
sg64
g2818
sg66
Nsg67
g63
sbag1
(g2
g3
Ntp2860
Rp2861
(dp2862
g7
I3
sg8
S'HHPPHPPH'
p2863
sg10
I01
sg11
I16
sg12
I01
sg13
(lp2864
g1
(g15
g3
Ntp2865
Rp2866
(dp2867
g19
g20
sbag1
(g15
g3
Ntp2868
Rp2869
(dp2870
g19
(I0
I1
tp2871
sbag1
(g15
g3
Ntp2872
Rp2873
(dp2874
g19
(I0
I2
tp2875
sbag1
(g15
g3
Ntp2876
Rp2877
(dp2878
g19
(I1
I2
tp2879
sbag1
(g15
g3
Ntp2880
Rp2881
(dp2882
g19
(I1
I1
tp2883
sbag1
(g15
g3
Ntp2884
Rp2885
(dp2886
g19
(I2
I1
tp2887
sbag1
(g15
g3
Ntp2888
Rp2889
(dp2890
g19
(I2
I0
tp2891
sbag1
(g15
g3
Ntp2892
Rp2893
(dp2894
g19
(I1
I0
tp2895
sbasg61
I8
sg62
S'HHPHH'
p2896
sg64
S'UURDRDL'
p2897
sg66
(I8
S'HHPP'
p2898
g2896
tp2899
sg67
g2898
sbag1
(g2
g3
Ntp2900
Rp2901
(dp2902
g7
I4
sg8
S'HPHPPHPPHH'
p2903
sg10
I01
sg11
I16
sg12
I00
sg13
(lp2904
g1
(g15
g3
Ntp2905
Rp2906
(dp2907
g19
g20
sbag1
(g15
g3
Ntp2908
Rp2909
(dp2910
g19
(I0
I1
tp2911
sbag1
(g15
g3
Ntp2912
Rp2913
(dp2914
g19
(I1
I1
tp2915
sbag1
(g15
g3
Ntp2916
Rp2917
(dp2918
g19
(I1
I2
tp2919
sbag1
(g15
g3
Ntp2920
Rp2921
(dp2922
g19
(I2
I2
tp2923
sbag1
(g15
g3
Ntp2924
Rp2925
(dp2926
g19
(I2
I1
tp2927
sbag1
(g15
g3
Ntp2928
Rp2929
(dp2930
g19
(I3
I1
tp2931
sbag1
(g15
g3
Ntp2932
Rp2933
(dp2934
g19
(I3
I0
tp2935
sbag1
(g15
g3
Ntp2936
Rp2937
(dp2938
g19
(I2
I0
tp2939
sbag1
(g15
g3
Ntp2940
Rp2941
(dp2942
g19
(I1
I0
tp2943
sbasg61
I10
sg62
S'HHHPH'
p2944
sg64
S'URURDRDLL'
p2945
sg66
Nsg67
g63
sbag1
(g2
g3
Ntp2946
Rp2947
(dp2948
g7
I2
sg8
S'PHPPHPH'
p2949
sg10
I00
sg11
I16
sg12
I00
sg13
(lp2950
g1
(g15
g3
Ntp2951
Rp2952
(dp2953
g19
g20
sbag1
(g15
g3
Ntp2954
Rp2955
(dp2956
g19
(I0
I1
tp2957
sbag1
(g15
g3
Ntp2958
Rp2959
(dp2960
g19
(I1
I1
tp2961
sbag1
(g15
g3
Ntp2962
Rp2963
(dp2964
g19
(I1
I2
tp2965
sbag1
(g15
g3
Ntp2966
Rp2967
(dp2968
g19
(I0
I2
tp2969
sbag1
(g15
g3
Ntp2970
Rp2971
(dp2972
g19
(I-1
I2
tp2973
sbag1
(g15
g3
Ntp2974
Rp2975
(dp2976
g19
(I-1
I1
tp2977
sbasg61
I7
sg62
g63
sg64
S'URULLD'
p2978
sg66
Nsg67
g63
sbag1
(g2
g3
Ntp2979
Rp2980
(dp2981
g7
I2
sg8
S'HHPPHPH'
p2982
sg10
I00
sg11
I16
sg12
I01
sg13
(lp2983
g1
(g15
g3
Ntp2984
Rp2985
(dp2986
g19
g20
sbag1
(g15
g3
Ntp2987
Rp2988
(dp2989
g19
(I0
I1
tp2990
sbag1
(g15
g3
Ntp2991
Rp2992
(dp2993
g19
(I1
I1
tp2994
sbag1
(g15
g3
Ntp2995
Rp2996
(dp2997
g19
(I1
I2
tp2998
sbag1
(g15
g3
Ntp2999
Rp3000
(dp3001
g19
(I0
I2
tp3002
sbag1
(g15
g3
Ntp3003
Rp3004
(dp3005
g19
(I-1
I2
tp3006
sbag1
(g15
g3
Ntp3007
Rp3008
(dp3009
g19
(I-1
I1
tp3010
sbasg61
I7
sg62
g63
sg64
g2978
sg66
Nsg67
S'HHPP'
p3011
sbag1
(g2
g3
Ntp3012
Rp3013
(dp3014
g7
I2
sg8
S'PHHPHPH'
p3015
sg10
I00
sg11
I16
sg12
I01
sg13
(lp3016
g1
(g15
g3
Ntp3017
Rp3018
(dp3019
g19
g20
sbag1
(g15
g3
Ntp3020
Rp3021
(dp3022
g19
(I0
I1
tp3023
sbag1
(g15
g3
Ntp3024
Rp3025
(dp3026
g19
(I1
I1
tp3027
sbag1
(g15
g3
Ntp3028
Rp3029
(dp3030
g19
(I1
I2
tp3031
sbag1
(g15
g3
Ntp3032
Rp3033
(dp3034
g19
(I0
I2
tp3035
sbag1
(g15
g3
Ntp3036
Rp3037
(dp3038
g19
(I-1
I2
tp3039
sbag1
(g15
g3
Ntp3040
Rp3041
(dp3042
g19
(I-1
I1
tp3043
sbasg61
I7
sg62
g63
sg64
g2978
sg66
Nsg67
S'HHPH'
p3044
sbag1
(g2
g3
Ntp3045
Rp3046
(dp3047
g7
I2
sg8
S'HHHPHPH'
p3048
sg10
I00
sg11
I16
sg12
I01
sg13
(lp3049
g1
(g15
g3
Ntp3050
Rp3051
(dp3052
g19
g20
sbag1
(g15
g3
Ntp3053
Rp3054
(dp3055
g19
(I0
I1
tp3056
sbag1
(g15
g3
Ntp3057
Rp3058
(dp3059
g19
(I1
I1
tp3060
sbag1
(g15
g3
Ntp3061
Rp3062
(dp3063
g19
(I1
I2
tp3064
sbag1
(g15
g3
Ntp3065
Rp3066
(dp3067
g19
(I0
I2
tp3068
sbag1
(g15
g3
Ntp3069
Rp3070
(dp3071
g19
(I-1
I2
tp3072
sbag1
(g15
g3
Ntp3073
Rp3074
(dp3075
g19
(I-1
I1
tp3076
sbasg61
I7
sg62
g63
sg64
g2978
sg66
Nsg67
S'HHHPH'
p3077
sbag1
(g2
g3
Ntp3078
Rp3079
(dp3080
g7
I2
sg8
S'PHPPHHH'
p3081
sg10
I01
sg11
I16
sg12
I00
sg13
(lp3082
g1
(g15
g3
Ntp3083
Rp3084
(dp3085
g19
g20
sbag1
(g15
g3
Ntp3086
Rp3087
(dp3088
g19
(I0
I1
tp3089
sbag1
(g15
g3
Ntp3090
Rp3091
(dp3092
g19
(I1
I1
tp3093
sbag1
(g15
g3
Ntp3094
Rp3095
(dp3096
g19
(I1
I2
tp3097
sbag1
(g15
g3
Ntp3098
Rp3099
(dp3100
g19
(I0
I2
tp3101
sbag1
(g15
g3
Ntp3102
Rp3103
(dp3104
g19
(I-1
I2
tp3105
sbag1
(g15
g3
Ntp3106
Rp3107
(dp3108
g19
(I-1
I1
tp3109
sbasg61
I7
sg62
S'HHPHH'
p3110
sg64
g2978
sg66
Nsg67
g63
sbag1
(g2
g3
Ntp3111
Rp3112
(dp3113
g7
I4
sg8
S'PHPPHPPHPPH'
p3114
sg10
I00
sg11
I16
sg12
I00
sg13
(lp3115
g1
(g15
g3
Ntp3116
Rp3117
(dp3118
g19
g20
sbag1
(g15
g3
Ntp3119
Rp3120
(dp3121
g19
(I0
I1
tp3122
sbag1
(g15
g3
Ntp3123
Rp3124
(dp3125
g19
(I1
I1
tp3126
sbag1
(g15
g3
Ntp3127
Rp3128
(dp3129
g19
(I1
I2
tp3130
sbag1
(g15
g3
Ntp3131
Rp3132
(dp3133
g19
(I0
I2
tp3134
sbag1
(g15
g3
Ntp3135
Rp3136
(dp3137
g19
(I0
I3
tp3138
sbag1
(g15
g3
Ntp3139
Rp3140
(dp3141
g19
(I-1
I3
tp3142
sbag1
(g15
g3
Ntp3143
Rp3144
(dp3145
g19
(I-1
I2
tp3146
sbag1
(g15
g3
Ntp3147
Rp3148
(dp3149
g19
(I-2
I2
tp3150
sbag1
(g15
g3
Ntp3151
Rp3152
(dp3153
g19
(I-2
I1
tp3154
sbag1
(g15
g3
Ntp3155
Rp3156
(dp3157
g19
(I-1
I1
tp3158
sbasg61
I11
sg62
g63
sg64
S'URULULDLDR'
p3159
sg66
Nsg67
g63
sbag1
(g2
g3
Ntp3160
Rp3161
(dp3162
g7
I4
sg8
S'HHPPHPPHPPH'
p3163
sg10
I00
sg11
I16
sg12
I01
sg13
(lp3164
g1
(g15
g3
Ntp3165
Rp3166
(dp3167
g19
g20
sbag1
(g15
g3
Ntp3168
Rp3169
(dp3170
g19
(I0
I1
tp3171
sbag1
(g15
g3
Ntp3172
Rp3173
(dp3174
g19
(I1
I1
tp3175
sbag1
(g15
g3
Ntp3176
Rp3177
(dp3178
g19
(I1
I2
tp3179
sbag1
(g15
g3
Ntp3180
Rp3181
(dp3182
g19
(I0
I2
tp3183
sbag1
(g15
g3
Ntp3184
Rp3185
(dp3186
g19
(I0
I3
tp3187
sbag1
(g15
g3
Ntp3188
Rp3189
(dp3190
g19
(I-1
I3
tp3191
sbag1
(g15
g3
Ntp3192
Rp3193
(dp3194
g19
(I-1
I2
tp3195
sbag1
(g15
g3
Ntp3196
Rp3197
(dp3198
g19
(I-2
I2
tp3199
sbag1
(g15
g3
Ntp3200
Rp3201
(dp3202
g19
(I-2
I1
tp3203
sbag1
(g15
g3
Ntp3204
Rp3205
(dp3206
g19
(I-1
I1
tp3207
sbasg61
I11
sg62
g63
sg64
g3159
sg66
Nsg67
S'HHPP'
p3208
sbag1
(g2
g3
Ntp3209
Rp3210
(dp3211
g7
I4
sg8
S'PHHPHPPHPPH'
p3212
sg10
I00
sg11
I16
sg12
I01
sg13
(lp3213
g1
(g15
g3
Ntp3214
Rp3215
(dp3216
g19
g20
sbag1
(g15
g3
Ntp3217
Rp3218
(dp3219
g19
(I0
I1
tp3220
sbag1
(g15
g3
Ntp3221
Rp3222
(dp3223
g19
(I1
I1
tp3224
sbag1
(g15
g3
Ntp3225
Rp3226
(dp3227
g19
(I1
I2
tp3228
sbag1
(g15
g3
Ntp3229
Rp3230
(dp3231
g19
(I0
I2
tp3232
sbag1
(g15
g3
Ntp3233
Rp3234
(dp3235
g19
(I0
I3
tp3236
sbag1
(g15
g3
Ntp3237
Rp3238
(dp3239
g19
(I-1
I3
tp3240
sbag1
(g15
g3
Ntp3241
Rp3242
(dp3243
g19
(I-1
I2
tp3244
sbag1
(g15
g3
Ntp3245
Rp3246
(dp3247
g19
(I-2
I2
tp3248
sbag1
(g15
g3
Ntp3249
Rp3250
(dp3251
g19
(I-2
I1
tp3252
sbag1
(g15
g3
Ntp3253
Rp3254
(dp3255
g19
(I-1
I1
tp3256
sbasg61
I11
sg62
g63
sg64
g3159
sg66
Nsg67
S'HHPH'
p3257
sbag1
(g2
g3
Ntp3258
Rp3259
(dp3260
g7
I4
sg8
S'HHHPHPPHPPH'
p3261
sg10
I00
sg11
I16
sg12
I01
sg13
(lp3262
g1
(g15
g3
Ntp3263
Rp3264
(dp3265
g19
g20
sbag1
(g15
g3
Ntp3266
Rp3267
(dp3268
g19
(I0
I1
tp3269
sbag1
(g15
g3
Ntp3270
Rp3271
(dp3272
g19
(I1
I1
tp3273
sbag1
(g15
g3
Ntp3274
Rp3275
(dp3276
g19
(I1
I2
tp3277
sbag1
(g15
g3
Ntp3278
Rp3279
(dp3280
g19
(I0
I2
tp3281
sbag1
(g15
g3
Ntp3282
Rp3283
(dp3284
g19
(I0
I3
tp3285
sbag1
(g15
g3
Ntp3286
Rp3287
(dp3288
g19
(I-1
I3
tp3289
sbag1
(g15
g3
Ntp3290
Rp3291
(dp3292
g19
(I-1
I2
tp3293
sbag1
(g15
g3
Ntp3294
Rp3295
(dp3296
g19
(I-2
I2
tp3297
sbag1
(g15
g3
Ntp3298
Rp3299
(dp3300
g19
(I-2
I1
tp3301
sbag1
(g15
g3
Ntp3302
Rp3303
(dp3304
g19
(I-1
I1
tp3305
sbasg61
I11
sg62
g63
sg64
g3159
sg66
Nsg67
S'HHHPH'
p3306
sbag1
(g2
g3
Ntp3307
Rp3308
(dp3309
g7
I4
sg8
S'PHPPHPHHPPH'
p3310
sg10
I00
sg11
I16
sg12
I01
sg13
(lp3311
g1
(g15
g3
Ntp3312
Rp3313
(dp3314
g19
g20
sbag1
(g15
g3
Ntp3315
Rp3316
(dp3317
g19
(I0
I1
tp3318
sbag1
(g15
g3
Ntp3319
Rp3320
(dp3321
g19
(I1
I1
tp3322
sbag1
(g15
g3
Ntp3323
Rp3324
(dp3325
g19
(I1
I2
tp3326
sbag1
(g15
g3
Ntp3327
Rp3328
(dp3329
g19
(I0
I2
tp3330
sbag1
(g15
g3
Ntp3331
Rp3332
(dp3333
g19
(I0
I3
tp3334
sbag1
(g15
g3
Ntp3335
Rp3336
(dp3337
g19
(I-1
I3
tp3338
sbag1
(g15
g3
Ntp3339
Rp3340
(dp3341
g19
(I-1
I2
tp3342
sbag1
(g15
g3
Ntp3343
Rp3344
(dp3345
g19
(I-2
I2
tp3346
sbag1
(g15
g3
Ntp3347
Rp3348
(dp3349
g19
(I-2
I1
tp3350
sbag1
(g15
g3
Ntp3351
Rp3352
(dp3353
g19
(I-1
I1
tp3354
sbasg61
I11
sg62
g63
sg64
g3159
sg66
Nsg67
S'HHPP'
p3355
sbag1
(g2
g3
Ntp3356
Rp3357
(dp3358
g7
I4
sg8
S'PHHPHPHHPPH'
p3359
sg10
I00
sg11
I16
sg12
I01
sg13
(lp3360
g1
(g15
g3
Ntp3361
Rp3362
(dp3363
g19
g20
sbag1
(g15
g3
Ntp3364
Rp3365
(dp3366
g19
(I0
I1
tp3367
sbag1
(g15
g3
Ntp3368
Rp3369
(dp3370
g19
(I1
I1
tp3371
sbag1
(g15
g3
Ntp3372
Rp3373
(dp3374
g19
(I1
I2
tp3375
sbag1
(g15
g3
Ntp3376
Rp3377
(dp3378
g19
(I0
I2
tp3379
sbag1
(g15
g3
Ntp3380
Rp3381
(dp3382
g19
(I0
I3
tp3383
sbag1
(g15
g3
Ntp3384
Rp3385
(dp3386
g19
(I-1
I3
tp3387
sbag1
(g15
g3
Ntp3388
Rp3389
(dp3390
g19
(I-1
I2
tp3391
sbag1
(g15
g3
Ntp3392
Rp3393
(dp3394
g19
(I-2
I2
tp3395
sbag1
(g15
g3
Ntp3396
Rp3397
(dp3398
g19
(I-2
I1
tp3399
sbag1
(g15
g3
Ntp3400
Rp3401
(dp3402
g19
(I-1
I1
tp3403
sbasg61
I11
sg62
g63
sg64
g3159
sg66
Nsg67
S'HHPH'
p3404
sbag1
(g2
g3
Ntp3405
Rp3406
(dp3407
g7
I4
sg8
S'PHPPHPPHPHH'
p3408
sg10
I01
sg11
I16
sg12
I00
sg13
(lp3409
g1
(g15
g3
Ntp3410
Rp3411
(dp3412
g19
g20
sbag1
(g15
g3
Ntp3413
Rp3414
(dp3415
g19
(I0
I1
tp3416
sbag1
(g15
g3
Ntp3417
Rp3418
(dp3419
g19
(I1
I1
tp3420
sbag1
(g15
g3
Ntp3421
Rp3422
(dp3423
g19
(I1
I2
tp3424
sbag1
(g15
g3
Ntp3425
Rp3426
(dp3427
g19
(I0
I2
tp3428
sbag1
(g15
g3
Ntp3429
Rp3430
(dp3431
g19
(I0
I3
tp3432
sbag1
(g15
g3
Ntp3433
Rp3434
(dp3435
g19
(I-1
I3
tp3436
sbag1
(g15
g3
Ntp3437
Rp3438
(dp3439
g19
(I-1
I2
tp3440
sbag1
(g15
g3
Ntp3441
Rp3442
(dp3443
g19
(I-2
I2
tp3444
sbag1
(g15
g3
Ntp3445
Rp3446
(dp3447
g19
(I-2
I1
tp3448
sbag1
(g15
g3
Ntp3449
Rp3450
(dp3451
g19
(I-1
I1
tp3452
sbasg61
I11
sg62
S'HHPH'
p3453
sg64
g3159
sg66
Nsg67
g63
sbag1
(g2
g3
Ntp3454
Rp3455
(dp3456
g7
I3
sg8
S'HPHPHPPH'
p3457
sg10
I00
sg11
I16
sg12
I00
sg13
(lp3458
g1
(g15
g3
Ntp3459
Rp3460
(dp3461
g19
g20
sbag1
(g15
g3
Ntp3462
Rp3463
(dp3464
g19
(I0
I1
tp3465
sbag1
(g15
g3
Ntp3466
Rp3467
(dp3468
g19
(I1
I1
tp3469
sbag1
(g15
g3
Ntp3470
Rp3471
(dp3472
g19
(I2
I1
tp3473
sbag1
(g15
g3
Ntp3474
Rp3475
(dp3476
g19
(I2
I0
tp3477
sbag1
(g15
g3
Ntp3478
Rp3479
(dp3480
g19
(I2
I-1
tp3481
sbag1
(g15
g3
Ntp3482
Rp3483
(dp3484
g19
(I1
I-1
tp3485
sbag1
(g15
g3
Ntp3486
Rp3487
(dp3488
g19
(I1
I0
tp3489
sbasg61
I8
sg62
g63
sg64
S'URRDDLU'
p3490
sg66
Nsg67
g63
sbag1
(g2
g3
Ntp3491
Rp3492
(dp3493
g7
I3
sg8
S'HPHPHPHH'
p3494
sg10
I00
sg11
I16
sg12
I00
sg13
(lp3495
g1
(g15
g3
Ntp3496
Rp3497
(dp3498
g19
g20
sbag1
(g15
g3
Ntp3499
Rp3500
(dp3501
g19
(I0
I1
tp3502
sbag1
(g15
g3
Ntp3503
Rp3504
(dp3505
g19
(I1
I1
tp3506
sbag1
(g15
g3
Ntp3507
Rp3508
(dp3509
g19
(I2
I1
tp3510
sbag1
(g15
g3
Ntp3511
Rp3512
(dp3513
g19
(I2
I0
tp3514
sbag1
(g15
g3
Ntp3515
Rp3516
(dp3517
g19
(I2
I-1
tp3518
sbag1
(g15
g3
Ntp3519
Rp3520
(dp3521
g19
(I1
I-1
tp3522
sbag1
(g15
g3
Ntp3523
Rp3524
(dp3525
g19
(I1
I0
tp3526
sbasg61
I8
sg62
g63
sg64
g3490
sg66
Nsg67
g63
sbag1
(g2
g3
Ntp3527
Rp3528
(dp3529
g7
I2
sg8
S'HPPHPH'
p3530
sg10
I01
sg11
I16
sg12
I00
sg13
(lp3531
g1
(g15
g3
Ntp3532
Rp3533
(dp3534
g19
g20
sbag1
(g15
g3
Ntp3535
Rp3536
(dp3537
g19
(I0
I1
tp3538
sbag1
(g15
g3
Ntp3539
Rp3540
(dp3541
g19
(I1
I1
tp3542
sbag1
(g15
g3
Ntp3543
Rp3544
(dp3545
g19
(I1
I0
tp3546
sbag1
(g15
g3
Ntp3547
Rp3548
(dp3549
g19
(I1
I-1
tp3550
sbag1
(g15
g3
Ntp3551
Rp3552
(dp3553
g19
(I0
I-1
tp3554
sbasg61
I6
sg62
S'HHPH'
p3555
sg64
S'URDDL'
p3556
sg66
Nsg67
g63
sbag1
(g2
g3
Ntp3557
Rp3558
(dp3559
g7
I2
sg8
S'HHPHPH'
p3560
sg10
I01
sg11
I17
sg12
I01
sg13
(lp3561
g1
(g15
g3
Ntp3562
Rp3563
(dp3564
g19
g20
sbag1
(g15
g3
Ntp3565
Rp3566
(dp3567
g19
(I0
I1
tp3568
sbag1
(g15
g3
Ntp3569
Rp3570
(dp3571
g19
(I1
I1
tp3572
sbag1
(g15
g3
Ntp3573
Rp3574
(dp3575
g19
(I1
I0
tp3576
sbag1
(g15
g3
Ntp3577
Rp3578
(dp3579
g19
(I1
I-1
tp3580
sbag1
(g15
g3
Ntp3581
Rp3582
(dp3583
g19
(I0
I-1
tp3584
sbasg61
I6
sg62
S'HHHPH'
p3585
sg64
g3556
sg66
(I6
S'HHPH'
p3586
g3585
tp3587
sg67
g3586
sbag1
(g2
g3
Ntp3588
Rp3589
(dp3590
g7
I2
sg8
S'HPPHHH'
p3591
sg10
I01
sg11
I17
sg12
I00
sg13
(lp3592
g1
(g15
g3
Ntp3593
Rp3594
(dp3595
g19
g20
sbag1
(g15
g3
Ntp3596
Rp3597
(dp3598
g19
(I0
I1
tp3599
sbag1
(g15
g3
Ntp3600
Rp3601
(dp3602
g19
(I1
I1
tp3603
sbag1
(g15
g3
Ntp3604
Rp3605
(dp3606
g19
(I1
I0
tp3607
sbag1
(g15
g3
Ntp3608
Rp3609
(dp3610
g19
(I1
I-1
tp3611
sbag1
(g15
g3
Ntp3612
Rp3613
(dp3614
g19
(I0
I-1
tp3615
sbasg61
I6
sg62
S'HHPHH'
p3616
sg64
g3556
sg66
Nsg67
g63
sbag1
(g2
g3
Ntp3617
Rp3618
(dp3619
g7
I4
sg8
S'HPHPPHPPHHP'
p3620
sg10
I00
sg11
I17
sg12
I00
sg13
(lp3621
g1
(g15
g3
Ntp3622
Rp3623
(dp3624
g19
g20
sbag1
(g15
g3
Ntp3625
Rp3626
(dp3627
g19
(I0
I1
tp3628
sbag1
(g15
g3
Ntp3629
Rp3630
(dp3631
g19
(I1
I1
tp3632
sbag1
(g15
g3
Ntp3633
Rp3634
(dp3635
g19
(I1
I2
tp3636
sbag1
(g15
g3
Ntp3637
Rp3638
(dp3639
g19
(I2
I2
tp3640
sbag1
(g15
g3
Ntp3641
Rp3642
(dp3643
g19
(I2
I1
tp3644
sbag1
(g15
g3
Ntp3645
Rp3646
(dp3647
g19
(I3
I1
tp3648
sbag1
(g15
g3
Ntp3649
Rp3650
(dp3651
g19
(I3
I0
tp3652
sbag1
(g15
g3
Ntp3653
Rp3654
(dp3655
g19
(I2
I0
tp3656
sbag1
(g15
g3
Ntp3657
Rp3658
(dp3659
g19
(I1
I0
tp3660
sbag1
(g15
g3
Ntp3661
Rp3662
(dp3663
g19
(I1
I-1
tp3664
sbasg61
I11
sg62
g63
sg64
S'URURDRDLLD'
p3665
sg66
Nsg67
g63
sbag1
(g2
g3
Ntp3666
Rp3667
(dp3668
g7
I4
sg8
S'HPHPHHPPHHP'
p3669
sg10
I00
sg11
I17
sg12
I01
sg13
(lp3670
g1
(g15
g3
Ntp3671
Rp3672
(dp3673
g19
g20
sbag1
(g15
g3
Ntp3674
Rp3675
(dp3676
g19
(I0
I1
tp3677
sbag1
(g15
g3
Ntp3678
Rp3679
(dp3680
g19
(I1
I1
tp3681
sbag1
(g15
g3
Ntp3682
Rp3683
(dp3684
g19
(I1
I2
tp3685
sbag1
(g15
g3
Ntp3686
Rp3687
(dp3688
g19
(I2
I2
tp3689
sbag1
(g15
g3
Ntp3690
Rp3691
(dp3692
g19
(I2
I1
tp3693
sbag1
(g15
g3
Ntp3694
Rp3695
(dp3696
g19
(I3
I1
tp3697
sbag1
(g15
g3
Ntp3698
Rp3699
(dp3700
g19
(I3
I0
tp3701
sbag1
(g15
g3
Ntp3702
Rp3703
(dp3704
g19
(I2
I0
tp3705
sbag1
(g15
g3
Ntp3706
Rp3707
(dp3708
g19
(I1
I0
tp3709
sbag1
(g15
g3
Ntp3710
Rp3711
(dp3712
g19
(I1
I-1
tp3713
sbasg61
I11
sg62
g63
sg64
g3665
sg66
Nsg67
S'HHPP'
p3714
sbag1
(g2
g3
Ntp3715
Rp3716
(dp3717
g7
I4
sg8
S'HPHPPHPPHHH'
p3718
sg10
I00
sg11
I17
sg12
I00
sg13
(lp3719
g1
(g15
g3
Ntp3720
Rp3721
(dp3722
g19
g20
sbag1
(g15
g3
Ntp3723
Rp3724
(dp3725
g19
(I0
I1
tp3726
sbag1
(g15
g3
Ntp3727
Rp3728
(dp3729
g19
(I1
I1
tp3730
sbag1
(g15
g3
Ntp3731
Rp3732
(dp3733
g19
(I1
I2
tp3734
sbag1
(g15
g3
Ntp3735
Rp3736
(dp3737
g19
(I2
I2
tp3738
sbag1
(g15
g3
Ntp3739
Rp3740
(dp3741
g19
(I2
I1
tp3742
sbag1
(g15
g3
Ntp3743
Rp3744
(dp3745
g19
(I3
I1
tp3746
sbag1
(g15
g3
Ntp3747
Rp3748
(dp3749
g19
(I3
I0
tp3750
sbag1
(g15
g3
Ntp3751
Rp3752
(dp3753
g19
(I2
I0
tp3754
sbag1
(g15
g3
Ntp3755
Rp3756
(dp3757
g19
(I1
I0
tp3758
sbag1
(g15
g3
Ntp3759
Rp3760
(dp3761
g19
(I1
I-1
tp3762
sbasg61
I11
sg62
g63
sg64
g3665
sg66
Nsg67
g63
sbag1
(g2
g3
Ntp3763
Rp3764
(dp3765
g7
I4
sg8
S'HPHPHHPPHHH'
p3766
sg10
I00
sg11
I17
sg12
I01
sg13
(lp3767
g1
(g15
g3
Ntp3768
Rp3769
(dp3770
g19
g20
sbag1
(g15
g3
Ntp3771
Rp3772
(dp3773
g19
(I0
I1
tp3774
sbag1
(g15
g3
Ntp3775
Rp3776
(dp3777
g19
(I1
I1
tp3778
sbag1
(g15
g3
Ntp3779
Rp3780
(dp3781
g19
(I1
I2
tp3782
sbag1
(g15
g3
Ntp3783
Rp3784
(dp3785
g19
(I2
I2
tp3786
sbag1
(g15
g3
Ntp3787
Rp3788
(dp3789
g19
(I2
I1
tp3790
sbag1
(g15
g3
Ntp3791
Rp3792
(dp3793
g19
(I3
I1
tp3794
sbag1
(g15
g3
Ntp3795
Rp3796
(dp3797
g19
(I3
I0
tp3798
sbag1
(g15
g3
Ntp3799
Rp3800
(dp3801
g19
(I2
I0
tp3802
sbag1
(g15
g3
Ntp3803
Rp3804
(dp3805
g19
(I1
I0
tp3806
sbag1
(g15
g3
Ntp3807
Rp3808
(dp3809
g19
(I1
I-1
tp3810
sbasg61
I11
sg62
g63
sg64
g3665
sg66
Nsg67
S'HHPP'
p3811
sbag1
(g2
g3
Ntp3812
Rp3813
(dp3814
g7
I3
sg8
S'HPPHPHPH'
p3815
sg10
I00
sg11
I17
sg12
I00
sg13
(lp3816
g1
(g15
g3
Ntp3817
Rp3818
(dp3819
g19
g20
sbag1
(g15
g3
Ntp3820
Rp3821
(dp3822
g19
(I0
I1
tp3823
sbag1
(g15
g3
Ntp3824
Rp3825
(dp3826
g19
(I1
I1
tp3827
sbag1
(g15
g3
Ntp3828
Rp3829
(dp3830
g19
(I1
I0
tp3831
sbag1
(g15
g3
Ntp3832
Rp3833
(dp3834
g19
(I1
I-1
tp3835
sbag1
(g15
g3
Ntp3836
Rp3837
(dp3838
g19
(I0
I-1
tp3839
sbag1
(g15
g3
Ntp3840
Rp3841
(dp3842
g19
(I-1
I-1
tp3843
sbag1
(g15
g3
Ntp3844
Rp3845
(dp3846
g19
(I-1
I0
tp3847
sbasg61
I8
sg62
g63
sg64
S'URDDLLU'
p3848
sg66
Nsg67
g63
sbag1
(g2
g3
Ntp3849
Rp3850
(dp3851
g7
I3
sg8
S'HHPHPHPH'
p3852
sg10
I00
sg11
I17
sg12
I01
sg13
(lp3853
g1
(g15
g3
Ntp3854
Rp3855
(dp3856
g19
g20
sbag1
(g15
g3
Ntp3857
Rp3858
(dp3859
g19
(I0
I1
tp3860
sbag1
(g15
g3
Ntp3861
Rp3862
(dp3863
g19
(I1
I1
tp3864
sbag1
(g15
g3
Ntp3865
Rp3866
(dp3867
g19
(I1
I0
tp3868
sbag1
(g15
g3
Ntp3869
Rp3870
(dp3871
g19
(I1
I-1
tp3872
sbag1
(g15
g3
Ntp3873
Rp3874
(dp3875
g19
(I0
I-1
tp3876
sbag1
(g15
g3
Ntp3877
Rp3878
(dp3879
g19
(I-1
I-1
tp3880
sbag1
(g15
g3
Ntp3881
Rp3882
(dp3883
g19
(I-1
I0
tp3884
sbasg61
I8
sg62
g63
sg64
g3848
sg66
Nsg67
S'HHPH'
p3885
sbag1
(g2
g3
Ntp3886
Rp3887
(dp3888
g7
I4
sg8
S'PHPPHPHPPHH'
p3889
sg10
I00
sg11
I17
sg12
I00
sg13
(lp3890
g1
(g15
g3
Ntp3891
Rp3892
(dp3893
g19
g20
sbag1
(g15
g3
Ntp3894
Rp3895
(dp3896
g19
(I0
I1
tp3897
sbag1
(g15
g3
Ntp3898
Rp3899
(dp3900
g19
(I1
I1
tp3901
sbag1
(g15
g3
Ntp3902
Rp3903
(dp3904
g19
(I1
I2
tp3905
sbag1
(g15
g3
Ntp3906
Rp3907
(dp3908
g19
(I0
I2
tp3909
sbag1
(g15
g3
Ntp3910
Rp3911
(dp3912
g19
(I0
I3
tp3913
sbag1
(g15
g3
Ntp3914
Rp3915
(dp3916
g19
(I-1
I3
tp3917
sbag1
(g15
g3
Ntp3918
Rp3919
(dp3920
g19
(I-2
I3
tp3921
sbag1
(g15
g3
Ntp3922
Rp3923
(dp3924
g19
(I-2
I2
tp3925
sbag1
(g15
g3
Ntp3926
Rp3927
(dp3928
g19
(I-1
I2
tp3929
sbag1
(g15
g3
Ntp3930
Rp3931
(dp3932
g19
(I-1
I1
tp3933
sbasg61
I11
sg62
g63
sg64
S'URULULLDRD'
p3934
sg66
Nsg67
g63
sbag1
(g2
g3
Ntp3935
Rp3936
(dp3937
g7
I4
sg8
S'PHHPHPHPPHH'
p3938
sg10
I00
sg11
I17
sg12
I01
sg13
(lp3939
g1
(g15
g3
Ntp3940
Rp3941
(dp3942
g19
g20
sbag1
(g15
g3
Ntp3943
Rp3944
(dp3945
g19
(I0
I1
tp3946
sbag1
(g15
g3
Ntp3947
Rp3948
(dp3949
g19
(I1
I1
tp3950
sbag1
(g15
g3
Ntp3951
Rp3952
(dp3953
g19
(I1
I2
tp3954
sbag1
(g15
g3
Ntp3955
Rp3956
(dp3957
g19
(I0
I2
tp3958
sbag1
(g15
g3
Ntp3959
Rp3960
(dp3961
g19
(I0
I3
tp3962
sbag1
(g15
g3
Ntp3963
Rp3964
(dp3965
g19
(I-1
I3
tp3966
sbag1
(g15
g3
Ntp3967
Rp3968
(dp3969
g19
(I-2
I3
tp3970
sbag1
(g15
g3
Ntp3971
Rp3972
(dp3973
g19
(I-2
I2
tp3974
sbag1
(g15
g3
Ntp3975
Rp3976
(dp3977
g19
(I-1
I2
tp3978
sbag1
(g15
g3
Ntp3979
Rp3980
(dp3981
g19
(I-1
I1
tp3982
sbasg61
I11
sg62
g63
sg64
g3934
sg66
Nsg67
S'HHPH'
p3983
sbag1
(g2
g3
Ntp3984
Rp3985
(dp3986
g7
I4
sg8
S'PHPPHPHPHHH'
p3987
sg10
I00
sg11
I17
sg12
I00
sg13
(lp3988
g1
(g15
g3
Ntp3989
Rp3990
(dp3991
g19
g20
sbag1
(g15
g3
Ntp3992
Rp3993
(dp3994
g19
(I0
I1
tp3995
sbag1
(g15
g3
Ntp3996
Rp3997
(dp3998
g19
(I1
I1
tp3999
sbag1
(g15
g3
Ntp4000
Rp4001
(dp4002
g19
(I1
I2
tp4003
sbag1
(g15
g3
Ntp4004
Rp4005
(dp4006
g19
(I0
I2
tp4007
sbag1
(g15
g3
Ntp4008
Rp4009
(dp4010
g19
(I0
I3
tp4011
sbag1
(g15
g3
Ntp4012
Rp4013
(dp4014
g19
(I-1
I3
tp4015
sbag1
(g15
g3
Ntp4016
Rp4017
(dp4018
g19
(I-2
I3
tp4019
sbag1
(g15
g3
Ntp4020
Rp4021
(dp4022
g19
(I-2
I2
tp4023
sbag1
(g15
g3
Ntp4024
Rp4025
(dp4026
g19
(I-1
I2
tp4027
sbag1
(g15
g3
Ntp4028
Rp4029
(dp4030
g19
(I-1
I1
tp4031
sbasg61
I11
sg62
g63
sg64
g3934
sg66
Nsg67
g63
sbag1
(g2
g3
Ntp4032
Rp4033
(dp4034
g7
I4
sg8
S'PHHPHPHPHHH'
p4035
sg10
I00
sg11
I17
sg12
I01
sg13
(lp4036
g1
(g15
g3
Ntp4037
Rp4038
(dp4039
g19
g20
sbag1
(g15
g3
Ntp4040
Rp4041
(dp4042
g19
(I0
I1
tp4043
sbag1
(g15
g3
Ntp4044
Rp4045
(dp4046
g19
(I1
I1
tp4047
sbag1
(g15
g3
Ntp4048
Rp4049
(dp4050
g19
(I1
I2
tp4051
sbag1
(g15
g3
Ntp4052
Rp4053
(dp4054
g19
(I0
I2
tp4055
sbag1
(g15
g3
Ntp4056
Rp4057
(dp4058
g19
(I0
I3
tp4059
sbag1
(g15
g3
Ntp4060
Rp4061
(dp4062
g19
(I-1
I3
tp4063
sbag1
(g15
g3
Ntp4064
Rp4065
(dp4066
g19
(I-2
I3
tp4067
sbag1
(g15
g3
Ntp4068
Rp4069
(dp4070
g19
(I-2
I2
tp4071
sbag1
(g15
g3
Ntp4072
Rp4073
(dp4074
g19
(I-1
I2
tp4075
sbag1
(g15
g3
Ntp4076
Rp4077
(dp4078
g19
(I-1
I1
tp4079
sbasg61
I11
sg62
g63
sg64
g3934
sg66
Nsg67
S'HHPH'
p4080
sbag1
(g2
g3
Ntp4081
Rp4082
(dp4083
g7
I2
sg8
S'HPHPPH'
p4084
sg10
I01
sg11
I17
sg12
I00
sg13
(lp4085
g1
(g15
g3
Ntp4086
Rp4087
(dp4088
g19
g20
sbag1
(g15
g3
Ntp4089
Rp4090
(dp4091
g19
(I0
I1
tp4092
sbag1
(g15
g3
Ntp4093
Rp4094
(dp4095
g19
(I1
I1
tp4096
sbag1
(g15
g3
Ntp4097
Rp4098
(dp4099
g19
(I2
I1
tp4100
sbag1
(g15
g3
Ntp4101
Rp4102
(dp4103
g19
(I2
I0
tp4104
sbag1
(g15
g3
Ntp4105
Rp4106
(dp4107
g19
(I1
I0
tp4108
sbasg61
I6
sg62
S'HHPH'
p4109
sg64
S'URRDL'
p4110
sg66
Nsg67
g63
sbag1
(g2
g3
Ntp4111
Rp4112
(dp4113
g7
I2
sg8
S'HHHPPH'
p4114
sg10
I01
sg11
I18
sg12
I01
sg13
(lp4115
g1
(g15
g3
Ntp4116
Rp4117
(dp4118
g19
g20
sbag1
(g15
g3
Ntp4119
Rp4120
(dp4121
g19
(I0
I1
tp4122
sbag1
(g15
g3
Ntp4123
Rp4124
(dp4125
g19
(I1
I1
tp4126
sbag1
(g15
g3
Ntp4127
Rp4128
(dp4129
g19
(I2
I1
tp4130
sbag1
(g15
g3
Ntp4131
Rp4132
(dp4133
g19
(I2
I0
tp4134
sbag1
(g15
g3
Ntp4135
Rp4136
(dp4137
g19
(I1
I0
tp4138
sbasg61
I6
sg62
S'HHPHH'
p4139
sg64
g4110
sg66
(I6
S'HHHPP'
p4140
g4139
tp4141
sg67
g4140
sbag1
(g2
g3
Ntp4142
Rp4143
(dp4144
g7
I2
sg8
S'HPHPHH'
p4145
sg10
I01
sg11
I18
sg12
I00
sg13
(lp4146
g1
(g15
g3
Ntp4147
Rp4148
(dp4149
g19
g20
sbag1
(g15
g3
Ntp4150
Rp4151
(dp4152
g19
(I0
I1
tp4153
sbag1
(g15
g3
Ntp4154
Rp4155
(dp4156
g19
(I1
I1
tp4157
sbag1
(g15
g3
Ntp4158
Rp4159
(dp4160
g19
(I2
I1
tp4161
sbag1
(g15
g3
Ntp4162
Rp4163
(dp4164
g19
(I2
I0
tp4165
sbag1
(g15
g3
Ntp4166
Rp4167
(dp4168
g19
(I1
I0
tp4169
sbasg61
I6
sg62
S'HHHPH'
p4170
sg64
g4110
sg66
Nsg67
g63
sbag1
(g2
g3
Ntp4171
Rp4172
(dp4173
g7
I3
sg8
S'PHPPHHPPHP'
p4174
sg10
I01
sg11
I19
sg12
I01
sg13
(lp4175
g1
(g15
g3
Ntp4176
Rp4177
(dp4178
g19
g20
sbag1
(g15
g3
Ntp4179
Rp4180
(dp4181
g19
(I0
I1
tp4182
sbag1
(g15
g3
Ntp4183
Rp4184
(dp4185
g19
(I1
I1
tp4186
sbag1
(g15
g3
Ntp4187
Rp4188
(dp4189
g19
(I1
I2
tp4190
sbag1
(g15
g3
Ntp4191
Rp4192
(dp4193
g19
(I0
I2
tp4194
sbag1
(g15
g3
Ntp4195
Rp4196
(dp4197
g19
(I-1
I2
tp4198
sbag1
(g15
g3
Ntp4199
Rp4200
(dp4201
g19
(I-2
I2
tp4202
sbag1
(g15
g3
Ntp4203
Rp4204
(dp4205
g19
(I-2
I1
tp4206
sbag1
(g15
g3
Ntp4207
Rp4208
(dp4209
g19
(I-1
I1
tp4210
sbag1
(g15
g3
Ntp4211
Rp4212
(dp4213
g19
(I-1
I0
tp4214
sbasg61
I10
sg62
S'HHPP'
p4215
sg64
S'URULLLDRD'
p4216
sg66
(I10
S'HHPP'
p4217
g4215
tp4218
sg67
g4217
sbag1
(g2
g3
Ntp4219
Rp4220
(dp4221
g7
I4
sg8
S'HHPPHPHPPHP'
p4222
sg10
I00
sg11
I19
sg12
I01
sg13
(lp4223
g1
(g15
g3
Ntp4224
Rp4225
(dp4226
g19
g20
sbag1
(g15
g3
Ntp4227
Rp4228
(dp4229
g19
(I0
I1
tp4230
sbag1
(g15
g3
Ntp4231
Rp4232
(dp4233
g19
(I1
I1
tp4234
sbag1
(g15
g3
Ntp4235
Rp4236
(dp4237
g19
(I1
I2
tp4238
sbag1
(g15
g3
Ntp4239
Rp4240
(dp4241
g19
(I0
I2
tp4242
sbag1
(g15
g3
Ntp4243
Rp4244
(dp4245
g19
(I-1
I2
tp4246
sbag1
(g15
g3
Ntp4247
Rp4248
(dp4249
g19
(I-1
I1
tp4250
sbag1
(g15
g3
Ntp4251
Rp4252
(dp4253
g19
(I-2
I1
tp4254
sbag1
(g15
g3
Ntp4255
Rp4256
(dp4257
g19
(I-2
I0
tp4258
sbag1
(g15
g3
Ntp4259
Rp4260
(dp4261
g19
(I-1
I0
tp4262
sbag1
(g15
g3
Ntp4263
Rp4264
(dp4265
g19
(I-1
I-1
tp4266
sbasg61
I11
sg62
g63
sg64
S'URULLDLDRD'
p4267
sg66
Nsg67
S'HHPP'
p4268
sbag1
(g2
g3
Ntp4269
Rp4270
(dp4271
g7
I4
sg8
S'HHHPHPHPPHP'
p4272
sg10
I00
sg11
I19
sg12
I01
sg13
(lp4273
g1
(g15
g3
Ntp4274
Rp4275
(dp4276
g19
g20
sbag1
(g15
g3
Ntp4277
Rp4278
(dp4279
g19
(I0
I1
tp4280
sbag1
(g15
g3
Ntp4281
Rp4282
(dp4283
g19
(I1
I1
tp4284
sbag1
(g15
g3
Ntp4285
Rp4286
(dp4287
g19
(I1
I2
tp4288
sbag1
(g15
g3
Ntp4289
Rp4290
(dp4291
g19
(I0
I2
tp4292
sbag1
(g15
g3
Ntp4293
Rp4294
(dp4295
g19
(I-1
I2
tp4296
sbag1
(g15
g3
Ntp4297
Rp4298
(dp4299
g19
(I-1
I1
tp4300
sbag1
(g15
g3
Ntp4301
Rp4302
(dp4303
g19
(I-2
I1
tp4304
sbag1
(g15
g3
Ntp4305
Rp4306
(dp4307
g19
(I-2
I0
tp4308
sbag1
(g15
g3
Ntp4309
Rp4310
(dp4311
g19
(I-1
I0
tp4312
sbag1
(g15
g3
Ntp4313
Rp4314
(dp4315
g19
(I-1
I-1
tp4316
sbasg61
I11
sg62
g63
sg64
g4267
sg66
Nsg67
S'HHHPH'
p4317
sbag1
(g2
g3
Ntp4318
Rp4319
(dp4320
g7
I4
sg8
S'HHPPHPHPHHP'
p4321
sg10
I00
sg11
I19
sg12
I01
sg13
(lp4322
g1
(g15
g3
Ntp4323
Rp4324
(dp4325
g19
g20
sbag1
(g15
g3
Ntp4326
Rp4327
(dp4328
g19
(I0
I1
tp4329
sbag1
(g15
g3
Ntp4330
Rp4331
(dp4332
g19
(I1
I1
tp4333
sbag1
(g15
g3
Ntp4334
Rp4335
(dp4336
g19
(I1
I2
tp4337
sbag1
(g15
g3
Ntp4338
Rp4339
(dp4340
g19
(I0
I2
tp4341
sbag1
(g15
g3
Ntp4342
Rp4343
(dp4344
g19
(I-1
I2
tp4345
sbag1
(g15
g3
Ntp4346
Rp4347
(dp4348
g19
(I-1
I1
tp4349
sbag1
(g15
g3
Ntp4350
Rp4351
(dp4352
g19
(I-2
I1
tp4353
sbag1
(g15
g3
Ntp4354
Rp4355
(dp4356
g19
(I-2
I0
tp4357
sbag1
(g15
g3
Ntp4358
Rp4359
(dp4360
g19
(I-1
I0
tp4361
sbag1
(g15
g3
Ntp4362
Rp4363
(dp4364
g19
(I-1
I-1
tp4365
sbasg61
I11
sg62
g63
sg64
g4267
sg66
Nsg67
S'HHPP'
p4366
sbag1
(g2
g3
Ntp4367
Rp4368
(dp4369
g7
I4
sg8
S'HHHPHPHPHHP'
p4370
sg10
I00
sg11
I19
sg12
I01
sg13
(lp4371
g1
(g15
g3
Ntp4372
Rp4373
(dp4374
g19
g20
sbag1
(g15
g3
Ntp4375
Rp4376
(dp4377
g19
(I0
I1
tp4378
sbag1
(g15
g3
Ntp4379
Rp4380
(dp4381
g19
(I1
I1
tp4382
sbag1
(g15
g3
Ntp4383
Rp4384
(dp4385
g19
(I1
I2
tp4386
sbag1
(g15
g3
Ntp4387
Rp4388
(dp4389
g19
(I0
I2
tp4390
sbag1
(g15
g3
Ntp4391
Rp4392
(dp4393
g19
(I-1
I2
tp4394
sbag1
(g15
g3
Ntp4395
Rp4396
(dp4397
g19
(I-1
I1
tp4398
sbag1
(g15
g3
Ntp4399
Rp4400
(dp4401
g19
(I-2
I1
tp4402
sbag1
(g15
g3
Ntp4403
Rp4404
(dp4405
g19
(I-2
I0
tp4406
sbag1
(g15
g3
Ntp4407
Rp4408
(dp4409
g19
(I-1
I0
tp4410
sbag1
(g15
g3
Ntp4411
Rp4412
(dp4413
g19
(I-1
I-1
tp4414
sbasg61
I11
sg62
g63
sg64
g4267
sg66
Nsg67
S'HHHPH'
p4415
sbag1
(g2
g3
Ntp4416
Rp4417
(dp4418
g7
I3
sg8
S'PHPPHHPPH'
p4419
sg10
I01
sg11
I20
sg12
I01
sg13
(lp4420
g1
(g15
g3
Ntp4421
Rp4422
(dp4423
g19
g20
sbag1
(g15
g3
Ntp4424
Rp4425
(dp4426
g19
(I0
I1
tp4427
sbag1
(g15
g3
Ntp4428
Rp4429
(dp4430
g19
(I1
I1
tp4431
sbag1
(g15
g3
Ntp4432
Rp4433
(dp4434
g19
(I1
I2
tp4435
sbag1
(g15
g3
Ntp4436
Rp4437
(dp4438
g19
(I0
I2
tp4439
sbag1
(g15
g3
Ntp4440
Rp4441
(dp4442
g19
(I-1
I2
tp4443
sbag1
(g15
g3
Ntp4444
Rp4445
(dp4446
g19
(I-2
I2
tp4447
sbag1
(g15
g3
Ntp4448
Rp4449
(dp4450
g19
(I-2
I1
tp4451
sbag1
(g15
g3
Ntp4452
Rp4453
(dp4454
g19
(I-1
I1
tp4455
sbasg61
I9
sg62
S'HHPP'
p4456
sg64
S'URULLLDR'
p4457
sg66
(I9
S'HHPP'
p4458
g4456
tp4459
sg67
g4458
sbag1
(g2
g3
Ntp4460
Rp4461
(dp4462
g7
I3
sg8
S'HPPHHPPH'
p4463
sg10
I01
sg11
I21
sg12
I01
sg13
(lp4464
g1
(g15
g3
Ntp4465
Rp4466
(dp4467
g19
g20
sbag1
(g15
g3
Ntp4468
Rp4469
(dp4470
g19
(I0
I1
tp4471
sbag1
(g15
g3
Ntp4472
Rp4473
(dp4474
g19
(I1
I1
tp4475
sbag1
(g15
g3
Ntp4476
Rp4477
(dp4478
g19
(I1
I0
tp4479
sbag1
(g15
g3
Ntp4480
Rp4481
(dp4482
g19
(I1
I-1
tp4483
sbag1
(g15
g3
Ntp4484
Rp4485
(dp4486
g19
(I1
I-2
tp4487
sbag1
(g15
g3
Ntp4488
Rp4489
(dp4490
g19
(I0
I-2
tp4491
sbag1
(g15
g3
Ntp4492
Rp4493
(dp4494
g19
(I0
I-1
tp4495
sbasg61
I8
sg62
S'HHPP'
p4496
sg64
S'URDDDLU'
p4497
sg66
(I8
S'HHPP'
p4498
g4496
tp4499
sg67
g4498
sba.