(lp0
ccopy_reg
_reconstructor
p1
(cnativeChain
NativeChain
p2
c__builtin__
object
p3
Ntp4
Rp5
(dp6
S'nativeEnergy'
p7
I4
sS'hpstring'
p8
S'HPHPPPPHPPHH'
p9
sS'ifCat'
p10
I01
sS'generatedNumber'
p11
I0
sS'ifSub'
p12
I00
sS'coordinates'
p13
(lp14
g1
(ccoordinate
Coordinate
p15
g3
Ntp16
Rp17
(dp18
S'coordTuple'
p19
(I0
I0
tp20
sbag1
(g15
g3
Ntp21
Rp22
(dp23
g19
(I0
I1
tp24
sbag1
(g15
g3
Ntp25
Rp26
(dp27
g19
(I1
I1
tp28
sbag1
(g15
g3
Ntp29
Rp30
(dp31
g19
(I1
I2
tp32
sbag1
(g15
g3
Ntp33
Rp34
(dp35
g19
(I1
I3
tp36
sbag1
(g15
g3
Ntp37
Rp38
(dp39
g19
(I2
I3
tp40
sbag1
(g15
g3
Ntp41
Rp42
(dp43
g19
(I2
I2
tp44
sbag1
(g15
g3
Ntp45
Rp46
(dp47
g19
(I2
I1
tp48
sbag1
(g15
g3
Ntp49
Rp50
(dp51
g19
(I3
I1
tp52
sbag1
(g15
g3
Ntp53
Rp54
(dp55
g19
(I3
I0
tp56
sbag1
(g15
g3
Ntp57
Rp58
(dp59
g19
(I2
I0
tp60
sbag1
(g15
g3
Ntp61
Rp62
(dp63
g19
(I1
I0
tp64
sbasS'n'
p65
I12
sS'catalystPattern'
p66
S'HHHPH'
p67
sS'vec'
p68
S'URUURDDRDLL'
p69
sS'Type'
p70
NsS'substratePattern'
p71
S''
p72
sbag1
(g2
g3
Ntp73
Rp74
(dp75
g7
I4
sg8
S'PHHPPHPPHPH'
p76
sg10
I00
sg11
I0
sg12
I01
sg13
(lp77
g1
(g15
g3
Ntp78
Rp79
(dp80
g19
g20
sbag1
(g15
g3
Ntp81
Rp82
(dp83
g19
(I0
I1
tp84
sbag1
(g15
g3
Ntp85
Rp86
(dp87
g19
(I1
I1
tp88
sbag1
(g15
g3
Ntp89
Rp90
(dp91
g19
(I2
I1
tp92
sbag1
(g15
g3
Ntp93
Rp94
(dp95
g19
(I2
I2
tp96
sbag1
(g15
g3
Ntp97
Rp98
(dp99
g19
(I1
I2
tp100
sbag1
(g15
g3
Ntp101
Rp102
(dp103
g19
(I1
I3
tp104
sbag1
(g15
g3
Ntp105
Rp106
(dp107
g19
(I0
I3
tp108
sbag1
(g15
g3
Ntp109
Rp110
(dp111
g19
(I0
I2
tp112
sbag1
(g15
g3
Ntp113
Rp114
(dp115
g19
(I-1
I2
tp116
sbag1
(g15
g3
Ntp117
Rp118
(dp119
g19
(I-1
I1
tp120
sbasg65
I11
sg66
g72
sg68
S'URRULULDLD'
p121
sg70
Nsg71
S'HHPP'
p122
sbag1
(g2
g3
Ntp123
Rp124
(dp125
g7
I4
sg8
S'HHHPPHPPHPH'
p126
sg10
I00
sg11
I0
sg12
I01
sg13
(lp127
g1
(g15
g3
Ntp128
Rp129
(dp130
g19
g20
sbag1
(g15
g3
Ntp131
Rp132
(dp133
g19
(I0
I1
tp134
sbag1
(g15
g3
Ntp135
Rp136
(dp137
g19
(I1
I1
tp138
sbag1
(g15
g3
Ntp139
Rp140
(dp141
g19
(I2
I1
tp142
sbag1
(g15
g3
Ntp143
Rp144
(dp145
g19
(I2
I2
tp146
sbag1
(g15
g3
Ntp147
Rp148
(dp149
g19
(I1
I2
tp150
sbag1
(g15
g3
Ntp151
Rp152
(dp153
g19
(I1
I3
tp154
sbag1
(g15
g3
Ntp155
Rp156
(dp157
g19
(I0
I3
tp158
sbag1
(g15
g3
Ntp159
Rp160
(dp161
g19
(I0
I2
tp162
sbag1
(g15
g3
Ntp163
Rp164
(dp165
g19
(I-1
I2
tp166
sbag1
(g15
g3
Ntp167
Rp168
(dp169
g19
(I-1
I1
tp170
sbasg65
I11
sg66
g72
sg68
g121
sg70
Nsg71
S'HHHPP'
p171
sbag1
(g2
g3
Ntp172
Rp173
(dp174
g7
I4
sg8
S'PHHPPHHPHPH'
p175
sg10
I00
sg11
I0
sg12
I01
sg13
(lp176
g1
(g15
g3
Ntp177
Rp178
(dp179
g19
g20
sbag1
(g15
g3
Ntp180
Rp181
(dp182
g19
(I0
I1
tp183
sbag1
(g15
g3
Ntp184
Rp185
(dp186
g19
(I1
I1
tp187
sbag1
(g15
g3
Ntp188
Rp189
(dp190
g19
(I2
I1
tp191
sbag1
(g15
g3
Ntp192
Rp193
(dp194
g19
(I2
I2
tp195
sbag1
(g15
g3
Ntp196
Rp197
(dp198
g19
(I1
I2
tp199
sbag1
(g15
g3
Ntp200
Rp201
(dp202
g19
(I1
I3
tp203
sbag1
(g15
g3
Ntp204
Rp205
(dp206
g19
(I0
I3
tp207
sbag1
(g15
g3
Ntp208
Rp209
(dp210
g19
(I0
I2
tp211
sbag1
(g15
g3
Ntp212
Rp213
(dp214
g19
(I-1
I2
tp215
sbag1
(g15
g3
Ntp216
Rp217
(dp218
g19
(I-1
I1
tp219
sbasg65
I11
sg66
g72
sg68
g121
sg70
Nsg71
S'HHPH'
p220
sbag1
(g2
g3
Ntp221
Rp222
(dp223
g7
I4
sg8
S'HHHPPHHPHPH'
p224
sg10
I00
sg11
I0
sg12
I01
sg13
(lp225
g1
(g15
g3
Ntp226
Rp227
(dp228
g19
g20
sbag1
(g15
g3
Ntp229
Rp230
(dp231
g19
(I0
I1
tp232
sbag1
(g15
g3
Ntp233
Rp234
(dp235
g19
(I1
I1
tp236
sbag1
(g15
g3
Ntp237
Rp238
(dp239
g19
(I2
I1
tp240
sbag1
(g15
g3
Ntp241
Rp242
(dp243
g19
(I2
I2
tp244
sbag1
(g15
g3
Ntp245
Rp246
(dp247
g19
(I1
I2
tp248
sbag1
(g15
g3
Ntp249
Rp250
(dp251
g19
(I1
I3
tp252
sbag1
(g15
g3
Ntp253
Rp254
(dp255
g19
(I0
I3
tp256
sbag1
(g15
g3
Ntp257
Rp258
(dp259
g19
(I0
I2
tp260
sbag1
(g15
g3
Ntp261
Rp262
(dp263
g19
(I-1
I2
tp264
sbag1
(g15
g3
Ntp265
Rp266
(dp267
g19
(I-1
I1
tp268
sbasg65
I11
sg66
g72
sg68
g121
sg70
Nsg71
S'HHHPP'
p269
sbag1
(g2
g3
Ntp270
Rp271
(dp272
g7
I4
sg8
S'HPHPPHHPPHP'
p273
sg10
I00
sg11
I0
sg12
I01
sg13
(lp274
g1
(g15
g3
Ntp275
Rp276
(dp277
g19
g20
sbag1
(g15
g3
Ntp278
Rp279
(dp280
g19
(I0
I1
tp281
sbag1
(g15
g3
Ntp282
Rp283
(dp284
g19
(I1
I1
tp285
sbag1
(g15
g3
Ntp286
Rp287
(dp288
g19
(I2
I1
tp289
sbag1
(g15
g3
Ntp290
Rp291
(dp292
g19
(I2
I0
tp293
sbag1
(g15
g3
Ntp294
Rp295
(dp296
g19
(I1
I0
tp297
sbag1
(g15
g3
Ntp298
Rp299
(dp300
g19
(I1
I-1
tp301
sbag1
(g15
g3
Ntp302
Rp303
(dp304
g19
(I1
I-2
tp305
sbag1
(g15
g3
Ntp306
Rp307
(dp308
g19
(I0
I-2
tp309
sbag1
(g15
g3
Ntp310
Rp311
(dp312
g19
(I0
I-1
tp313
sbag1
(g15
g3
Ntp314
Rp315
(dp316
g19
(I-1
I-1
tp317
sbasg65
I11
sg66
g72
sg68
S'URRDLDDLUL'
p318
sg70
Nsg71
S'HHPP'
p319
sbag1
(g2
g3
Ntp320
Rp321
(dp322
g7
I4
sg8
S'HPHPPHHPPHH'
p323
sg10
I00
sg11
I0
sg12
I01
sg13
(lp324
g1
(g15
g3
Ntp325
Rp326
(dp327
g19
g20
sbag1
(g15
g3
Ntp328
Rp329
(dp330
g19
(I0
I1
tp331
sbag1
(g15
g3
Ntp332
Rp333
(dp334
g19
(I1
I1
tp335
sbag1
(g15
g3
Ntp336
Rp337
(dp338
g19
(I2
I1
tp339
sbag1
(g15
g3
Ntp340
Rp341
(dp342
g19
(I2
I0
tp343
sbag1
(g15
g3
Ntp344
Rp345
(dp346
g19
(I1
I0
tp347
sbag1
(g15
g3
Ntp348
Rp349
(dp350
g19
(I1
I-1
tp351
sbag1
(g15
g3
Ntp352
Rp353
(dp354
g19
(I1
I-2
tp355
sbag1
(g15
g3
Ntp356
Rp357
(dp358
g19
(I0
I-2
tp359
sbag1
(g15
g3
Ntp360
Rp361
(dp362
g19
(I0
I-1
tp363
sbag1
(g15
g3
Ntp364
Rp365
(dp366
g19
(I-1
I-1
tp367
sbasg65
I11
sg66
g72
sg68
g318
sg70
Nsg71
S'HHPP'
p368
sbag1
(g2
g3
Ntp369
Rp370
(dp371
g7
I4
sg8
S'HPPHPPHPPH'
p372
sg10
I01
sg11
I0
sg12
I00
sg13
(lp373
g1
(g15
g3
Ntp374
Rp375
(dp376
g19
g20
sbag1
(g15
g3
Ntp377
Rp378
(dp379
g19
(I0
I1
tp380
sbag1
(g15
g3
Ntp381
Rp382
(dp383
g19
(I1
I1
tp384
sbag1
(g15
g3
Ntp385
Rp386
(dp387
g19
(I1
I0
tp388
sbag1
(g15
g3
Ntp389
Rp390
(dp391
g19
(I2
I0
tp392
sbag1
(g15
g3
Ntp393
Rp394
(dp395
g19
(I2
I-1
tp396
sbag1
(g15
g3
Ntp397
Rp398
(dp399
g19
(I1
I-1
tp400
sbag1
(g15
g3
Ntp401
Rp402
(dp403
g19
(I1
I-2
tp404
sbag1
(g15
g3
Ntp405
Rp406
(dp407
g19
(I0
I-2
tp408
sbag1
(g15
g3
Ntp409
Rp410
(dp411
g19
(I0
I-1
tp412
sbasg65
I10
sg66
S'HHPP'
p413
sg68
S'URDRDLDLU'
p414
sg70
Nsg71
g72
sbag1
(g2
g3
Ntp415
Rp416
(dp417
g7
I4
sg8
S'HHPHPPHPPH'
p418
sg10
I01
sg11
I1
sg12
I01
sg13
(lp419
g1
(g15
g3
Ntp420
Rp421
(dp422
g19
g20
sbag1
(g15
g3
Ntp423
Rp424
(dp425
g19
(I0
I1
tp426
sbag1
(g15
g3
Ntp427
Rp428
(dp429
g19
(I1
I1
tp430
sbag1
(g15
g3
Ntp431
Rp432
(dp433
g19
(I1
I0
tp434
sbag1
(g15
g3
Ntp435
Rp436
(dp437
g19
(I2
I0
tp438
sbag1
(g15
g3
Ntp439
Rp440
(dp441
g19
(I2
I-1
tp442
sbag1
(g15
g3
Ntp443
Rp444
(dp445
g19
(I1
I-1
tp446
sbag1
(g15
g3
Ntp447
Rp448
(dp449
g19
(I1
I-2
tp450
sbag1
(g15
g3
Ntp451
Rp452
(dp453
g19
(I0
I-2
tp454
sbag1
(g15
g3
Ntp455
Rp456
(dp457
g19
(I0
I-1
tp458
sbasg65
I10
sg66
S'HHHPP'
p459
sg68
g414
sg70
(I10
S'HHPH'
p460
g459
tp461
sg71
g460
sbag1
(g2
g3
Ntp462
Rp463
(dp464
g7
I4
sg8
S'HPPHPPHPHH'
p465
sg10
I01
sg11
I1
sg12
I00
sg13
(lp466
g1
(g15
g3
Ntp467
Rp468
(dp469
g19
g20
sbag1
(g15
g3
Ntp470
Rp471
(dp472
g19
(I0
I1
tp473
sbag1
(g15
g3
Ntp474
Rp475
(dp476
g19
(I1
I1
tp477
sbag1
(g15
g3
Ntp478
Rp479
(dp480
g19
(I1
I0
tp481
sbag1
(g15
g3
Ntp482
Rp483
(dp484
g19
(I2
I0
tp485
sbag1
(g15
g3
Ntp486
Rp487
(dp488
g19
(I2
I-1
tp489
sbag1
(g15
g3
Ntp490
Rp491
(dp492
g19
(I1
I-1
tp493
sbag1
(g15
g3
Ntp494
Rp495
(dp496
g19
(I1
I-2
tp497
sbag1
(g15
g3
Ntp498
Rp499
(dp500
g19
(I0
I-2
tp501
sbag1
(g15
g3
Ntp502
Rp503
(dp504
g19
(I0
I-1
tp505
sbasg65
I10
sg66
S'HHHPH'
p506
sg68
g414
sg70
Nsg71
g72
sbag1
(g2
g3
Ntp507
Rp508
(dp509
g7
I5
sg8
S'HPPHPHPPHPPH'
p510
sg10
I00
sg11
I1
sg12
I00
sg13
(lp511
g1
(g15
g3
Ntp512
Rp513
(dp514
g19
g20
sbag1
(g15
g3
Ntp515
Rp516
(dp517
g19
(I0
I1
tp518
sbag1
(g15
g3
Ntp519
Rp520
(dp521
g19
(I1
I1
tp522
sbag1
(g15
g3
Ntp523
Rp524
(dp525
g19
(I1
I0
tp526
sbag1
(g15
g3
Ntp527
Rp528
(dp529
g19
(I1
I-1
tp530
sbag1
(g15
g3
Ntp531
Rp532
(dp533
g19
(I0
I-1
tp534
sbag1
(g15
g3
Ntp535
Rp536
(dp537
g19
(I0
I-2
tp538
sbag1
(g15
g3
Ntp539
Rp540
(dp541
g19
(I-1
I-2
tp542
sbag1
(g15
g3
Ntp543
Rp544
(dp545
g19
(I-1
I-1
tp546
sbag1
(g15
g3
Ntp547
Rp548
(dp549
g19
(I-2
I-1
tp550
sbag1
(g15
g3
Ntp551
Rp552
(dp553
g19
(I-2
I0
tp554
sbag1
(g15
g3
Ntp555
Rp556
(dp557
g19
(I-1
I0
tp558
sbasg65
I12
sg66
g72
sg68
S'URDDLDLULUR'
p559
sg70
Nsg71
g72
sbag1
(g2
g3
Ntp560
Rp561
(dp562
g7
I5
sg8
S'HHPHPHPPHPPH'
p563
sg10
I00
sg11
I1
sg12
I01
sg13
(lp564
g1
(g15
g3
Ntp565
Rp566
(dp567
g19
g20
sbag1
(g15
g3
Ntp568
Rp569
(dp570
g19
(I0
I1
tp571
sbag1
(g15
g3
Ntp572
Rp573
(dp574
g19
(I1
I1
tp575
sbag1
(g15
g3
Ntp576
Rp577
(dp578
g19
(I1
I0
tp579
sbag1
(g15
g3
Ntp580
Rp581
(dp582
g19
(I1
I-1
tp583
sbag1
(g15
g3
Ntp584
Rp585
(dp586
g19
(I0
I-1
tp587
sbag1
(g15
g3
Ntp588
Rp589
(dp590
g19
(I0
I-2
tp591
sbag1
(g15
g3
Ntp592
Rp593
(dp594
g19
(I-1
I-2
tp595
sbag1
(g15
g3
Ntp596
Rp597
(dp598
g19
(I-1
I-1
tp599
sbag1
(g15
g3
Ntp600
Rp601
(dp602
g19
(I-2
I-1
tp603
sbag1
(g15
g3
Ntp604
Rp605
(dp606
g19
(I-2
I0
tp607
sbag1
(g15
g3
Ntp608
Rp609
(dp610
g19
(I-1
I0
tp611
sbasg65
I12
sg66
g72
sg68
g559
sg70
Nsg71
S'HHPH'
p612
sbag1
(g2
g3
Ntp613
Rp614
(dp615
g7
I5
sg8
S'HPPHPHPHHPPH'
p616
sg10
I00
sg11
I1
sg12
I01
sg13
(lp617
g1
(g15
g3
Ntp618
Rp619
(dp620
g19
g20
sbag1
(g15
g3
Ntp621
Rp622
(dp623
g19
(I0
I1
tp624
sbag1
(g15
g3
Ntp625
Rp626
(dp627
g19
(I1
I1
tp628
sbag1
(g15
g3
Ntp629
Rp630
(dp631
g19
(I1
I0
tp632
sbag1
(g15
g3
Ntp633
Rp634
(dp635
g19
(I1
I-1
tp636
sbag1
(g15
g3
Ntp637
Rp638
(dp639
g19
(I0
I-1
tp640
sbag1
(g15
g3
Ntp641
Rp642
(dp643
g19
(I0
I-2
tp644
sbag1
(g15
g3
Ntp645
Rp646
(dp647
g19
(I-1
I-2
tp648
sbag1
(g15
g3
Ntp649
Rp650
(dp651
g19
(I-1
I-1
tp652
sbag1
(g15
g3
Ntp653
Rp654
(dp655
g19
(I-2
I-1
tp656
sbag1
(g15
g3
Ntp657
Rp658
(dp659
g19
(I-2
I0
tp660
sbag1
(g15
g3
Ntp661
Rp662
(dp663
g19
(I-1
I0
tp664
sbasg65
I12
sg66
g72
sg68
g559
sg70
Nsg71
S'HHPP'
p665
sbag1
(g2
g3
Ntp666
Rp667
(dp668
g7
I5
sg8
S'HPHPHPHPPHPH'
p669
sg10
I00
sg11
I1
sg12
I00
sg13
(lp670
g1
(g15
g3
Ntp671
Rp672
(dp673
g19
g20
sbag1
(g15
g3
Ntp674
Rp675
(dp676
g19
(I0
I1
tp677
sbag1
(g15
g3
Ntp678
Rp679
(dp680
g19
(I1
I1
tp681
sbag1
(g15
g3
Ntp682
Rp683
(dp684
g19
(I2
I1
tp685
sbag1
(g15
g3
Ntp686
Rp687
(dp688
g19
(I2
I0
tp689
sbag1
(g15
g3
Ntp690
Rp691
(dp692
g19
(I3
I0
tp693
sbag1
(g15
g3
Ntp694
Rp695
(dp696
g19
(I3
I-1
tp697
sbag1
(g15
g3
Ntp698
Rp699
(dp700
g19
(I3
I-2
tp701
sbag1
(g15
g3
Ntp702
Rp703
(dp704
g19
(I2
I-2
tp705
sbag1
(g15
g3
Ntp706
Rp707
(dp708
g19
(I2
I-1
tp709
sbag1
(g15
g3
Ntp710
Rp711
(dp712
g19
(I1
I-1
tp713
sbag1
(g15
g3
Ntp714
Rp715
(dp716
g19
(I1
I0
tp717
sbasg65
I12
sg66
g72
sg68
S'URRDRDDLULU'
p718
sg70
Nsg71
g72
sbag1
(g2
g3
Ntp719
Rp720
(dp721
g7
I5
sg8
S'HPHPHPHPHHPH'
p722
sg10
I00
sg11
I1
sg12
I01
sg13
(lp723
g1
(g15
g3
Ntp724
Rp725
(dp726
g19
g20
sbag1
(g15
g3
Ntp727
Rp728
(dp729
g19
(I0
I1
tp730
sbag1
(g15
g3
Ntp731
Rp732
(dp733
g19
(I1
I1
tp734
sbag1
(g15
g3
Ntp735
Rp736
(dp737
g19
(I2
I1
tp738
sbag1
(g15
g3
Ntp739
Rp740
(dp741
g19
(I2
I0
tp742
sbag1
(g15
g3
Ntp743
Rp744
(dp745
g19
(I3
I0
tp746
sbag1
(g15
g3
Ntp747
Rp748
(dp749
g19
(I3
I-1
tp750
sbag1
(g15
g3
Ntp751
Rp752
(dp753
g19
(I3
I-2
tp754
sbag1
(g15
g3
Ntp755
Rp756
(dp757
g19
(I2
I-2
tp758
sbag1
(g15
g3
Ntp759
Rp760
(dp761
g19
(I2
I-1
tp762
sbag1
(g15
g3
Ntp763
Rp764
(dp765
g19
(I1
I-1
tp766
sbag1
(g15
g3
Ntp767
Rp768
(dp769
g19
(I1
I0
tp770
sbasg65
I12
sg66
g72
sg68
g718
sg70
Nsg71
S'HHPH'
p771
sbag1
(g2
g3
Ntp772
Rp773
(dp774
g7
I5
sg8
S'HPHPHPHPPHHH'
p775
sg10
I00
sg11
I1
sg12
I00
sg13
(lp776
g1
(g15
g3
Ntp777
Rp778
(dp779
g19
g20
sbag1
(g15
g3
Ntp780
Rp781
(dp782
g19
(I0
I1
tp783
sbag1
(g15
g3
Ntp784
Rp785
(dp786
g19
(I1
I1
tp787
sbag1
(g15
g3
Ntp788
Rp789
(dp790
g19
(I2
I1
tp791
sbag1
(g15
g3
Ntp792
Rp793
(dp794
g19
(I2
I0
tp795
sbag1
(g15
g3
Ntp796
Rp797
(dp798
g19
(I3
I0
tp799
sbag1
(g15
g3
Ntp800
Rp801
(dp802
g19
(I3
I-1
tp803
sbag1
(g15
g3
Ntp804
Rp805
(dp806
g19
(I3
I-2
tp807
sbag1
(g15
g3
Ntp808
Rp809
(dp810
g19
(I2
I-2
tp811
sbag1
(g15
g3
Ntp812
Rp813
(dp814
g19
(I2
I-1
tp815
sbag1
(g15
g3
Ntp816
Rp817
(dp818
g19
(I1
I-1
tp819
sbag1
(g15
g3
Ntp820
Rp821
(dp822
g19
(I1
I0
tp823
sbasg65
I12
sg66
g72
sg68
g718
sg70
Nsg71
g72
sbag1
(g2
g3
Ntp824
Rp825
(dp826
g7
I5
sg8
S'HPHPHPHPHHHH'
p827
sg10
I00
sg11
I1
sg12
I00
sg13
(lp828
g1
(g15
g3
Ntp829
Rp830
(dp831
g19
g20
sbag1
(g15
g3
Ntp832
Rp833
(dp834
g19
(I0
I1
tp835
sbag1
(g15
g3
Ntp836
Rp837
(dp838
g19
(I1
I1
tp839
sbag1
(g15
g3
Ntp840
Rp841
(dp842
g19
(I2
I1
tp843
sbag1
(g15
g3
Ntp844
Rp845
(dp846
g19
(I2
I0
tp847
sbag1
(g15
g3
Ntp848
Rp849
(dp850
g19
(I3
I0
tp851
sbag1
(g15
g3
Ntp852
Rp853
(dp854
g19
(I3
I-1
tp855
sbag1
(g15
g3
Ntp856
Rp857
(dp858
g19
(I3
I-2
tp859
sbag1
(g15
g3
Ntp860
Rp861
(dp862
g19
(I2
I-2
tp863
sbag1
(g15
g3
Ntp864
Rp865
(dp866
g19
(I2
I-1
tp867
sbag1
(g15
g3
Ntp868
Rp869
(dp870
g19
(I1
I-1
tp871
sbag1
(g15
g3
Ntp872
Rp873
(dp874
g19
(I1
I0
tp875
sbasg65
I12
sg66
g72
sg68
g718
sg70
Nsg71
g72
sbag1
(g2
g3
Ntp876
Rp877
(dp878
g7
I3
sg8
S'HPPHPPHH'
p879
sg10
I01
sg11
I1
sg12
I00
sg13
(lp880
g1
(g15
g3
Ntp881
Rp882
(dp883
g19
g20
sbag1
(g15
g3
Ntp884
Rp885
(dp886
g19
(I0
I1
tp887
sbag1
(g15
g3
Ntp888
Rp889
(dp890
g19
(I1
I1
tp891
sbag1
(g15
g3
Ntp892
Rp893
(dp894
g19
(I1
I0
tp895
sbag1
(g15
g3
Ntp896
Rp897
(dp898
g19
(I2
I0
tp899
sbag1
(g15
g3
Ntp900
Rp901
(dp902
g19
(I2
I-1
tp903
sbag1
(g15
g3
Ntp904
Rp905
(dp906
g19
(I1
I-1
tp907
sbag1
(g15
g3
Ntp908
Rp909
(dp910
g19
(I0
I-1
tp911
sbasg65
I8
sg66
S'HHPHH'
p912
sg68
S'URDRDLL'
p913
sg70
Nsg71
g72
sbag1
(g2
g3
Ntp914
Rp915
(dp916
g7
I3
sg8
S'PHPPHPPPPPHH'
p917
sg10
I00
sg11
I1
sg12
I00
sg13
(lp918
g1
(g15
g3
Ntp919
Rp920
(dp921
g19
g20
sbag1
(g15
g3
Ntp922
Rp923
(dp924
g19
(I0
I1
tp925
sbag1
(g15
g3
Ntp926
Rp927
(dp928
g19
(I1
I1
tp929
sbag1
(g15
g3
Ntp930
Rp931
(dp932
g19
(I1
I2
tp933
sbag1
(g15
g3
Ntp934
Rp935
(dp936
g19
(I0
I2
tp937
sbag1
(g15
g3
Ntp938
Rp939
(dp940
g19
(I0
I3
tp941
sbag1
(g15
g3
Ntp942
Rp943
(dp944
g19
(I-1
I3
tp945
sbag1
(g15
g3
Ntp946
Rp947
(dp948
g19
(I-2
I3
tp949
sbag1
(g15
g3
Ntp950
Rp951
(dp952
g19
(I-2
I2
tp953
sbag1
(g15
g3
Ntp954
Rp955
(dp956
g19
(I-2
I1
tp957
sbag1
(g15
g3
Ntp958
Rp959
(dp960
g19
(I-1
I1
tp961
sbag1
(g15
g3
Ntp962
Rp963
(dp964
g19
(I-1
I2
tp965
sbasg65
I12
sg66
g72
sg68
S'URULULLDDRU'
p966
sg70
Nsg71
g72
sbag1
(g2
g3
Ntp967
Rp968
(dp969
g7
I4
sg8
S'PHPPHPHPPPHH'
p970
sg10
I00
sg11
I1
sg12
I00
sg13
(lp971
g1
(g15
g3
Ntp972
Rp973
(dp974
g19
g20
sbag1
(g15
g3
Ntp975
Rp976
(dp977
g19
(I0
I1
tp978
sbag1
(g15
g3
Ntp979
Rp980
(dp981
g19
(I1
I1
tp982
sbag1
(g15
g3
Ntp983
Rp984
(dp985
g19
(I1
I2
tp986
sbag1
(g15
g3
Ntp987
Rp988
(dp989
g19
(I0
I2
tp990
sbag1
(g15
g3
Ntp991
Rp992
(dp993
g19
(I0
I3
tp994
sbag1
(g15
g3
Ntp995
Rp996
(dp997
g19
(I-1
I3
tp998
sbag1
(g15
g3
Ntp999
Rp1000
(dp1001
g19
(I-2
I3
tp1002
sbag1
(g15
g3
Ntp1003
Rp1004
(dp1005
g19
(I-2
I2
tp1006
sbag1
(g15
g3
Ntp1007
Rp1008
(dp1009
g19
(I-2
I1
tp1010
sbag1
(g15
g3
Ntp1011
Rp1012
(dp1013
g19
(I-1
I1
tp1014
sbag1
(g15
g3
Ntp1015
Rp1016
(dp1017
g19
(I-1
I2
tp1018
sbasg65
I12
sg66
g72
sg68
g966
sg70
Nsg71
g72
sbag1
(g2
g3
Ntp1019
Rp1020
(dp1021
g7
I4
sg8
S'PHPPHPPPHPHH'
p1022
sg10
I00
sg11
I1
sg12
I00
sg13
(lp1023
g1
(g15
g3
Ntp1024
Rp1025
(dp1026
g19
g20
sbag1
(g15
g3
Ntp1027
Rp1028
(dp1029
g19
(I0
I1
tp1030
sbag1
(g15
g3
Ntp1031
Rp1032
(dp1033
g19
(I1
I1
tp1034
sbag1
(g15
g3
Ntp1035
Rp1036
(dp1037
g19
(I1
I2
tp1038
sbag1
(g15
g3
Ntp1039
Rp1040
(dp1041
g19
(I0
I2
tp1042
sbag1
(g15
g3
Ntp1043
Rp1044
(dp1045
g19
(I0
I3
tp1046
sbag1
(g15
g3
Ntp1047
Rp1048
(dp1049
g19
(I-1
I3
tp1050
sbag1
(g15
g3
Ntp1051
Rp1052
(dp1053
g19
(I-2
I3
tp1054
sbag1
(g15
g3
Ntp1055
Rp1056
(dp1057
g19
(I-2
I2
tp1058
sbag1
(g15
g3
Ntp1059
Rp1060
(dp1061
g19
(I-2
I1
tp1062
sbag1
(g15
g3
Ntp1063
Rp1064
(dp1065
g19
(I-1
I1
tp1066
sbag1
(g15
g3
Ntp1067
Rp1068
(dp1069
g19
(I-1
I2
tp1070
sbasg65
I12
sg66
g72
sg68
g966
sg70
Nsg71
g72
sbag1
(g2
g3
Ntp1071
Rp1072
(dp1073
g7
I5
sg8
S'PHPPHPHPHPHH'
p1074
sg10
I00
sg11
I1
sg12
I00
sg13
(lp1075
g1
(g15
g3
Ntp1076
Rp1077
(dp1078
g19
g20
sbag1
(g15
g3
Ntp1079
Rp1080
(dp1081
g19
(I0
I1
tp1082
sbag1
(g15
g3
Ntp1083
Rp1084
(dp1085
g19
(I1
I1
tp1086
sbag1
(g15
g3
Ntp1087
Rp1088
(dp1089
g19
(I1
I2
tp1090
sbag1
(g15
g3
Ntp1091
Rp1092
(dp1093
g19
(I0
I2
tp1094
sbag1
(g15
g3
Ntp1095
Rp1096
(dp1097
g19
(I0
I3
tp1098
sbag1
(g15
g3
Ntp1099
Rp1100
(dp1101
g19
(I-1
I3
tp1102
sbag1
(g15
g3
Ntp1103
Rp1104
(dp1105
g19
(I-2
I3
tp1106
sbag1
(g15
g3
Ntp1107
Rp1108
(dp1109
g19
(I-2
I2
tp1110
sbag1
(g15
g3
Ntp1111
Rp1112
(dp1113
g19
(I-2
I1
tp1114
sbag1
(g15
g3
Ntp1115
Rp1116
(dp1117
g19
(I-1
I1
tp1118
sbag1
(g15
g3
Ntp1119
Rp1120
(dp1121
g19
(I-1
I2
tp1122
sbasg65
I12
sg66
g72
sg68
g966
sg70
Nsg71
g72
sbag1
(g2
g3
Ntp1123
Rp1124
(dp1125
g7
I5
sg8
S'PHHPHPHPHPHH'
p1126
sg10
I00
sg11
I1
sg12
I01
sg13
(lp1127
g1
(g15
g3
Ntp1128
Rp1129
(dp1130
g19
g20
sbag1
(g15
g3
Ntp1131
Rp1132
(dp1133
g19
(I0
I1
tp1134
sbag1
(g15
g3
Ntp1135
Rp1136
(dp1137
g19
(I1
I1
tp1138
sbag1
(g15
g3
Ntp1139
Rp1140
(dp1141
g19
(I1
I2
tp1142
sbag1
(g15
g3
Ntp1143
Rp1144
(dp1145
g19
(I0
I2
tp1146
sbag1
(g15
g3
Ntp1147
Rp1148
(dp1149
g19
(I0
I3
tp1150
sbag1
(g15
g3
Ntp1151
Rp1152
(dp1153
g19
(I-1
I3
tp1154
sbag1
(g15
g3
Ntp1155
Rp1156
(dp1157
g19
(I-2
I3
tp1158
sbag1
(g15
g3
Ntp1159
Rp1160
(dp1161
g19
(I-2
I2
tp1162
sbag1
(g15
g3
Ntp1163
Rp1164
(dp1165
g19
(I-2
I1
tp1166
sbag1
(g15
g3
Ntp1167
Rp1168
(dp1169
g19
(I-1
I1
tp1170
sbag1
(g15
g3
Ntp1171
Rp1172
(dp1173
g19
(I-1
I2
tp1174
sbasg65
I12
sg66
g72
sg68
g966
sg70
Nsg71
S'HHPH'
p1175
sbag1
(g2
g3
Ntp1176
Rp1177
(dp1178
g7
I4
sg8
S'HHPPHPPHPH'
p1179
sg10
I01
sg11
I2
sg12
I01
sg13
(lp1180
g1
(g15
g3
Ntp1181
Rp1182
(dp1183
g19
g20
sbag1
(g15
g3
Ntp1184
Rp1185
(dp1186
g19
(I0
I1
tp1187
sbag1
(g15
g3
Ntp1188
Rp1189
(dp1190
g19
(I0
I2
tp1191
sbag1
(g15
g3
Ntp1192
Rp1193
(dp1194
g19
(I1
I2
tp1195
sbag1
(g15
g3
Ntp1196
Rp1197
(dp1198
g19
(I1
I1
tp1199
sbag1
(g15
g3
Ntp1200
Rp1201
(dp1202
g19
(I2
I1
tp1203
sbag1
(g15
g3
Ntp1204
Rp1205
(dp1206
g19
(I2
I0
tp1207
sbag1
(g15
g3
Ntp1208
Rp1209
(dp1210
g19
(I1
I0
tp1211
sbag1
(g15
g3
Ntp1212
Rp1213
(dp1214
g19
(I1
I-1
tp1215
sbag1
(g15
g3
Ntp1216
Rp1217
(dp1218
g19
(I0
I-1
tp1219
sbasg65
I10
sg66
S'HHHPH'
p1220
sg68
S'UURDRDLDL'
p1221
sg70
(I10
S'HHPP'
p1222
g1220
tp1223
sg71
g1222
sbag1
(g2
g3
Ntp1224
Rp1225
(dp1226
g7
I5
sg8
S'HPPHHPPHPHPH'
p1227
sg10
I00
sg11
I2
sg12
I01
sg13
(lp1228
g1
(g15
g3
Ntp1229
Rp1230
(dp1231
g19
g20
sbag1
(g15
g3
Ntp1232
Rp1233
(dp1234
g19
(I0
I1
tp1235
sbag1
(g15
g3
Ntp1236
Rp1237
(dp1238
g19
(I1
I1
tp1239
sbag1
(g15
g3
Ntp1240
Rp1241
(dp1242
g19
(I1
I0
tp1243
sbag1
(g15
g3
Ntp1244
Rp1245
(dp1246
g19
(I1
I-1
tp1247
sbag1
(g15
g3
Ntp1248
Rp1249
(dp1250
g19
(I2
I-1
tp1251
sbag1
(g15
g3
Ntp1252
Rp1253
(dp1254
g19
(I2
I-2
tp1255
sbag1
(g15
g3
Ntp1256
Rp1257
(dp1258
g19
(I1
I-2
tp1259
sbag1
(g15
g3
Ntp1260
Rp1261
(dp1262
g19
(I0
I-2
tp1263
sbag1
(g15
g3
Ntp1264
Rp1265
(dp1266
g19
(I0
I-1
tp1267
sbag1
(g15
g3
Ntp1268
Rp1269
(dp1270
g19
(I-1
I-1
tp1271
sbag1
(g15
g3
Ntp1272
Rp1273
(dp1274
g19
(I-1
I0
tp1275
sbasg65
I12
sg66
g72
sg68
S'URDDRDLLULU'
p1276
sg70
Nsg71
S'HHPP'
p1277
sbag1
(g2
g3
Ntp1278
Rp1279
(dp1280
g7
I5
sg8
S'HPPHHHPHPHPH'
p1281
sg10
I00
sg11
I2
sg12
I01
sg13
(lp1282
g1
(g15
g3
Ntp1283
Rp1284
(dp1285
g19
g20
sbag1
(g15
g3
Ntp1286
Rp1287
(dp1288
g19
(I0
I1
tp1289
sbag1
(g15
g3
Ntp1290
Rp1291
(dp1292
g19
(I1
I1
tp1293
sbag1
(g15
g3
Ntp1294
Rp1295
(dp1296
g19
(I1
I0
tp1297
sbag1
(g15
g3
Ntp1298
Rp1299
(dp1300
g19
(I1
I-1
tp1301
sbag1
(g15
g3
Ntp1302
Rp1303
(dp1304
g19
(I2
I-1
tp1305
sbag1
(g15
g3
Ntp1306
Rp1307
(dp1308
g19
(I2
I-2
tp1309
sbag1
(g15
g3
Ntp1310
Rp1311
(dp1312
g19
(I1
I-2
tp1313
sbag1
(g15
g3
Ntp1314
Rp1315
(dp1316
g19
(I0
I-2
tp1317
sbag1
(g15
g3
Ntp1318
Rp1319
(dp1320
g19
(I0
I-1
tp1321
sbag1
(g15
g3
Ntp1322
Rp1323
(dp1324
g19
(I-1
I-1
tp1325
sbag1
(g15
g3
Ntp1326
Rp1327
(dp1328
g19
(I-1
I0
tp1329
sbasg65
I12
sg66
g72
sg68
g1276
sg70
Nsg71
S'HHHPH'
p1330
sbag1
(g2
g3
Ntp1331
Rp1332
(dp1333
g7
I5
sg8
S'HPPHPPHPHPPH'
p1334
sg10
I00
sg11
I2
sg12
I00
sg13
(lp1335
g1
(g15
g3
Ntp1336
Rp1337
(dp1338
g19
g20
sbag1
(g15
g3
Ntp1339
Rp1340
(dp1341
g19
(I0
I1
tp1342
sbag1
(g15
g3
Ntp1343
Rp1344
(dp1345
g19
(I1
I1
tp1346
sbag1
(g15
g3
Ntp1347
Rp1348
(dp1349
g19
(I1
I0
tp1350
sbag1
(g15
g3
Ntp1351
Rp1352
(dp1353
g19
(I2
I0
tp1354
sbag1
(g15
g3
Ntp1355
Rp1356
(dp1357
g19
(I2
I-1
tp1358
sbag1
(g15
g3
Ntp1359
Rp1360
(dp1361
g19
(I1
I-1
tp1362
sbag1
(g15
g3
Ntp1363
Rp1364
(dp1365
g19
(I1
I-2
tp1366
sbag1
(g15
g3
Ntp1367
Rp1368
(dp1369
g19
(I0
I-2
tp1370
sbag1
(g15
g3
Ntp1371
Rp1372
(dp1373
g19
(I-1
I-2
tp1374
sbag1
(g15
g3
Ntp1375
Rp1376
(dp1377
g19
(I-1
I-1
tp1378
sbag1
(g15
g3
Ntp1379
Rp1380
(dp1381
g19
(I0
I-1
tp1382
sbasg65
I12
sg66
g72
sg68
S'URDRDLDLLUR'
p1383
sg70
Nsg71
g72
sbag1
(g2
g3
Ntp1384
Rp1385
(dp1386
g7
I5
sg8
S'HPPHHPHPHPPH'
p1387
sg10
I00
sg11
I2
sg12
I01
sg13
(lp1388
g1
(g15
g3
Ntp1389
Rp1390
(dp1391
g19
g20
sbag1
(g15
g3
Ntp1392
Rp1393
(dp1394
g19
(I0
I1
tp1395
sbag1
(g15
g3
Ntp1396
Rp1397
(dp1398
g19
(I1
I1
tp1399
sbag1
(g15
g3
Ntp1400
Rp1401
(dp1402
g19
(I1
I0
tp1403
sbag1
(g15
g3
Ntp1404
Rp1405
(dp1406
g19
(I2
I0
tp1407
sbag1
(g15
g3
Ntp1408
Rp1409
(dp1410
g19
(I2
I-1
tp1411
sbag1
(g15
g3
Ntp1412
Rp1413
(dp1414
g19
(I1
I-1
tp1415
sbag1
(g15
g3
Ntp1416
Rp1417
(dp1418
g19
(I1
I-2
tp1419
sbag1
(g15
g3
Ntp1420
Rp1421
(dp1422
g19
(I0
I-2
tp1423
sbag1
(g15
g3
Ntp1424
Rp1425
(dp1426
g19
(I-1
I-2
tp1427
sbag1
(g15
g3
Ntp1428
Rp1429
(dp1430
g19
(I-1
I-1
tp1431
sbag1
(g15
g3
Ntp1432
Rp1433
(dp1434
g19
(I0
I-1
tp1435
sbasg65
I12
sg66
g72
sg68
g1383
sg70
Nsg71
S'HHPH'
p1436
sbag1
(g2
g3
Ntp1437
Rp1438
(dp1439
g7
I5
sg8
S'HPPHPPHPHPHH'
p1440
sg10
I00
sg11
I2
sg12
I00
sg13
(lp1441
g1
(g15
g3
Ntp1442
Rp1443
(dp1444
g19
g20
sbag1
(g15
g3
Ntp1445
Rp1446
(dp1447
g19
(I0
I1
tp1448
sbag1
(g15
g3
Ntp1449
Rp1450
(dp1451
g19
(I1
I1
tp1452
sbag1
(g15
g3
Ntp1453
Rp1454
(dp1455
g19
(I1
I0
tp1456
sbag1
(g15
g3
Ntp1457
Rp1458
(dp1459
g19
(I2
I0
tp1460
sbag1
(g15
g3
Ntp1461
Rp1462
(dp1463
g19
(I2
I-1
tp1464
sbag1
(g15
g3
Ntp1465
Rp1466
(dp1467
g19
(I1
I-1
tp1468
sbag1
(g15
g3
Ntp1469
Rp1470
(dp1471
g19
(I1
I-2
tp1472
sbag1
(g15
g3
Ntp1473
Rp1474
(dp1475
g19
(I0
I-2
tp1476
sbag1
(g15
g3
Ntp1477
Rp1478
(dp1479
g19
(I-1
I-2
tp1480
sbag1
(g15
g3
Ntp1481
Rp1482
(dp1483
g19
(I-1
I-1
tp1484
sbag1
(g15
g3
Ntp1485
Rp1486
(dp1487
g19
(I0
I-1
tp1488
sbasg65
I12
sg66
g72
sg68
g1383
sg70
Nsg71
g72
sbag1
(g2
g3
Ntp1489
Rp1490
(dp1491
g7
I4
sg8
S'PHPPHPPHPPHP'
p1492
sg10
I00
sg11
I2
sg12
I00
sg13
(lp1493
g1
(g15
g3
Ntp1494
Rp1495
(dp1496
g19
g20
sbag1
(g15
g3
Ntp1497
Rp1498
(dp1499
g19
(I0
I1
tp1500
sbag1
(g15
g3
Ntp1501
Rp1502
(dp1503
g19
(I1
I1
tp1504
sbag1
(g15
g3
Ntp1505
Rp1506
(dp1507
g19
(I1
I2
tp1508
sbag1
(g15
g3
Ntp1509
Rp1510
(dp1511
g19
(I0
I2
tp1512
sbag1
(g15
g3
Ntp1513
Rp1514
(dp1515
g19
(I0
I3
tp1516
sbag1
(g15
g3
Ntp1517
Rp1518
(dp1519
g19
(I-1
I3
tp1520
sbag1
(g15
g3
Ntp1521
Rp1522
(dp1523
g19
(I-1
I2
tp1524
sbag1
(g15
g3
Ntp1525
Rp1526
(dp1527
g19
(I-2
I2
tp1528
sbag1
(g15
g3
Ntp1529
Rp1530
(dp1531
g19
(I-2
I1
tp1532
sbag1
(g15
g3
Ntp1533
Rp1534
(dp1535
g19
(I-1
I1
tp1536
sbag1
(g15
g3
Ntp1537
Rp1538
(dp1539
g19
(I-1
I0
tp1540
sbasg65
I12
sg66
g72
sg68
S'URULULDLDRD'
p1541
sg70
Nsg71
g72
sbag1
(g2
g3
Ntp1542
Rp1543
(dp1544
g7
I4
sg8
S'HHPPHPPHPPHP'
p1545
sg10
I00
sg11
I2
sg12
I01
sg13
(lp1546
g1
(g15
g3
Ntp1547
Rp1548
(dp1549
g19
g20
sbag1
(g15
g3
Ntp1550
Rp1551
(dp1552
g19
(I0
I1
tp1553
sbag1
(g15
g3
Ntp1554
Rp1555
(dp1556
g19
(I1
I1
tp1557
sbag1
(g15
g3
Ntp1558
Rp1559
(dp1560
g19
(I1
I2
tp1561
sbag1
(g15
g3
Ntp1562
Rp1563
(dp1564
g19
(I0
I2
tp1565
sbag1
(g15
g3
Ntp1566
Rp1567
(dp1568
g19
(I0
I3
tp1569
sbag1
(g15
g3
Ntp1570
Rp1571
(dp1572
g19
(I-1
I3
tp1573
sbag1
(g15
g3
Ntp1574
Rp1575
(dp1576
g19
(I-1
I2
tp1577
sbag1
(g15
g3
Ntp1578
Rp1579
(dp1580
g19
(I-2
I2
tp1581
sbag1
(g15
g3
Ntp1582
Rp1583
(dp1584
g19
(I-2
I1
tp1585
sbag1
(g15
g3
Ntp1586
Rp1587
(dp1588
g19
(I-1
I1
tp1589
sbag1
(g15
g3
Ntp1590
Rp1591
(dp1592
g19
(I-1
I0
tp1593
sbasg65
I12
sg66
g72
sg68
g1541
sg70
Nsg71
S'HHPP'
p1594
sbag1
(g2
g3
Ntp1595
Rp1596
(dp1597
g7
I4
sg8
S'PHHPHPPHPPHP'
p1598
sg10
I00
sg11
I2
sg12
I01
sg13
(lp1599
g1
(g15
g3
Ntp1600
Rp1601
(dp1602
g19
g20
sbag1
(g15
g3
Ntp1603
Rp1604
(dp1605
g19
(I0
I1
tp1606
sbag1
(g15
g3
Ntp1607
Rp1608
(dp1609
g19
(I1
I1
tp1610
sbag1
(g15
g3
Ntp1611
Rp1612
(dp1613
g19
(I1
I2
tp1614
sbag1
(g15
g3
Ntp1615
Rp1616
(dp1617
g19
(I0
I2
tp1618
sbag1
(g15
g3
Ntp1619
Rp1620
(dp1621
g19
(I0
I3
tp1622
sbag1
(g15
g3
Ntp1623
Rp1624
(dp1625
g19
(I-1
I3
tp1626
sbag1
(g15
g3
Ntp1627
Rp1628
(dp1629
g19
(I-1
I2
tp1630
sbag1
(g15
g3
Ntp1631
Rp1632
(dp1633
g19
(I-2
I2
tp1634
sbag1
(g15
g3
Ntp1635
Rp1636
(dp1637
g19
(I-2
I1
tp1638
sbag1
(g15
g3
Ntp1639
Rp1640
(dp1641
g19
(I-1
I1
tp1642
sbag1
(g15
g3
Ntp1643
Rp1644
(dp1645
g19
(I-1
I0
tp1646
sbasg65
I12
sg66
g72
sg68
g1541
sg70
Nsg71
S'HHPH'
p1647
sbag1
(g2
g3
Ntp1648
Rp1649
(dp1650
g7
I4
sg8
S'HHHPHPPHPPHP'
p1651
sg10
I00
sg11
I2
sg12
I01
sg13
(lp1652
g1
(g15
g3
Ntp1653
Rp1654
(dp1655
g19
g20
sbag1
(g15
g3
Ntp1656
Rp1657
(dp1658
g19
(I0
I1
tp1659
sbag1
(g15
g3
Ntp1660
Rp1661
(dp1662
g19
(I1
I1
tp1663
sbag1
(g15
g3
Ntp1664
Rp1665
(dp1666
g19
(I1
I2
tp1667
sbag1
(g15
g3
Ntp1668
Rp1669
(dp1670
g19
(I0
I2
tp1671
sbag1
(g15
g3
Ntp1672
Rp1673
(dp1674
g19
(I0
I3
tp1675
sbag1
(g15
g3
Ntp1676
Rp1677
(dp1678
g19
(I-1
I3
tp1679
sbag1
(g15
g3
Ntp1680
Rp1681
(dp1682
g19
(I-1
I2
tp1683
sbag1
(g15
g3
Ntp1684
Rp1685
(dp1686
g19
(I-2
I2
tp1687
sbag1
(g15
g3
Ntp1688
Rp1689
(dp1690
g19
(I-2
I1
tp1691
sbag1
(g15
g3
Ntp1692
Rp1693
(dp1694
g19
(I-1
I1
tp1695
sbag1
(g15
g3
Ntp1696
Rp1697
(dp1698
g19
(I-1
I0
tp1699
sbasg65
I12
sg66
g72
sg68
g1541
sg70
Nsg71
S'HHHPH'
p1700
sbag1
(g2
g3
Ntp1701
Rp1702
(dp1703
g7
I4
sg8
S'PHPPHHPHPPHP'
p1704
sg10
I00
sg11
I2
sg12
I01
sg13
(lp1705
g1
(g15
g3
Ntp1706
Rp1707
(dp1708
g19
g20
sbag1
(g15
g3
Ntp1709
Rp1710
(dp1711
g19
(I0
I1
tp1712
sbag1
(g15
g3
Ntp1713
Rp1714
(dp1715
g19
(I1
I1
tp1716
sbag1
(g15
g3
Ntp1717
Rp1718
(dp1719
g19
(I1
I2
tp1720
sbag1
(g15
g3
Ntp1721
Rp1722
(dp1723
g19
(I0
I2
tp1724
sbag1
(g15
g3
Ntp1725
Rp1726
(dp1727
g19
(I0
I3
tp1728
sbag1
(g15
g3
Ntp1729
Rp1730
(dp1731
g19
(I-1
I3
tp1732
sbag1
(g15
g3
Ntp1733
Rp1734
(dp1735
g19
(I-1
I2
tp1736
sbag1
(g15
g3
Ntp1737
Rp1738
(dp1739
g19
(I-2
I2
tp1740
sbag1
(g15
g3
Ntp1741
Rp1742
(dp1743
g19
(I-2
I1
tp1744
sbag1
(g15
g3
Ntp1745
Rp1746
(dp1747
g19
(I-1
I1
tp1748
sbag1
(g15
g3
Ntp1749
Rp1750
(dp1751
g19
(I-1
I0
tp1752
sbasg65
I12
sg66
g72
sg68
g1541
sg70
Nsg71
S'HHPH'
p1753
sbag1
(g2
g3
Ntp1754
Rp1755
(dp1756
g7
I4
sg8
S'PHPPHPHHPPHP'
p1757
sg10
I00
sg11
I2
sg12
I01
sg13
(lp1758
g1
(g15
g3
Ntp1759
Rp1760
(dp1761
g19
g20
sbag1
(g15
g3
Ntp1762
Rp1763
(dp1764
g19
(I0
I1
tp1765
sbag1
(g15
g3
Ntp1766
Rp1767
(dp1768
g19
(I1
I1
tp1769
sbag1
(g15
g3
Ntp1770
Rp1771
(dp1772
g19
(I1
I2
tp1773
sbag1
(g15
g3
Ntp1774
Rp1775
(dp1776
g19
(I0
I2
tp1777
sbag1
(g15
g3
Ntp1778
Rp1779
(dp1780
g19
(I0
I3
tp1781
sbag1
(g15
g3
Ntp1782
Rp1783
(dp1784
g19
(I-1
I3
tp1785
sbag1
(g15
g3
Ntp1786
Rp1787
(dp1788
g19
(I-1
I2
tp1789
sbag1
(g15
g3
Ntp1790
Rp1791
(dp1792
g19
(I-2
I2
tp1793
sbag1
(g15
g3
Ntp1794
Rp1795
(dp1796
g19
(I-2
I1
tp1797
sbag1
(g15
g3
Ntp1798
Rp1799
(dp1800
g19
(I-1
I1
tp1801
sbag1
(g15
g3
Ntp1802
Rp1803
(dp1804
g19
(I-1
I0
tp1805
sbasg65
I12
sg66
g72
sg68
g1541
sg70
Nsg71
S'HHPP'
p1806
sbag1
(g2
g3
Ntp1807
Rp1808
(dp1809
g7
I4
sg8
S'PHHPHPHHPPHP'
p1810
sg10
I00
sg11
I2
sg12
I01
sg13
(lp1811
g1
(g15
g3
Ntp1812
Rp1813
(dp1814
g19
g20
sbag1
(g15
g3
Ntp1815
Rp1816
(dp1817
g19
(I0
I1
tp1818
sbag1
(g15
g3
Ntp1819
Rp1820
(dp1821
g19
(I1
I1
tp1822
sbag1
(g15
g3
Ntp1823
Rp1824
(dp1825
g19
(I1
I2
tp1826
sbag1
(g15
g3
Ntp1827
Rp1828
(dp1829
g19
(I0
I2
tp1830
sbag1
(g15
g3
Ntp1831
Rp1832
(dp1833
g19
(I0
I3
tp1834
sbag1
(g15
g3
Ntp1835
Rp1836
(dp1837
g19
(I-1
I3
tp1838
sbag1
(g15
g3
Ntp1839
Rp1840
(dp1841
g19
(I-1
I2
tp1842
sbag1
(g15
g3
Ntp1843
Rp1844
(dp1845
g19
(I-2
I2
tp1846
sbag1
(g15
g3
Ntp1847
Rp1848
(dp1849
g19
(I-2
I1
tp1850
sbag1
(g15
g3
Ntp1851
Rp1852
(dp1853
g19
(I-1
I1
tp1854
sbag1
(g15
g3
Ntp1855
Rp1856
(dp1857
g19
(I-1
I0
tp1858
sbasg65
I12
sg66
g72
sg68
g1541
sg70
Nsg71
S'HHPH'
p1859
sbag1
(g2
g3
Ntp1860
Rp1861
(dp1862
g7
I4
sg8
S'PHPPHPPHPHHP'
p1863
sg10
I00
sg11
I2
sg12
I00
sg13
(lp1864
g1
(g15
g3
Ntp1865
Rp1866
(dp1867
g19
g20
sbag1
(g15
g3
Ntp1868
Rp1869
(dp1870
g19
(I0
I1
tp1871
sbag1
(g15
g3
Ntp1872
Rp1873
(dp1874
g19
(I1
I1
tp1875
sbag1
(g15
g3
Ntp1876
Rp1877
(dp1878
g19
(I1
I2
tp1879
sbag1
(g15
g3
Ntp1880
Rp1881
(dp1882
g19
(I0
I2
tp1883
sbag1
(g15
g3
Ntp1884
Rp1885
(dp1886
g19
(I0
I3
tp1887
sbag1
(g15
g3
Ntp1888
Rp1889
(dp1890
g19
(I-1
I3
tp1891
sbag1
(g15
g3
Ntp1892
Rp1893
(dp1894
g19
(I-1
I2
tp1895
sbag1
(g15
g3
Ntp1896
Rp1897
(dp1898
g19
(I-2
I2
tp1899
sbag1
(g15
g3
Ntp1900
Rp1901
(dp1902
g19
(I-2
I1
tp1903
sbag1
(g15
g3
Ntp1904
Rp1905
(dp1906
g19
(I-1
I1
tp1907
sbag1
(g15
g3
Ntp1908
Rp1909
(dp1910
g19
(I-1
I0
tp1911
sbasg65
I12
sg66
g72
sg68
g1541
sg70
Nsg71
g72
sbag1
(g2
g3
Ntp1912
Rp1913
(dp1914
g7
I4
sg8
S'PHPPHHPHPHHP'
p1915
sg10
I00
sg11
I2
sg12
I01
sg13
(lp1916
g1
(g15
g3
Ntp1917
Rp1918
(dp1919
g19
g20
sbag1
(g15
g3
Ntp1920
Rp1921
(dp1922
g19
(I0
I1
tp1923
sbag1
(g15
g3
Ntp1924
Rp1925
(dp1926
g19
(I1
I1
tp1927
sbag1
(g15
g3
Ntp1928
Rp1929
(dp1930
g19
(I1
I2
tp1931
sbag1
(g15
g3
Ntp1932
Rp1933
(dp1934
g19
(I0
I2
tp1935
sbag1
(g15
g3
Ntp1936
Rp1937
(dp1938
g19
(I0
I3
tp1939
sbag1
(g15
g3
Ntp1940
Rp1941
(dp1942
g19
(I-1
I3
tp1943
sbag1
(g15
g3
Ntp1944
Rp1945
(dp1946
g19
(I-1
I2
tp1947
sbag1
(g15
g3
Ntp1948
Rp1949
(dp1950
g19
(I-2
I2
tp1951
sbag1
(g15
g3
Ntp1952
Rp1953
(dp1954
g19
(I-2
I1
tp1955
sbag1
(g15
g3
Ntp1956
Rp1957
(dp1958
g19
(I-1
I1
tp1959
sbag1
(g15
g3
Ntp1960
Rp1961
(dp1962
g19
(I-1
I0
tp1963
sbasg65
I12
sg66
g72
sg68
g1541
sg70
Nsg71
S'HHPH'
p1964
sbag1
(g2
g3
Ntp1965
Rp1966
(dp1967
g7
I4
sg8
S'PHPPHPPHPPHH'
p1968
sg10
I00
sg11
I2
sg12
I00
sg13
(lp1969
g1
(g15
g3
Ntp1970
Rp1971
(dp1972
g19
g20
sbag1
(g15
g3
Ntp1973
Rp1974
(dp1975
g19
(I0
I1
tp1976
sbag1
(g15
g3
Ntp1977
Rp1978
(dp1979
g19
(I1
I1
tp1980
sbag1
(g15
g3
Ntp1981
Rp1982
(dp1983
g19
(I1
I2
tp1984
sbag1
(g15
g3
Ntp1985
Rp1986
(dp1987
g19
(I0
I2
tp1988
sbag1
(g15
g3
Ntp1989
Rp1990
(dp1991
g19
(I0
I3
tp1992
sbag1
(g15
g3
Ntp1993
Rp1994
(dp1995
g19
(I-1
I3
tp1996
sbag1
(g15
g3
Ntp1997
Rp1998
(dp1999
g19
(I-1
I2
tp2000
sbag1
(g15
g3
Ntp2001
Rp2002
(dp2003
g19
(I-2
I2
tp2004
sbag1
(g15
g3
Ntp2005
Rp2006
(dp2007
g19
(I-2
I1
tp2008
sbag1
(g15
g3
Ntp2009
Rp2010
(dp2011
g19
(I-1
I1
tp2012
sbag1
(g15
g3
Ntp2013
Rp2014
(dp2015
g19
(I-1
I0
tp2016
sbasg65
I12
sg66
g72
sg68
g1541
sg70
Nsg71
g72
sbag1
(g2
g3
Ntp2017
Rp2018
(dp2019
g7
I5
sg8
S'HHPPHPPHPPHH'
p2020
sg10
I01
sg11
I3
sg12
I01
sg13
(lp2021
g1
(g15
g3
Ntp2022
Rp2023
(dp2024
g19
g20
sbag1
(g15
g3
Ntp2025
Rp2026
(dp2027
g19
(I0
I1
tp2028
sbag1
(g15
g3
Ntp2029
Rp2030
(dp2031
g19
(I1
I1
tp2032
sbag1
(g15
g3
Ntp2033
Rp2034
(dp2035
g19
(I1
I2
tp2036
sbag1
(g15
g3
Ntp2037
Rp2038
(dp2039
g19
(I0
I2
tp2040
sbag1
(g15
g3
Ntp2041
Rp2042
(dp2043
g19
(I0
I3
tp2044
sbag1
(g15
g3
Ntp2045
Rp2046
(dp2047
g19
(I-1
I3
tp2048
sbag1
(g15
g3
Ntp2049
Rp2050
(dp2051
g19
(I-1
I2
tp2052
sbag1
(g15
g3
Ntp2053
Rp2054
(dp2055
g19
(I-2
I2
tp2056
sbag1
(g15
g3
Ntp2057
Rp2058
(dp2059
g19
(I-2
I1
tp2060
sbag1
(g15
g3
Ntp2061
Rp2062
(dp2063
g19
(I-1
I1
tp2064
sbag1
(g15
g3
Ntp2065
Rp2066
(dp2067
g19
(I-1
I0
tp2068
sbasg65
I12
sg66
S'HHPH'
p2069
sg68
g1541
sg70
(I12
S'HHPP'
p2070
g2069
tp2071
sg71
g2070
sbag1
(g2
g3
Ntp2072
Rp2073
(dp2074
g7
I4
sg8
S'PHPPHPPHPHHH'
p2075
sg10
I00
sg11
I3
sg12
I00
sg13
(lp2076
g1
(g15
g3
Ntp2077
Rp2078
(dp2079
g19
g20
sbag1
(g15
g3
Ntp2080
Rp2081
(dp2082
g19
(I0
I1
tp2083
sbag1
(g15
g3
Ntp2084
Rp2085
(dp2086
g19
(I1
I1
tp2087
sbag1
(g15
g3
Ntp2088
Rp2089
(dp2090
g19
(I1
I2
tp2091
sbag1
(g15
g3
Ntp2092
Rp2093
(dp2094
g19
(I0
I2
tp2095
sbag1
(g15
g3
Ntp2096
Rp2097
(dp2098
g19
(I0
I3
tp2099
sbag1
(g15
g3
Ntp2100
Rp2101
(dp2102
g19
(I-1
I3
tp2103
sbag1
(g15
g3
Ntp2104
Rp2105
(dp2106
g19
(I-1
I2
tp2107
sbag1
(g15
g3
Ntp2108
Rp2109
(dp2110
g19
(I-2
I2
tp2111
sbag1
(g15
g3
Ntp2112
Rp2113
(dp2114
g19
(I-2
I1
tp2115
sbag1
(g15
g3
Ntp2116
Rp2117
(dp2118
g19
(I-1
I1
tp2119
sbag1
(g15
g3
Ntp2120
Rp2121
(dp2122
g19
(I-1
I0
tp2123
sbasg65
I12
sg66
g72
sg68
g1541
sg70
Nsg71
g72
sbag1
(g2
g3
Ntp2124
Rp2125
(dp2126
g7
I3
sg8
S'HPPHHPPHP'
p2127
sg10
I01
sg11
I4
sg12
I01
sg13
(lp2128
g1
(g15
g3
Ntp2129
Rp2130
(dp2131
g19
g20
sbag1
(g15
g3
Ntp2132
Rp2133
(dp2134
g19
(I0
I1
tp2135
sbag1
(g15
g3
Ntp2136
Rp2137
(dp2138
g19
(I1
I1
tp2139
sbag1
(g15
g3
Ntp2140
Rp2141
(dp2142
g19
(I1
I0
tp2143
sbag1
(g15
g3
Ntp2144
Rp2145
(dp2146
g19
(I1
I-1
tp2147
sbag1
(g15
g3
Ntp2148
Rp2149
(dp2150
g19
(I1
I-2
tp2151
sbag1
(g15
g3
Ntp2152
Rp2153
(dp2154
g19
(I0
I-2
tp2155
sbag1
(g15
g3
Ntp2156
Rp2157
(dp2158
g19
(I0
I-1
tp2159
sbag1
(g15
g3
Ntp2160
Rp2161
(dp2162
g19
(I-1
I-1
tp2163
sbasg65
I9
sg66
S'HHPP'
p2164
sg68
S'URDDDLUL'
p2165
sg70
(I9
S'HHPP'
p2166
g2164
tp2167
sg71
g2166
sbag1
(g2
g3
Ntp2168
Rp2169
(dp2170
g7
I3
sg8
S'HHPPHPPHP'
p2171
sg10
I01
sg11
I5
sg12
I01
sg13
(lp2172
g1
(g15
g3
Ntp2173
Rp2174
(dp2175
g19
g20
sbag1
(g15
g3
Ntp2176
Rp2177
(dp2178
g19
(I0
I1
tp2179
sbag1
(g15
g3
Ntp2180
Rp2181
(dp2182
g19
(I0
I2
tp2183
sbag1
(g15
g3
Ntp2184
Rp2185
(dp2186
g19
(I1
I2
tp2187
sbag1
(g15
g3
Ntp2188
Rp2189
(dp2190
g19
(I1
I1
tp2191
sbag1
(g15
g3
Ntp2192
Rp2193
(dp2194
g19
(I2
I1
tp2195
sbag1
(g15
g3
Ntp2196
Rp2197
(dp2198
g19
(I2
I0
tp2199
sbag1
(g15
g3
Ntp2200
Rp2201
(dp2202
g19
(I1
I0
tp2203
sbag1
(g15
g3
Ntp2204
Rp2205
(dp2206
g19
(I1
I-1
tp2207
sbasg65
I9
sg66
S'HHPH'
p2208
sg68
S'UURDRDLD'
p2209
sg70
(I9
S'HHPP'
p2210
g2208
tp2211
sg71
g2210
sbag1
(g2
g3
Ntp2212
Rp2213
(dp2214
g7
I3
sg8
S'HHHPHPPHP'
p2215
sg10
I01
sg11
I6
sg12
I01
sg13
(lp2216
g1
(g15
g3
Ntp2217
Rp2218
(dp2219
g19
g20
sbag1
(g15
g3
Ntp2220
Rp2221
(dp2222
g19
(I0
I1
tp2223
sbag1
(g15
g3
Ntp2224
Rp2225
(dp2226
g19
(I0
I2
tp2227
sbag1
(g15
g3
Ntp2228
Rp2229
(dp2230
g19
(I1
I2
tp2231
sbag1
(g15
g3
Ntp2232
Rp2233
(dp2234
g19
(I1
I1
tp2235
sbag1
(g15
g3
Ntp2236
Rp2237
(dp2238
g19
(I2
I1
tp2239
sbag1
(g15
g3
Ntp2240
Rp2241
(dp2242
g19
(I2
I0
tp2243
sbag1
(g15
g3
Ntp2244
Rp2245
(dp2246
g19
(I1
I0
tp2247
sbag1
(g15
g3
Ntp2248
Rp2249
(dp2250
g19
(I1
I-1
tp2251
sbasg65
I9
sg66
S'HHHPH'
p2252
sg68
g2209
sg70
(I9
S'HHHPH'
p2253
g2252
tp2254
sg71
g2253
sbag1
(g2
g3
Ntp2255
Rp2256
(dp2257
g7
I5
sg8
S'HHPPHPPHPHPH'
p2258
sg10
I00
sg11
I6
sg12
I01
sg13
(lp2259
g1
(g15
g3
Ntp2260
Rp2261
(dp2262
g19
g20
sbag1
(g15
g3
Ntp2263
Rp2264
(dp2265
g19
(I0
I1
tp2266
sbag1
(g15
g3
Ntp2267
Rp2268
(dp2269
g19
(I0
I2
tp2270
sbag1
(g15
g3
Ntp2271
Rp2272
(dp2273
g19
(I1
I2
tp2274
sbag1
(g15
g3
Ntp2275
Rp2276
(dp2277
g19
(I1
I1
tp2278
sbag1
(g15
g3
Ntp2279
Rp2280
(dp2281
g19
(I2
I1
tp2282
sbag1
(g15
g3
Ntp2283
Rp2284
(dp2285
g19
(I2
I0
tp2286
sbag1
(g15
g3
Ntp2287
Rp2288
(dp2289
g19
(I1
I0
tp2290
sbag1
(g15
g3
Ntp2291
Rp2292
(dp2293
g19
(I1
I-1
tp2294
sbag1
(g15
g3
Ntp2295
Rp2296
(dp2297
g19
(I0
I-1
tp2298
sbag1
(g15
g3
Ntp2299
Rp2300
(dp2301
g19
(I-1
I-1
tp2302
sbag1
(g15
g3
Ntp2303
Rp2304
(dp2305
g19
(I-1
I0
tp2306
sbasg65
I12
sg66
g72
sg68
S'UURDRDLDLLU'
p2307
sg70
Nsg71
S'HHPP'
p2308
sbag1
(g2
g3
Ntp2309
Rp2310
(dp2311
g7
I5
sg8
S'HHPPHHPHPHPH'
p2312
sg10
I00
sg11
I6
sg12
I01
sg13
(lp2313
g1
(g15
g3
Ntp2314
Rp2315
(dp2316
g19
g20
sbag1
(g15
g3
Ntp2317
Rp2318
(dp2319
g19
(I0
I1
tp2320
sbag1
(g15
g3
Ntp2321
Rp2322
(dp2323
g19
(I0
I2
tp2324
sbag1
(g15
g3
Ntp2325
Rp2326
(dp2327
g19
(I1
I2
tp2328
sbag1
(g15
g3
Ntp2329
Rp2330
(dp2331
g19
(I1
I1
tp2332
sbag1
(g15
g3
Ntp2333
Rp2334
(dp2335
g19
(I2
I1
tp2336
sbag1
(g15
g3
Ntp2337
Rp2338
(dp2339
g19
(I2
I0
tp2340
sbag1
(g15
g3
Ntp2341
Rp2342
(dp2343
g19
(I1
I0
tp2344
sbag1
(g15
g3
Ntp2345
Rp2346
(dp2347
g19
(I1
I-1
tp2348
sbag1
(g15
g3
Ntp2349
Rp2350
(dp2351
g19
(I0
I-1
tp2352
sbag1
(g15
g3
Ntp2353
Rp2354
(dp2355
g19
(I-1
I-1
tp2356
sbag1
(g15
g3
Ntp2357
Rp2358
(dp2359
g19
(I-1
I0
tp2360
sbasg65
I12
sg66
g72
sg68
g2307
sg70
Nsg71
S'HHPH'
p2361
sbag1
(g2
g3
Ntp2362
Rp2363
(dp2364
g7
I4
sg8
S'HPPHPPPPHPPH'
p2365
sg10
I01
sg11
I6
sg12
I00
sg13
(lp2366
g1
(g15
g3
Ntp2367
Rp2368
(dp2369
g19
g20
sbag1
(g15
g3
Ntp2370
Rp2371
(dp2372
g19
(I0
I1
tp2373
sbag1
(g15
g3
Ntp2374
Rp2375
(dp2376
g19
(I1
I1
tp2377
sbag1
(g15
g3
Ntp2378
Rp2379
(dp2380
g19
(I1
I0
tp2381
sbag1
(g15
g3
Ntp2382
Rp2383
(dp2384
g19
(I2
I0
tp2385
sbag1
(g15
g3
Ntp2386
Rp2387
(dp2388
g19
(I3
I0
tp2389
sbag1
(g15
g3
Ntp2390
Rp2391
(dp2392
g19
(I3
I-1
tp2393
sbag1
(g15
g3
Ntp2394
Rp2395
(dp2396
g19
(I2
I-1
tp2397
sbag1
(g15
g3
Ntp2398
Rp2399
(dp2400
g19
(I1
I-1
tp2401
sbag1
(g15
g3
Ntp2402
Rp2403
(dp2404
g19
(I1
I-2
tp2405
sbag1
(g15
g3
Ntp2406
Rp2407
(dp2408
g19
(I0
I-2
tp2409
sbag1
(g15
g3
Ntp2410
Rp2411
(dp2412
g19
(I0
I-1
tp2413
sbasg65
I12
sg66
S'HHPP'
p2414
sg68
S'URDRRDLLDLU'
p2415
sg70
Nsg71
g72
sbag1
(g2
g3
Ntp2416
Rp2417
(dp2418
g7
I4
sg8
S'HHPHPPPPHPPH'
p2419
sg10
I01
sg11
I7
sg12
I01
sg13
(lp2420
g1
(g15
g3
Ntp2421
Rp2422
(dp2423
g19
g20
sbag1
(g15
g3
Ntp2424
Rp2425
(dp2426
g19
(I0
I1
tp2427
sbag1
(g15
g3
Ntp2428
Rp2429
(dp2430
g19
(I1
I1
tp2431
sbag1
(g15
g3
Ntp2432
Rp2433
(dp2434
g19
(I1
I0
tp2435
sbag1
(g15
g3
Ntp2436
Rp2437
(dp2438
g19
(I2
I0
tp2439
sbag1
(g15
g3
Ntp2440
Rp2441
(dp2442
g19
(I3
I0
tp2443
sbag1
(g15
g3
Ntp2444
Rp2445
(dp2446
g19
(I3
I-1
tp2447
sbag1
(g15
g3
Ntp2448
Rp2449
(dp2450
g19
(I2
I-1
tp2451
sbag1
(g15
g3
Ntp2452
Rp2453
(dp2454
g19
(I1
I-1
tp2455
sbag1
(g15
g3
Ntp2456
Rp2457
(dp2458
g19
(I1
I-2
tp2459
sbag1
(g15
g3
Ntp2460
Rp2461
(dp2462
g19
(I0
I-2
tp2463
sbag1
(g15
g3
Ntp2464
Rp2465
(dp2466
g19
(I0
I-1
tp2467
sbasg65
I12
sg66
S'HHHPP'
p2468
sg68
g2415
sg70
(I12
S'HHPH'
p2469
g2468
tp2470
sg71
g2469
sbag1
(g2
g3
Ntp2471
Rp2472
(dp2473
g7
I4
sg8
S'HPPHPPPPHPHH'
p2474
sg10
I01
sg11
I7
sg12
I00
sg13
(lp2475
g1
(g15
g3
Ntp2476
Rp2477
(dp2478
g19
g20
sbag1
(g15
g3
Ntp2479
Rp2480
(dp2481
g19
(I0
I1
tp2482
sbag1
(g15
g3
Ntp2483
Rp2484
(dp2485
g19
(I1
I1
tp2486
sbag1
(g15
g3
Ntp2487
Rp2488
(dp2489
g19
(I1
I0
tp2490
sbag1
(g15
g3
Ntp2491
Rp2492
(dp2493
g19
(I2
I0
tp2494
sbag1
(g15
g3
Ntp2495
Rp2496
(dp2497
g19
(I3
I0
tp2498
sbag1
(g15
g3
Ntp2499
Rp2500
(dp2501
g19
(I3
I-1
tp2502
sbag1
(g15
g3
Ntp2503
Rp2504
(dp2505
g19
(I2
I-1
tp2506
sbag1
(g15
g3
Ntp2507
Rp2508
(dp2509
g19
(I1
I-1
tp2510
sbag1
(g15
g3
Ntp2511
Rp2512
(dp2513
g19
(I1
I-2
tp2514
sbag1
(g15
g3
Ntp2515
Rp2516
(dp2517
g19
(I0
I-2
tp2518
sbag1
(g15
g3
Ntp2519
Rp2520
(dp2521
g19
(I0
I-1
tp2522
sbasg65
I12
sg66
S'HHHPH'
p2523
sg68
g2415
sg70
Nsg71
g72
sbag1
(g2
g3
Ntp2524
Rp2525
(dp2526
g7
I4
sg8
S'HPHPHPPHPHP'
p2527
sg10
I00
sg11
I7
sg12
I00
sg13
(lp2528
g1
(g15
g3
Ntp2529
Rp2530
(dp2531
g19
g20
sbag1
(g15
g3
Ntp2532
Rp2533
(dp2534
g19
(I0
I1
tp2535
sbag1
(g15
g3
Ntp2536
Rp2537
(dp2538
g19
(I1
I1
tp2539
sbag1
(g15
g3
Ntp2540
Rp2541
(dp2542
g19
(I1
I2
tp2543
sbag1
(g15
g3
Ntp2544
Rp2545
(dp2546
g19
(I2
I2
tp2547
sbag1
(g15
g3
Ntp2548
Rp2549
(dp2550
g19
(I3
I2
tp2551
sbag1
(g15
g3
Ntp2552
Rp2553
(dp2554
g19
(I3
I1
tp2555
sbag1
(g15
g3
Ntp2556
Rp2557
(dp2558
g19
(I2
I1
tp2559
sbag1
(g15
g3
Ntp2560
Rp2561
(dp2562
g19
(I2
I0
tp2563
sbag1
(g15
g3
Ntp2564
Rp2565
(dp2566
g19
(I1
I0
tp2567
sbag1
(g15
g3
Ntp2568
Rp2569
(dp2570
g19
(I1
I-1
tp2571
sbasg65
I11
sg66
g72
sg68
S'URURRDLDLD'
p2572
sg70
Nsg71
g72
sbag1
(g2
g3
Ntp2573
Rp2574
(dp2575
g7
I4
sg8
S'HPHPHPHHPHP'
p2576
sg10
I00
sg11
I7
sg12
I01
sg13
(lp2577
g1
(g15
g3
Ntp2578
Rp2579
(dp2580
g19
g20
sbag1
(g15
g3
Ntp2581
Rp2582
(dp2583
g19
(I0
I1
tp2584
sbag1
(g15
g3
Ntp2585
Rp2586
(dp2587
g19
(I1
I1
tp2588
sbag1
(g15
g3
Ntp2589
Rp2590
(dp2591
g19
(I1
I2
tp2592
sbag1
(g15
g3
Ntp2593
Rp2594
(dp2595
g19
(I2
I2
tp2596
sbag1
(g15
g3
Ntp2597
Rp2598
(dp2599
g19
(I3
I2
tp2600
sbag1
(g15
g3
Ntp2601
Rp2602
(dp2603
g19
(I3
I1
tp2604
sbag1
(g15
g3
Ntp2605
Rp2606
(dp2607
g19
(I2
I1
tp2608
sbag1
(g15
g3
Ntp2609
Rp2610
(dp2611
g19
(I2
I0
tp2612
sbag1
(g15
g3
Ntp2613
Rp2614
(dp2615
g19
(I1
I0
tp2616
sbag1
(g15
g3
Ntp2617
Rp2618
(dp2619
g19
(I1
I-1
tp2620
sbasg65
I11
sg66
g72
sg68
g2572
sg70
Nsg71
S'HHPH'
p2621
sbag1
(g2
g3
Ntp2622
Rp2623
(dp2624
g7
I4
sg8
S'HPHPHPPHHHP'
p2625
sg10
I00
sg11
I7
sg12
I00
sg13
(lp2626
g1
(g15
g3
Ntp2627
Rp2628
(dp2629
g19
g20
sbag1
(g15
g3
Ntp2630
Rp2631
(dp2632
g19
(I0
I1
tp2633
sbag1
(g15
g3
Ntp2634
Rp2635
(dp2636
g19
(I1
I1
tp2637
sbag1
(g15
g3
Ntp2638
Rp2639
(dp2640
g19
(I1
I2
tp2641
sbag1
(g15
g3
Ntp2642
Rp2643
(dp2644
g19
(I2
I2
tp2645
sbag1
(g15
g3
Ntp2646
Rp2647
(dp2648
g19
(I3
I2
tp2649
sbag1
(g15
g3
Ntp2650
Rp2651
(dp2652
g19
(I3
I1
tp2653
sbag1
(g15
g3
Ntp2654
Rp2655
(dp2656
g19
(I2
I1
tp2657
sbag1
(g15
g3
Ntp2658
Rp2659
(dp2660
g19
(I2
I0
tp2661
sbag1
(g15
g3
Ntp2662
Rp2663
(dp2664
g19
(I1
I0
tp2665
sbag1
(g15
g3
Ntp2666
Rp2667
(dp2668
g19
(I1
I-1
tp2669
sbasg65
I11
sg66
g72
sg68
g2572
sg70
Nsg71
g72
sbag1
(g2
g3
Ntp2670
Rp2671
(dp2672
g7
I4
sg8
S'HPHPHPHHHHP'
p2673
sg10
I00
sg11
I7
sg12
I00
sg13
(lp2674
g1
(g15
g3
Ntp2675
Rp2676
(dp2677
g19
g20
sbag1
(g15
g3
Ntp2678
Rp2679
(dp2680
g19
(I0
I1
tp2681
sbag1
(g15
g3
Ntp2682
Rp2683
(dp2684
g19
(I1
I1
tp2685
sbag1
(g15
g3
Ntp2686
Rp2687
(dp2688
g19
(I1
I2
tp2689
sbag1
(g15
g3
Ntp2690
Rp2691
(dp2692
g19
(I2
I2
tp2693
sbag1
(g15
g3
Ntp2694
Rp2695
(dp2696
g19
(I3
I2
tp2697
sbag1
(g15
g3
Ntp2698
Rp2699
(dp2700
g19
(I3
I1
tp2701
sbag1
(g15
g3
Ntp2702
Rp2703
(dp2704
g19
(I2
I1
tp2705
sbag1
(g15
g3
Ntp2706
Rp2707
(dp2708
g19
(I2
I0
tp2709
sbag1
(g15
g3
Ntp2710
Rp2711
(dp2712
g19
(I1
I0
tp2713
sbag1
(g15
g3
Ntp2714
Rp2715
(dp2716
g19
(I1
I-1
tp2717
sbasg65
I11
sg66
g72
sg68
g2572
sg70
Nsg71
g72
sbag1
(g2
g3
Ntp2718
Rp2719
(dp2720
g7
I4
sg8
S'HPHPHPPHPHH'
p2721
sg10
I00
sg11
I7
sg12
I00
sg13
(lp2722
g1
(g15
g3
Ntp2723
Rp2724
(dp2725
g19
g20
sbag1
(g15
g3
Ntp2726
Rp2727
(dp2728
g19
(I0
I1
tp2729
sbag1
(g15
g3
Ntp2730
Rp2731
(dp2732
g19
(I1
I1
tp2733
sbag1
(g15
g3
Ntp2734
Rp2735
(dp2736
g19
(I1
I2
tp2737
sbag1
(g15
g3
Ntp2738
Rp2739
(dp2740
g19
(I2
I2
tp2741
sbag1
(g15
g3
Ntp2742
Rp2743
(dp2744
g19
(I3
I2
tp2745
sbag1
(g15
g3
Ntp2746
Rp2747
(dp2748
g19
(I3
I1
tp2749
sbag1
(g15
g3
Ntp2750
Rp2751
(dp2752
g19
(I2
I1
tp2753
sbag1
(g15
g3
Ntp2754
Rp2755
(dp2756
g19
(I2
I0
tp2757
sbag1
(g15
g3
Ntp2758
Rp2759
(dp2760
g19
(I1
I0
tp2761
sbag1
(g15
g3
Ntp2762
Rp2763
(dp2764
g19
(I1
I-1
tp2765
sbasg65
I11
sg66
g72
sg68
g2572
sg70
Nsg71
g72
sbag1
(g2
g3
Ntp2766
Rp2767
(dp2768
g7
I4
sg8
S'HPHPHPHHPHH'
p2769
sg10
I00
sg11
I7
sg12
I01
sg13
(lp2770
g1
(g15
g3
Ntp2771
Rp2772
(dp2773
g19
g20
sbag1
(g15
g3
Ntp2774
Rp2775
(dp2776
g19
(I0
I1
tp2777
sbag1
(g15
g3
Ntp2778
Rp2779
(dp2780
g19
(I1
I1
tp2781
sbag1
(g15
g3
Ntp2782
Rp2783
(dp2784
g19
(I1
I2
tp2785
sbag1
(g15
g3
Ntp2786
Rp2787
(dp2788
g19
(I2
I2
tp2789
sbag1
(g15
g3
Ntp2790
Rp2791
(dp2792
g19
(I3
I2
tp2793
sbag1
(g15
g3
Ntp2794
Rp2795
(dp2796
g19
(I3
I1
tp2797
sbag1
(g15
g3
Ntp2798
Rp2799
(dp2800
g19
(I2
I1
tp2801
sbag1
(g15
g3
Ntp2802
Rp2803
(dp2804
g19
(I2
I0
tp2805
sbag1
(g15
g3
Ntp2806
Rp2807
(dp2808
g19
(I1
I0
tp2809
sbag1
(g15
g3
Ntp2810
Rp2811
(dp2812
g19
(I1
I-1
tp2813
sbasg65
I11
sg66
g72
sg68
g2572
sg70
Nsg71
S'HHPHH'
p2814
sbag1
(g2
g3
Ntp2815
Rp2816
(dp2817
g7
I4
sg8
S'HPHPHPPHHHH'
p2818
sg10
I00
sg11
I7
sg12
I00
sg13
(lp2819
g1
(g15
g3
Ntp2820
Rp2821
(dp2822
g19
g20
sbag1
(g15
g3
Ntp2823
Rp2824
(dp2825
g19
(I0
I1
tp2826
sbag1
(g15
g3
Ntp2827
Rp2828
(dp2829
g19
(I1
I1
tp2830
sbag1
(g15
g3
Ntp2831
Rp2832
(dp2833
g19
(I1
I2
tp2834
sbag1
(g15
g3
Ntp2835
Rp2836
(dp2837
g19
(I2
I2
tp2838
sbag1
(g15
g3
Ntp2839
Rp2840
(dp2841
g19
(I3
I2
tp2842
sbag1
(g15
g3
Ntp2843
Rp2844
(dp2845
g19
(I3
I1
tp2846
sbag1
(g15
g3
Ntp2847
Rp2848
(dp2849
g19
(I2
I1
tp2850
sbag1
(g15
g3
Ntp2851
Rp2852
(dp2853
g19
(I2
I0
tp2854
sbag1
(g15
g3
Ntp2855
Rp2856
(dp2857
g19
(I1
I0
tp2858
sbag1
(g15
g3
Ntp2859
Rp2860
(dp2861
g19
(I1
I-1
tp2862
sbasg65
I11
sg66
g72
sg68
g2572
sg70
Nsg71
g72
sbag1
(g2
g3
Ntp2863
Rp2864
(dp2865
g7
I4
sg8
S'HPHPHPHHHHH'
p2866
sg10
I00
sg11
I7
sg12
I00
sg13
(lp2867
g1
(g15
g3
Ntp2868
Rp2869
(dp2870
g19
g20
sbag1
(g15
g3
Ntp2871
Rp2872
(dp2873
g19
(I0
I1
tp2874
sbag1
(g15
g3
Ntp2875
Rp2876
(dp2877
g19
(I1
I1
tp2878
sbag1
(g15
g3
Ntp2879
Rp2880
(dp2881
g19
(I1
I2
tp2882
sbag1
(g15
g3
Ntp2883
Rp2884
(dp2885
g19
(I2
I2
tp2886
sbag1
(g15
g3
Ntp2887
Rp2888
(dp2889
g19
(I3
I2
tp2890
sbag1
(g15
g3
Ntp2891
Rp2892
(dp2893
g19
(I3
I1
tp2894
sbag1
(g15
g3
Ntp2895
Rp2896
(dp2897
g19
(I2
I1
tp2898
sbag1
(g15
g3
Ntp2899
Rp2900
(dp2901
g19
(I2
I0
tp2902
sbag1
(g15
g3
Ntp2903
Rp2904
(dp2905
g19
(I1
I0
tp2906
sbag1
(g15
g3
Ntp2907
Rp2908
(dp2909
g19
(I1
I-1
tp2910
sbasg65
I11
sg66
g72
sg68
g2572
sg70
Nsg71
g72
sbag1
(g2
g3
Ntp2911
Rp2912
(dp2913
g7
I5
sg8
S'HPPHPPHPPHPH'
p2914
sg10
I00
sg11
I7
sg12
I00
sg13
(lp2915
g1
(g15
g3
Ntp2916
Rp2917
(dp2918
g19
g20
sbag1
(g15
g3
Ntp2919
Rp2920
(dp2921
g19
(I0
I1
tp2922
sbag1
(g15
g3
Ntp2923
Rp2924
(dp2925
g19
(I1
I1
tp2926
sbag1
(g15
g3
Ntp2927
Rp2928
(dp2929
g19
(I1
I0
tp2930
sbag1
(g15
g3
Ntp2931
Rp2932
(dp2933
g19
(I2
I0
tp2934
sbag1
(g15
g3
Ntp2935
Rp2936
(dp2937
g19
(I2
I-1
tp2938
sbag1
(g15
g3
Ntp2939
Rp2940
(dp2941
g19
(I1
I-1
tp2942
sbag1
(g15
g3
Ntp2943
Rp2944
(dp2945
g19
(I1
I-2
tp2946
sbag1
(g15
g3
Ntp2947
Rp2948
(dp2949
g19
(I0
I-2
tp2950
sbag1
(g15
g3
Ntp2951
Rp2952
(dp2953
g19
(I0
I-1
tp2954
sbag1
(g15
g3
Ntp2955
Rp2956
(dp2957
g19
(I-1
I-1
tp2958
sbag1
(g15
g3
Ntp2959
Rp2960
(dp2961
g19
(I-1
I0
tp2962
sbasg65
I12
sg66
g72
sg68
S'URDRDLDLULU'
p2963
sg70
Nsg71
g72
sbag1
(g2
g3
Ntp2964
Rp2965
(dp2966
g7
I5
sg8
S'HHPHPPHPPHPH'
p2967
sg10
I00
sg11
I7
sg12
I01
sg13
(lp2968
g1
(g15
g3
Ntp2969
Rp2970
(dp2971
g19
g20
sbag1
(g15
g3
Ntp2972
Rp2973
(dp2974
g19
(I0
I1
tp2975
sbag1
(g15
g3
Ntp2976
Rp2977
(dp2978
g19
(I1
I1
tp2979
sbag1
(g15
g3
Ntp2980
Rp2981
(dp2982
g19
(I1
I0
tp2983
sbag1
(g15
g3
Ntp2984
Rp2985
(dp2986
g19
(I2
I0
tp2987
sbag1
(g15
g3
Ntp2988
Rp2989
(dp2990
g19
(I2
I-1
tp2991
sbag1
(g15
g3
Ntp2992
Rp2993
(dp2994
g19
(I1
I-1
tp2995
sbag1
(g15
g3
Ntp2996
Rp2997
(dp2998
g19
(I1
I-2
tp2999
sbag1
(g15
g3
Ntp3000
Rp3001
(dp3002
g19
(I0
I-2
tp3003
sbag1
(g15
g3
Ntp3004
Rp3005
(dp3006
g19
(I0
I-1
tp3007
sbag1
(g15
g3
Ntp3008
Rp3009
(dp3010
g19
(I-1
I-1
tp3011
sbag1
(g15
g3
Ntp3012
Rp3013
(dp3014
g19
(I-1
I0
tp3015
sbasg65
I12
sg66
g72
sg68
g2963
sg70
Nsg71
S'HHPH'
p3016
sbag1
(g2
g3
Ntp3017
Rp3018
(dp3019
g7
I5
sg8
S'HPPHPPHHPHPH'
p3020
sg10
I00
sg11
I7
sg12
I01
sg13
(lp3021
g1
(g15
g3
Ntp3022
Rp3023
(dp3024
g19
g20
sbag1
(g15
g3
Ntp3025
Rp3026
(dp3027
g19
(I0
I1
tp3028
sbag1
(g15
g3
Ntp3029
Rp3030
(dp3031
g19
(I1
I1
tp3032
sbag1
(g15
g3
Ntp3033
Rp3034
(dp3035
g19
(I1
I0
tp3036
sbag1
(g15
g3
Ntp3037
Rp3038
(dp3039
g19
(I2
I0
tp3040
sbag1
(g15
g3
Ntp3041
Rp3042
(dp3043
g19
(I2
I-1
tp3044
sbag1
(g15
g3
Ntp3045
Rp3046
(dp3047
g19
(I1
I-1
tp3048
sbag1
(g15
g3
Ntp3049
Rp3050
(dp3051
g19
(I1
I-2
tp3052
sbag1
(g15
g3
Ntp3053
Rp3054
(dp3055
g19
(I0
I-2
tp3056
sbag1
(g15
g3
Ntp3057
Rp3058
(dp3059
g19
(I0
I-1
tp3060
sbag1
(g15
g3
Ntp3061
Rp3062
(dp3063
g19
(I-1
I-1
tp3064
sbag1
(g15
g3
Ntp3065
Rp3066
(dp3067
g19
(I-1
I0
tp3068
sbasg65
I12
sg66
g72
sg68
g2963
sg70
Nsg71
S'HHPH'
p3069
sbag1
(g2
g3
Ntp3070
Rp3071
(dp3072
g7
I5
sg8
S'HPPHPPHPPHHH'
p3073
sg10
I01
sg11
I7
sg12
I00
sg13
(lp3074
g1
(g15
g3
Ntp3075
Rp3076
(dp3077
g19
g20
sbag1
(g15
g3
Ntp3078
Rp3079
(dp3080
g19
(I0
I1
tp3081
sbag1
(g15
g3
Ntp3082
Rp3083
(dp3084
g19
(I1
I1
tp3085
sbag1
(g15
g3
Ntp3086
Rp3087
(dp3088
g19
(I1
I0
tp3089
sbag1
(g15
g3
Ntp3090
Rp3091
(dp3092
g19
(I2
I0
tp3093
sbag1
(g15
g3
Ntp3094
Rp3095
(dp3096
g19
(I2
I-1
tp3097
sbag1
(g15
g3
Ntp3098
Rp3099
(dp3100
g19
(I1
I-1
tp3101
sbag1
(g15
g3
Ntp3102
Rp3103
(dp3104
g19
(I1
I-2
tp3105
sbag1
(g15
g3
Ntp3106
Rp3107
(dp3108
g19
(I0
I-2
tp3109
sbag1
(g15
g3
Ntp3110
Rp3111
(dp3112
g19
(I0
I-1
tp3113
sbag1
(g15
g3
Ntp3114
Rp3115
(dp3116
g19
(I-1
I-1
tp3117
sbag1
(g15
g3
Ntp3118
Rp3119
(dp3120
g19
(I-1
I0
tp3121
sbasg65
I12
sg66
S'HHPH'
p3122
sg68
g2963
sg70
Nsg71
g72
sbag1
(g2
g3
Ntp3123
Rp3124
(dp3125
g7
I3
sg8
S'PHPPPPHPPHH'
p3126
sg10
I01
sg11
I7
sg12
I00
sg13
(lp3127
g1
(g15
g3
Ntp3128
Rp3129
(dp3130
g19
g20
sbag1
(g15
g3
Ntp3131
Rp3132
(dp3133
g19
(I0
I1
tp3134
sbag1
(g15
g3
Ntp3135
Rp3136
(dp3137
g19
(I1
I1
tp3138
sbag1
(g15
g3
Ntp3139
Rp3140
(dp3141
g19
(I2
I1
tp3142
sbag1
(g15
g3
Ntp3143
Rp3144
(dp3145
g19
(I2
I2
tp3146
sbag1
(g15
g3
Ntp3147
Rp3148
(dp3149
g19
(I1
I2
tp3150
sbag1
(g15
g3
Ntp3151
Rp3152
(dp3153
g19
(I0
I2
tp3154
sbag1
(g15
g3
Ntp3155
Rp3156
(dp3157
g19
(I0
I3
tp3158
sbag1
(g15
g3
Ntp3159
Rp3160
(dp3161
g19
(I-1
I3
tp3162
sbag1
(g15
g3
Ntp3163
Rp3164
(dp3165
g19
(I-1
I2
tp3166
sbag1
(g15
g3
Ntp3167
Rp3168
(dp3169
g19
(I-1
I1
tp3170
sbasg65
I11
sg66
S'HHPP'
p3171
sg68
S'URRULLULDD'
p3172
sg70
Nsg71
g72
sbag1
(g2
g3
Ntp3173
Rp3174
(dp3175
g7
I3
sg8
S'PHPPPPHPHHH'
p3176
sg10
I01
sg11
I7
sg12
I00
sg13
(lp3177
g1
(g15
g3
Ntp3178
Rp3179
(dp3180
g19
g20
sbag1
(g15
g3
Ntp3181
Rp3182
(dp3183
g19
(I0
I1
tp3184
sbag1
(g15
g3
Ntp3185
Rp3186
(dp3187
g19
(I1
I1
tp3188
sbag1
(g15
g3
Ntp3189
Rp3190
(dp3191
g19
(I2
I1
tp3192
sbag1
(g15
g3
Ntp3193
Rp3194
(dp3195
g19
(I2
I2
tp3196
sbag1
(g15
g3
Ntp3197
Rp3198
(dp3199
g19
(I1
I2
tp3200
sbag1
(g15
g3
Ntp3201
Rp3202
(dp3203
g19
(I0
I2
tp3204
sbag1
(g15
g3
Ntp3205
Rp3206
(dp3207
g19
(I0
I3
tp3208
sbag1
(g15
g3
Ntp3209
Rp3210
(dp3211
g19
(I-1
I3
tp3212
sbag1
(g15
g3
Ntp3213
Rp3214
(dp3215
g19
(I-1
I2
tp3216
sbag1
(g15
g3
Ntp3217
Rp3218
(dp3219
g19
(I-1
I1
tp3220
sbasg65
I11
sg66
S'HHHPH'
p3221
sg68
g3172
sg70
Nsg71
g72
sbag1
(g2
g3
Ntp3222
Rp3223
(dp3224
g7
I3
sg8
S'HPPHPPPPPHH'
p3225
sg10
I01
sg11
I7
sg12
I00
sg13
(lp3226
g1
(g15
g3
Ntp3227
Rp3228
(dp3229
g19
g20
sbag1
(g15
g3
Ntp3230
Rp3231
(dp3232
g19
(I0
I1
tp3233
sbag1
(g15
g3
Ntp3234
Rp3235
(dp3236
g19
(I1
I1
tp3237
sbag1
(g15
g3
Ntp3238
Rp3239
(dp3240
g19
(I1
I0
tp3241
sbag1
(g15
g3
Ntp3242
Rp3243
(dp3244
g19
(I2
I0
tp3245
sbag1
(g15
g3
Ntp3246
Rp3247
(dp3248
g19
(I2
I-1
tp3249
sbag1
(g15
g3
Ntp3250
Rp3251
(dp3252
g19
(I2
I-2
tp3253
sbag1
(g15
g3
Ntp3254
Rp3255
(dp3256
g19
(I1
I-2
tp3257
sbag1
(g15
g3
Ntp3258
Rp3259
(dp3260
g19
(I0
I-2
tp3261
sbag1
(g15
g3
Ntp3262
Rp3263
(dp3264
g19
(I0
I-1
tp3265
sbag1
(g15
g3
Ntp3266
Rp3267
(dp3268
g19
(I1
I-1
tp3269
sbasg65
I11
sg66
S'HHPP'
p3270
sg68
S'URDRDDLLUR'
p3271
sg70
Nsg71
g72
sbag1
(g2
g3
Ntp3272
Rp3273
(dp3274
g7
I4
sg8
S'HPPHPHPPPHH'
p3275
sg10
I01
sg11
I7
sg12
I00
sg13
(lp3276
g1
(g15
g3
Ntp3277
Rp3278
(dp3279
g19
g20
sbag1
(g15
g3
Ntp3280
Rp3281
(dp3282
g19
(I0
I1
tp3283
sbag1
(g15
g3
Ntp3284
Rp3285
(dp3286
g19
(I1
I1
tp3287
sbag1
(g15
g3
Ntp3288
Rp3289
(dp3290
g19
(I1
I0
tp3291
sbag1
(g15
g3
Ntp3292
Rp3293
(dp3294
g19
(I2
I0
tp3295
sbag1
(g15
g3
Ntp3296
Rp3297
(dp3298
g19
(I2
I-1
tp3299
sbag1
(g15
g3
Ntp3300
Rp3301
(dp3302
g19
(I2
I-2
tp3303
sbag1
(g15
g3
Ntp3304
Rp3305
(dp3306
g19
(I1
I-2
tp3307
sbag1
(g15
g3
Ntp3308
Rp3309
(dp3310
g19
(I0
I-2
tp3311
sbag1
(g15
g3
Ntp3312
Rp3313
(dp3314
g19
(I0
I-1
tp3315
sbag1
(g15
g3
Ntp3316
Rp3317
(dp3318
g19
(I1
I-1
tp3319
sbasg65
I11
sg66
S'HHPP'
p3320
sg68
g3271
sg70
Nsg71
g72
sbag1
(g2
g3
Ntp3321
Rp3322
(dp3323
g7
I4
sg8
S'HPPHPPPHPHH'
p3324
sg10
I01
sg11
I7
sg12
I00
sg13
(lp3325
g1
(g15
g3
Ntp3326
Rp3327
(dp3328
g19
g20
sbag1
(g15
g3
Ntp3329
Rp3330
(dp3331
g19
(I0
I1
tp3332
sbag1
(g15
g3
Ntp3333
Rp3334
(dp3335
g19
(I1
I1
tp3336
sbag1
(g15
g3
Ntp3337
Rp3338
(dp3339
g19
(I1
I0
tp3340
sbag1
(g15
g3
Ntp3341
Rp3342
(dp3343
g19
(I2
I0
tp3344
sbag1
(g15
g3
Ntp3345
Rp3346
(dp3347
g19
(I2
I-1
tp3348
sbag1
(g15
g3
Ntp3349
Rp3350
(dp3351
g19
(I2
I-2
tp3352
sbag1
(g15
g3
Ntp3353
Rp3354
(dp3355
g19
(I1
I-2
tp3356
sbag1
(g15
g3
Ntp3357
Rp3358
(dp3359
g19
(I0
I-2
tp3360
sbag1
(g15
g3
Ntp3361
Rp3362
(dp3363
g19
(I0
I-1
tp3364
sbag1
(g15
g3
Ntp3365
Rp3366
(dp3367
g19
(I1
I-1
tp3368
sbasg65
I11
sg66
S'HHPP'
p3369
sg68
g3271
sg70
Nsg71
g72
sbag1
(g2
g3
Ntp3370
Rp3371
(dp3372
g7
I5
sg8
S'HPPHPHPHPHH'
p3373
sg10
I01
sg11
I7
sg12
I00
sg13
(lp3374
g1
(g15
g3
Ntp3375
Rp3376
(dp3377
g19
g20
sbag1
(g15
g3
Ntp3378
Rp3379
(dp3380
g19
(I0
I1
tp3381
sbag1
(g15
g3
Ntp3382
Rp3383
(dp3384
g19
(I1
I1
tp3385
sbag1
(g15
g3
Ntp3386
Rp3387
(dp3388
g19
(I1
I0
tp3389
sbag1
(g15
g3
Ntp3390
Rp3391
(dp3392
g19
(I2
I0
tp3393
sbag1
(g15
g3
Ntp3394
Rp3395
(dp3396
g19
(I2
I-1
tp3397
sbag1
(g15
g3
Ntp3398
Rp3399
(dp3400
g19
(I2
I-2
tp3401
sbag1
(g15
g3
Ntp3402
Rp3403
(dp3404
g19
(I1
I-2
tp3405
sbag1
(g15
g3
Ntp3406
Rp3407
(dp3408
g19
(I0
I-2
tp3409
sbag1
(g15
g3
Ntp3410
Rp3411
(dp3412
g19
(I0
I-1
tp3413
sbag1
(g15
g3
Ntp3414
Rp3415
(dp3416
g19
(I1
I-1
tp3417
sbasg65
I11
sg66
S'HHPP'
p3418
sg68
g3271
sg70
Nsg71
g72
sbag1
(g2
g3
Ntp3419
Rp3420
(dp3421
g7
I5
sg8
S'HPHHPPPHHHHH'
p3422
sg10
I01
sg11
I8
sg12
I01
sg13
(lp3423
g1
(g15
g3
Ntp3424
Rp3425
(dp3426
g19
g20
sbag1
(g15
g3
Ntp3427
Rp3428
(dp3429
g19
(I0
I1
tp3430
sbag1
(g15
g3
Ntp3431
Rp3432
(dp3433
g19
(I1
I1
tp3434
sbag1
(g15
g3
Ntp3435
Rp3436
(dp3437
g19
(I2
I1
tp3438
sbag1
(g15
g3
Ntp3439
Rp3440
(dp3441
g19
(I3
I1
tp3442
sbag1
(g15
g3
Ntp3443
Rp3444
(dp3445
g19
(I3
I0
tp3446
sbag1
(g15
g3
Ntp3447
Rp3448
(dp3449
g19
(I3
I-1
tp3450
sbag1
(g15
g3
Ntp3451
Rp3452
(dp3453
g19
(I2
I-1
tp3454
sbag1
(g15
g3
Ntp3455
Rp3456
(dp3457
g19
(I2
I0
tp3458
sbag1
(g15
g3
Ntp3459
Rp3460
(dp3461
g19
(I1
I0
tp3462
sbag1
(g15
g3
Ntp3463
Rp3464
(dp3465
g19
(I1
I-1
tp3466
sbag1
(g15
g3
Ntp3467
Rp3468
(dp3469
g19
(I0
I-1
tp3470
sbasg65
I12
sg66
S'HHHPP'
p3471
sg68
S'URRRDDLULDL'
p3472
sg70
(I12
S'HHPP'
p3473
g3471
tp3474
sg71
g3473
sbag1
(g2
g3
Ntp3475
Rp3476
(dp3477
g7
I6
sg8
S'HPHHPHPHHHHH'
p3478
sg10
I01
sg11
I9
sg12
I01
sg13
(lp3479
g1
(g15
g3
Ntp3480
Rp3481
(dp3482
g19
g20
sbag1
(g15
g3
Ntp3483
Rp3484
(dp3485
g19
(I0
I1
tp3486
sbag1
(g15
g3
Ntp3487
Rp3488
(dp3489
g19
(I1
I1
tp3490
sbag1
(g15
g3
Ntp3491
Rp3492
(dp3493
g19
(I2
I1
tp3494
sbag1
(g15
g3
Ntp3495
Rp3496
(dp3497
g19
(I3
I1
tp3498
sbag1
(g15
g3
Ntp3499
Rp3500
(dp3501
g19
(I3
I0
tp3502
sbag1
(g15
g3
Ntp3503
Rp3504
(dp3505
g19
(I3
I-1
tp3506
sbag1
(g15
g3
Ntp3507
Rp3508
(dp3509
g19
(I2
I-1
tp3510
sbag1
(g15
g3
Ntp3511
Rp3512
(dp3513
g19
(I2
I0
tp3514
sbag1
(g15
g3
Ntp3515
Rp3516
(dp3517
g19
(I1
I0
tp3518
sbag1
(g15
g3
Ntp3519
Rp3520
(dp3521
g19
(I1
I-1
tp3522
sbag1
(g15
g3
Ntp3523
Rp3524
(dp3525
g19
(I0
I-1
tp3526
sbasg65
I12
sg66
S'HHHPP'
p3527
sg68
g3472
sg70
(I12
S'HHPH'
p3528
g3527
tp3529
sg71
g3528
sbag1
(g2
g3
Ntp3530
Rp3531
(dp3532
g7
I6
sg8
S'HPHHPHHHHHHH'
p3533
sg10
I01
sg11
I10
sg12
I01
sg13
(lp3534
g1
(g15
g3
Ntp3535
Rp3536
(dp3537
g19
g20
sbag1
(g15
g3
Ntp3538
Rp3539
(dp3540
g19
(I0
I1
tp3541
sbag1
(g15
g3
Ntp3542
Rp3543
(dp3544
g19
(I1
I1
tp3545
sbag1
(g15
g3
Ntp3546
Rp3547
(dp3548
g19
(I2
I1
tp3549
sbag1
(g15
g3
Ntp3550
Rp3551
(dp3552
g19
(I3
I1
tp3553
sbag1
(g15
g3
Ntp3554
Rp3555
(dp3556
g19
(I3
I0
tp3557
sbag1
(g15
g3
Ntp3558
Rp3559
(dp3560
g19
(I3
I-1
tp3561
sbag1
(g15
g3
Ntp3562
Rp3563
(dp3564
g19
(I2
I-1
tp3565
sbag1
(g15
g3
Ntp3566
Rp3567
(dp3568
g19
(I2
I0
tp3569
sbag1
(g15
g3
Ntp3570
Rp3571
(dp3572
g19
(I1
I0
tp3573
sbag1
(g15
g3
Ntp3574
Rp3575
(dp3576
g19
(I1
I-1
tp3577
sbag1
(g15
g3
Ntp3578
Rp3579
(dp3580
g19
(I0
I-1
tp3581
sbasg65
I12
sg66
S'HHHHPHH'
p3582
sg68
g3472
sg70
(I12
S'HHPHH'
p3583
g3582
tp3584
sg71
g3583
sbag1
(g2
g3
Ntp3585
Rp3586
(dp3587
g7
I5
sg8
S'HPPHPHPHPPHH'
p3588
sg10
I00
sg11
I10
sg12
I00
sg13
(lp3589
g1
(g15
g3
Ntp3590
Rp3591
(dp3592
g19
g20
sbag1
(g15
g3
Ntp3593
Rp3594
(dp3595
g19
(I0
I1
tp3596
sbag1
(g15
g3
Ntp3597
Rp3598
(dp3599
g19
(I1
I1
tp3600
sbag1
(g15
g3
Ntp3601
Rp3602
(dp3603
g19
(I1
I0
tp3604
sbag1
(g15
g3
Ntp3605
Rp3606
(dp3607
g19
(I1
I-1
tp3608
sbag1
(g15
g3
Ntp3609
Rp3610
(dp3611
g19
(I0
I-1
tp3612
sbag1
(g15
g3
Ntp3613
Rp3614
(dp3615
g19
(I0
I-2
tp3616
sbag1
(g15
g3
Ntp3617
Rp3618
(dp3619
g19
(I-1
I-2
tp3620
sbag1
(g15
g3
Ntp3621
Rp3622
(dp3623
g19
(I-2
I-2
tp3624
sbag1
(g15
g3
Ntp3625
Rp3626
(dp3627
g19
(I-2
I-1
tp3628
sbag1
(g15
g3
Ntp3629
Rp3630
(dp3631
g19
(I-1
I-1
tp3632
sbag1
(g15
g3
Ntp3633
Rp3634
(dp3635
g19
(I-1
I0
tp3636
sbasg65
I12
sg66
g72
sg68
S'URDDLDLLURU'
p3637
sg70
Nsg71
g72
sbag1
(g2
g3
Ntp3638
Rp3639
(dp3640
g7
I5
sg8
S'HPPHPHPHPHHH'
p3641
sg10
I00
sg11
I10
sg12
I00
sg13
(lp3642
g1
(g15
g3
Ntp3643
Rp3644
(dp3645
g19
g20
sbag1
(g15
g3
Ntp3646
Rp3647
(dp3648
g19
(I0
I1
tp3649
sbag1
(g15
g3
Ntp3650
Rp3651
(dp3652
g19
(I1
I1
tp3653
sbag1
(g15
g3
Ntp3654
Rp3655
(dp3656
g19
(I1
I0
tp3657
sbag1
(g15
g3
Ntp3658
Rp3659
(dp3660
g19
(I1
I-1
tp3661
sbag1
(g15
g3
Ntp3662
Rp3663
(dp3664
g19
(I0
I-1
tp3665
sbag1
(g15
g3
Ntp3666
Rp3667
(dp3668
g19
(I0
I-2
tp3669
sbag1
(g15
g3
Ntp3670
Rp3671
(dp3672
g19
(I-1
I-2
tp3673
sbag1
(g15
g3
Ntp3674
Rp3675
(dp3676
g19
(I-2
I-2
tp3677
sbag1
(g15
g3
Ntp3678
Rp3679
(dp3680
g19
(I-2
I-1
tp3681
sbag1
(g15
g3
Ntp3682
Rp3683
(dp3684
g19
(I-1
I-1
tp3685
sbag1
(g15
g3
Ntp3686
Rp3687
(dp3688
g19
(I-1
I0
tp3689
sbasg65
I12
sg66
g72
sg68
g3637
sg70
Nsg71
g72
sbag1
(g2
g3
Ntp3690
Rp3691
(dp3692
g7
I3
sg8
S'HHPPHPPPPHP'
p3693
sg10
I01
sg11
I11
sg12
I01
sg13
(lp3694
g1
(g15
g3
Ntp3695
Rp3696
(dp3697
g19
g20
sbag1
(g15
g3
Ntp3698
Rp3699
(dp3700
g19
(I0
I1
tp3701
sbag1
(g15
g3
Ntp3702
Rp3703
(dp3704
g19
(I0
I2
tp3705
sbag1
(g15
g3
Ntp3706
Rp3707
(dp3708
g19
(I1
I2
tp3709
sbag1
(g15
g3
Ntp3710
Rp3711
(dp3712
g19
(I1
I1
tp3713
sbag1
(g15
g3
Ntp3714
Rp3715
(dp3716
g19
(I2
I1
tp3717
sbag1
(g15
g3
Ntp3718
Rp3719
(dp3720
g19
(I3
I1
tp3721
sbag1
(g15
g3
Ntp3722
Rp3723
(dp3724
g19
(I3
I0
tp3725
sbag1
(g15
g3
Ntp3726
Rp3727
(dp3728
g19
(I2
I0
tp3729
sbag1
(g15
g3
Ntp3730
Rp3731
(dp3732
g19
(I1
I0
tp3733
sbag1
(g15
g3
Ntp3734
Rp3735
(dp3736
g19
(I1
I-1
tp3737
sbasg65
I11
sg66
S'HHPH'
p3738
sg68
S'UURDRRDLLD'
p3739
sg70
(I11
S'HHPP'
p3740
g3738
tp3741
sg71
g3740
sbag1
(g2
g3
Ntp3742
Rp3743
(dp3744
g7
I3
sg8
S'HHHPHPPPPHP'
p3745
sg10
I01
sg11
I12
sg12
I01
sg13
(lp3746
g1
(g15
g3
Ntp3747
Rp3748
(dp3749
g19
g20
sbag1
(g15
g3
Ntp3750
Rp3751
(dp3752
g19
(I0
I1
tp3753
sbag1
(g15
g3
Ntp3754
Rp3755
(dp3756
g19
(I0
I2
tp3757
sbag1
(g15
g3
Ntp3758
Rp3759
(dp3760
g19
(I1
I2
tp3761
sbag1
(g15
g3
Ntp3762
Rp3763
(dp3764
g19
(I1
I1
tp3765
sbag1
(g15
g3
Ntp3766
Rp3767
(dp3768
g19
(I2
I1
tp3769
sbag1
(g15
g3
Ntp3770
Rp3771
(dp3772
g19
(I3
I1
tp3773
sbag1
(g15
g3
Ntp3774
Rp3775
(dp3776
g19
(I3
I0
tp3777
sbag1
(g15
g3
Ntp3778
Rp3779
(dp3780
g19
(I2
I0
tp3781
sbag1
(g15
g3
Ntp3782
Rp3783
(dp3784
g19
(I1
I0
tp3785
sbag1
(g15
g3
Ntp3786
Rp3787
(dp3788
g19
(I1
I-1
tp3789
sbasg65
I11
sg66
S'HHHPH'
p3790
sg68
g3739
sg70
(I11
S'HHHPH'
p3791
g3790
tp3792
sg71
g3791
sbag1
(g2
g3
Ntp3793
Rp3794
(dp3795
g7
I2
sg8
S'HPHPPHP'
p3796
sg10
I00
sg11
I12
sg12
I00
sg13
(lp3797
g1
(g15
g3
Ntp3798
Rp3799
(dp3800
g19
g20
sbag1
(g15
g3
Ntp3801
Rp3802
(dp3803
g19
(I0
I1
tp3804
sbag1
(g15
g3
Ntp3805
Rp3806
(dp3807
g19
(I1
I1
tp3808
sbag1
(g15
g3
Ntp3809
Rp3810
(dp3811
g19
(I2
I1
tp3812
sbag1
(g15
g3
Ntp3813
Rp3814
(dp3815
g19
(I2
I0
tp3816
sbag1
(g15
g3
Ntp3817
Rp3818
(dp3819
g19
(I1
I0
tp3820
sbag1
(g15
g3
Ntp3821
Rp3822
(dp3823
g19
(I1
I-1
tp3824
sbasg65
I7
sg66
g72
sg68
S'URRDLD'
p3825
sg70
Nsg71
g72
sbag1
(g2
g3
Ntp3826
Rp3827
(dp3828
g7
I2
sg8
S'HHHPPHP'
p3829
sg10
I01
sg11
I13
sg12
I01
sg13
(lp3830
g1
(g15
g3
Ntp3831
Rp3832
(dp3833
g19
g20
sbag1
(g15
g3
Ntp3834
Rp3835
(dp3836
g19
(I0
I1
tp3837
sbag1
(g15
g3
Ntp3838
Rp3839
(dp3840
g19
(I1
I1
tp3841
sbag1
(g15
g3
Ntp3842
Rp3843
(dp3844
g19
(I2
I1
tp3845
sbag1
(g15
g3
Ntp3846
Rp3847
(dp3848
g19
(I2
I0
tp3849
sbag1
(g15
g3
Ntp3850
Rp3851
(dp3852
g19
(I1
I0
tp3853
sbag1
(g15
g3
Ntp3854
Rp3855
(dp3856
g19
(I1
I-1
tp3857
sbasg65
I7
sg66
S'HHPHH'
p3858
sg68
g3825
sg70
(I7
S'HHHPP'
p3859
g3858
tp3860
sg71
g3859
sbag1
(g2
g3
Ntp3861
Rp3862
(dp3863
g7
I2
sg8
S'HPHPHHP'
p3864
sg10
I00
sg11
I13
sg12
I00
sg13
(lp3865
g1
(g15
g3
Ntp3866
Rp3867
(dp3868
g19
g20
sbag1
(g15
g3
Ntp3869
Rp3870
(dp3871
g19
(I0
I1
tp3872
sbag1
(g15
g3
Ntp3873
Rp3874
(dp3875
g19
(I1
I1
tp3876
sbag1
(g15
g3
Ntp3877
Rp3878
(dp3879
g19
(I2
I1
tp3880
sbag1
(g15
g3
Ntp3881
Rp3882
(dp3883
g19
(I2
I0
tp3884
sbag1
(g15
g3
Ntp3885
Rp3886
(dp3887
g19
(I1
I0
tp3888
sbag1
(g15
g3
Ntp3889
Rp3890
(dp3891
g19
(I1
I-1
tp3892
sbasg65
I7
sg66
g72
sg68
g3825
sg70
Nsg71
g72
sbag1
(g2
g3
Ntp3893
Rp3894
(dp3895
g7
I2
sg8
S'HPHPPHH'
p3896
sg10
I00
sg11
I13
sg12
I00
sg13
(lp3897
g1
(g15
g3
Ntp3898
Rp3899
(dp3900
g19
g20
sbag1
(g15
g3
Ntp3901
Rp3902
(dp3903
g19
(I0
I1
tp3904
sbag1
(g15
g3
Ntp3905
Rp3906
(dp3907
g19
(I1
I1
tp3908
sbag1
(g15
g3
Ntp3909
Rp3910
(dp3911
g19
(I2
I1
tp3912
sbag1
(g15
g3
Ntp3913
Rp3914
(dp3915
g19
(I2
I0
tp3916
sbag1
(g15
g3
Ntp3917
Rp3918
(dp3919
g19
(I1
I0
tp3920
sbag1
(g15
g3
Ntp3921
Rp3922
(dp3923
g19
(I1
I-1
tp3924
sbasg65
I7
sg66
g72
sg68
g3825
sg70
Nsg71
g72
sbag1
(g2
g3
Ntp3925
Rp3926
(dp3927
g7
I2
sg8
S'HPHPHHH'
p3928
sg10
I00
sg11
I13
sg12
I00
sg13
(lp3929
g1
(g15
g3
Ntp3930
Rp3931
(dp3932
g19
g20
sbag1
(g15
g3
Ntp3933
Rp3934
(dp3935
g19
(I0
I1
tp3936
sbag1
(g15
g3
Ntp3937
Rp3938
(dp3939
g19
(I1
I1
tp3940
sbag1
(g15
g3
Ntp3941
Rp3942
(dp3943
g19
(I2
I1
tp3944
sbag1
(g15
g3
Ntp3945
Rp3946
(dp3947
g19
(I2
I0
tp3948
sbag1
(g15
g3
Ntp3949
Rp3950
(dp3951
g19
(I1
I0
tp3952
sbag1
(g15
g3
Ntp3953
Rp3954
(dp3955
g19
(I1
I-1
tp3956
sbasg65
I7
sg66
g72
sg68
g3825
sg70
Nsg71
g72
sbag1
(g2
g3
Ntp3957
Rp3958
(dp3959
g7
I1
sg8
S'HPPH'
p3960
sg10
I01
sg11
I13
sg12
I00
sg13
(lp3961
g1
(g15
g3
Ntp3962
Rp3963
(dp3964
g19
g20
sbag1
(g15
g3
Ntp3965
Rp3966
(dp3967
g19
(I0
I1
tp3968
sbag1
(g15
g3
Ntp3969
Rp3970
(dp3971
g19
(I1
I1
tp3972
sbag1
(g15
g3
Ntp3973
Rp3974
(dp3975
g19
(I1
I0
tp3976
sbasg65
I4
sg66
S'HHPH'
p3977
sg68
S'URD'
p3978
sg70
Nsg71
g72
sbag1
(g2
g3
Ntp3979
Rp3980
(dp3981
g7
I1
sg8
S'HHPH'
p3982
sg10
I01
sg11
I14
sg12
I01
sg13
(lp3983
g1
(g15
g3
Ntp3984
Rp3985
(dp3986
g19
g20
sbag1
(g15
g3
Ntp3987
Rp3988
(dp3989
g19
(I0
I1
tp3990
sbag1
(g15
g3
Ntp3991
Rp3992
(dp3993
g19
(I1
I1
tp3994
sbag1
(g15
g3
Ntp3995
Rp3996
(dp3997
g19
(I1
I0
tp3998
sbasg65
I4
sg66
S'HHPHH'
p3999
sg68
g3978
sg70
(I4
S'HHPH'
p4000
g3999
tp4001
sg71
g4000
sbag1
(g2
g3
Ntp4002
Rp4003
(dp4004
g7
I1
sg8
S'HPHH'
p4005
sg10
I01
sg11
I14
sg12
I00
sg13
(lp4006
g1
(g15
g3
Ntp4007
Rp4008
(dp4009
g19
g20
sbag1
(g15
g3
Ntp4010
Rp4011
(dp4012
g19
(I0
I1
tp4013
sbag1
(g15
g3
Ntp4014
Rp4015
(dp4016
g19
(I1
I1
tp4017
sbag1
(g15
g3
Ntp4018
Rp4019
(dp4020
g19
(I1
I0
tp4021
sbasg65
I4
sg66
S'HHPHH'
p4022
sg68
g3978
sg70
Nsg71
g72
sbag1
(g2
g3
Ntp4023
Rp4024
(dp4025
g7
I1
sg8
S'HHHH'
p4026
sg10
I01
sg11
I14
sg12
I00
sg13
(lp4027
g1
(g15
g3
Ntp4028
Rp4029
(dp4030
g19
g20
sbag1
(g15
g3
Ntp4031
Rp4032
(dp4033
g19
(I0
I1
tp4034
sbag1
(g15
g3
Ntp4035
Rp4036
(dp4037
g19
(I1
I1
tp4038
sbag1
(g15
g3
Ntp4039
Rp4040
(dp4041
g19
(I1
I0
tp4042
sbasg65
I4
sg66
S'HHPHH'
p4043
sg68
g3978
sg70
Nsg71
g72
sbag1
(g2
g3
Ntp4044
Rp4045
(dp4046
g7
I2
sg8
S'HHPPHH'
p4047
sg10
I01
sg11
I15
sg12
I01
sg13
(lp4048
g1
(g15
g3
Ntp4049
Rp4050
(dp4051
g19
g20
sbag1
(g15
g3
Ntp4052
Rp4053
(dp4054
g19
(I0
I1
tp4055
sbag1
(g15
g3
Ntp4056
Rp4057
(dp4058
g19
(I0
I2
tp4059
sbag1
(g15
g3
Ntp4060
Rp4061
(dp4062
g19
(I1
I2
tp4063
sbag1
(g15
g3
Ntp4064
Rp4065
(dp4066
g19
(I1
I1
tp4067
sbag1
(g15
g3
Ntp4068
Rp4069
(dp4070
g19
(I1
I0
tp4071
sbasg65
I6
sg66
S'HHPHH'
p4072
sg68
S'UURDD'
p4073
sg70
(I6
S'HHPP'
p4074
g4072
tp4075
sg71
g4074
sbag1
(g2
g3
Ntp4076
Rp4077
(dp4078
g7
I4
sg8
S'HHPPPHHPPPHH'
p4079
sg10
I01
sg11
I16
sg12
I01
sg13
(lp4080
g1
(g15
g3
Ntp4081
Rp4082
(dp4083
g19
g20
sbag1
(g15
g3
Ntp4084
Rp4085
(dp4086
g19
(I0
I1
tp4087
sbag1
(g15
g3
Ntp4088
Rp4089
(dp4090
g19
(I1
I1
tp4091
sbag1
(g15
g3
Ntp4092
Rp4093
(dp4094
g19
(I1
I0
tp4095
sbag1
(g15
g3
Ntp4096
Rp4097
(dp4098
g19
(I1
I-1
tp4099
sbag1
(g15
g3
Ntp4100
Rp4101
(dp4102
g19
(I0
I-1
tp4103
sbag1
(g15
g3
Ntp4104
Rp4105
(dp4106
g19
(I-1
I-1
tp4107
sbag1
(g15
g3
Ntp4108
Rp4109
(dp4110
g19
(I-2
I-1
tp4111
sbag1
(g15
g3
Ntp4112
Rp4113
(dp4114
g19
(I-2
I0
tp4115
sbag1
(g15
g3
Ntp4116
Rp4117
(dp4118
g19
(I-2
I1
tp4119
sbag1
(g15
g3
Ntp4120
Rp4121
(dp4122
g19
(I-1
I1
tp4123
sbag1
(g15
g3
Ntp4124
Rp4125
(dp4126
g19
(I-1
I0
tp4127
sbasg65
I12
sg66
S'HHPP'
p4128
sg68
S'URDDLLLUURD'
p4129
sg70
(I12
S'HHPP'
p4130
g4128
tp4131
sg71
g4130
sbag1
(g2
g3
Ntp4132
Rp4133
(dp4134
g7
I5
sg8
S'HHPHPHHPPPHH'
p4135
sg10
I01
sg11
I17
sg12
I01
sg13
(lp4136
g1
(g15
g3
Ntp4137
Rp4138
(dp4139
g19
g20
sbag1
(g15
g3
Ntp4140
Rp4141
(dp4142
g19
(I0
I1
tp4143
sbag1
(g15
g3
Ntp4144
Rp4145
(dp4146
g19
(I1
I1
tp4147
sbag1
(g15
g3
Ntp4148
Rp4149
(dp4150
g19
(I1
I0
tp4151
sbag1
(g15
g3
Ntp4152
Rp4153
(dp4154
g19
(I1
I-1
tp4155
sbag1
(g15
g3
Ntp4156
Rp4157
(dp4158
g19
(I0
I-1
tp4159
sbag1
(g15
g3
Ntp4160
Rp4161
(dp4162
g19
(I-1
I-1
tp4163
sbag1
(g15
g3
Ntp4164
Rp4165
(dp4166
g19
(I-2
I-1
tp4167
sbag1
(g15
g3
Ntp4168
Rp4169
(dp4170
g19
(I-2
I0
tp4171
sbag1
(g15
g3
Ntp4172
Rp4173
(dp4174
g19
(I-2
I1
tp4175
sbag1
(g15
g3
Ntp4176
Rp4177
(dp4178
g19
(I-1
I1
tp4179
sbag1
(g15
g3
Ntp4180
Rp4181
(dp4182
g19
(I-1
I0
tp4183
sbasg65
I12
sg66
S'HHPP'
p4184
sg68
g4129
sg70
(I12
S'HHPH'
p4185
g4184
tp4186
sg71
g4185
sbag1
(g2
g3
Ntp4187
Rp4188
(dp4189
g7
I5
sg8
S'HHPPPHHPHPHH'
p4190
sg10
I01
sg11
I18
sg12
I01
sg13
(lp4191
g1
(g15
g3
Ntp4192
Rp4193
(dp4194
g19
g20
sbag1
(g15
g3
Ntp4195
Rp4196
(dp4197
g19
(I0
I1
tp4198
sbag1
(g15
g3
Ntp4199
Rp4200
(dp4201
g19
(I1
I1
tp4202
sbag1
(g15
g3
Ntp4203
Rp4204
(dp4205
g19
(I1
I0
tp4206
sbag1
(g15
g3
Ntp4207
Rp4208
(dp4209
g19
(I1
I-1
tp4210
sbag1
(g15
g3
Ntp4211
Rp4212
(dp4213
g19
(I0
I-1
tp4214
sbag1
(g15
g3
Ntp4215
Rp4216
(dp4217
g19
(I-1
I-1
tp4218
sbag1
(g15
g3
Ntp4219
Rp4220
(dp4221
g19
(I-2
I-1
tp4222
sbag1
(g15
g3
Ntp4223
Rp4224
(dp4225
g19
(I-2
I0
tp4226
sbag1
(g15
g3
Ntp4227
Rp4228
(dp4229
g19
(I-2
I1
tp4230
sbag1
(g15
g3
Ntp4231
Rp4232
(dp4233
g19
(I-1
I1
tp4234
sbag1
(g15
g3
Ntp4235
Rp4236
(dp4237
g19
(I-1
I0
tp4238
sbasg65
I12
sg66
S'HHPP'
p4239
sg68
g4129
sg70
(I12
S'HHPH'
p4240
g4239
tp4241
sg71
g4240
sbag1
(g2
g3
Ntp4242
Rp4243
(dp4244
g7
I6
sg8
S'HHPHPHHPHPHH'
p4245
sg10
I01
sg11
I19
sg12
I01
sg13
(lp4246
g1
(g15
g3
Ntp4247
Rp4248
(dp4249
g19
g20
sbag1
(g15
g3
Ntp4250
Rp4251
(dp4252
g19
(I0
I1
tp4253
sbag1
(g15
g3
Ntp4254
Rp4255
(dp4256
g19
(I1
I1
tp4257
sbag1
(g15
g3
Ntp4258
Rp4259
(dp4260
g19
(I1
I0
tp4261
sbag1
(g15
g3
Ntp4262
Rp4263
(dp4264
g19
(I1
I-1
tp4265
sbag1
(g15
g3
Ntp4266
Rp4267
(dp4268
g19
(I0
I-1
tp4269
sbag1
(g15
g3
Ntp4270
Rp4271
(dp4272
g19
(I-1
I-1
tp4273
sbag1
(g15
g3
Ntp4274
Rp4275
(dp4276
g19
(I-2
I-1
tp4277
sbag1
(g15
g3
Ntp4278
Rp4279
(dp4280
g19
(I-2
I0
tp4281
sbag1
(g15
g3
Ntp4282
Rp4283
(dp4284
g19
(I-2
I1
tp4285
sbag1
(g15
g3
Ntp4286
Rp4287
(dp4288
g19
(I-1
I1
tp4289
sbag1
(g15
g3
Ntp4290
Rp4291
(dp4292
g19
(I-1
I0
tp4293
sbasg65
I12
sg66
S'HHPP'
p4294
sg68
g4129
sg70
(I12
S'HHPH'
p4295
g4294
tp4296
sg71
g4295
sbag1
(g2
g3
Ntp4297
Rp4298
(dp4299
g7
I4
sg8
S'HPPPHHPPPHHH'
p4300
sg10
I01
sg11
I20
sg12
I01
sg13
(lp4301
g1
(g15
g3
Ntp4302
Rp4303
(dp4304
g19
g20
sbag1
(g15
g3
Ntp4305
Rp4306
(dp4307
g19
(I0
I1
tp4308
sbag1
(g15
g3
Ntp4309
Rp4310
(dp4311
g19
(I1
I1
tp4312
sbag1
(g15
g3
Ntp4313
Rp4314
(dp4315
g19
(I2
I1
tp4316
sbag1
(g15
g3
Ntp4317
Rp4318
(dp4319
g19
(I2
I0
tp4320
sbag1
(g15
g3
Ntp4321
Rp4322
(dp4323
g19
(I2
I-1
tp4324
sbag1
(g15
g3
Ntp4325
Rp4326
(dp4327
g19
(I2
I-2
tp4328
sbag1
(g15
g3
Ntp4329
Rp4330
(dp4331
g19
(I1
I-2
tp4332
sbag1
(g15
g3
Ntp4333
Rp4334
(dp4335
g19
(I0
I-2
tp4336
sbag1
(g15
g3
Ntp4337
Rp4338
(dp4339
g19
(I0
I-1
tp4340
sbag1
(g15
g3
Ntp4341
Rp4342
(dp4343
g19
(I1
I-1
tp4344
sbag1
(g15
g3
Ntp4345
Rp4346
(dp4347
g19
(I1
I0
tp4348
sbasg65
I12
sg66
S'HHPP'
p4349
sg68
S'URRDDDLLURU'
p4350
sg70
(I12
S'HHPP'
p4351
g4349
tp4352
sg71
g4351
sbag1
(g2
g3
Ntp4353
Rp4354
(dp4355
g7
I5
sg8
S'HPHPHHPPPHHH'
p4356
sg10
I01
sg11
I21
sg12
I01
sg13
(lp4357
g1
(g15
g3
Ntp4358
Rp4359
(dp4360
g19
g20
sbag1
(g15
g3
Ntp4361
Rp4362
(dp4363
g19
(I0
I1
tp4364
sbag1
(g15
g3
Ntp4365
Rp4366
(dp4367
g19
(I1
I1
tp4368
sbag1
(g15
g3
Ntp4369
Rp4370
(dp4371
g19
(I2
I1
tp4372
sbag1
(g15
g3
Ntp4373
Rp4374
(dp4375
g19
(I2
I0
tp4376
sbag1
(g15
g3
Ntp4377
Rp4378
(dp4379
g19
(I2
I-1
tp4380
sbag1
(g15
g3
Ntp4381
Rp4382
(dp4383
g19
(I2
I-2
tp4384
sbag1
(g15
g3
Ntp4385
Rp4386
(dp4387
g19
(I1
I-2
tp4388
sbag1
(g15
g3
Ntp4389
Rp4390
(dp4391
g19
(I0
I-2
tp4392
sbag1
(g15
g3
Ntp4393
Rp4394
(dp4395
g19
(I0
I-1
tp4396
sbag1
(g15
g3
Ntp4397
Rp4398
(dp4399
g19
(I1
I-1
tp4400
sbag1
(g15
g3
Ntp4401
Rp4402
(dp4403
g19
(I1
I0
tp4404
sbasg65
I12
sg66
S'HHPP'
p4405
sg68
g4350
sg70
(I12
S'HHPP'
p4406
g4405
tp4407
sg71
g4406
sbag1
(g2
g3
Ntp4408
Rp4409
(dp4410
g7
I5
sg8
S'HPPPHHPHPHHH'
p4411
sg10
I01
sg11
I22
sg12
I01
sg13
(lp4412
g1
(g15
g3
Ntp4413
Rp4414
(dp4415
g19
g20
sbag1
(g15
g3
Ntp4416
Rp4417
(dp4418
g19
(I0
I1
tp4419
sbag1
(g15
g3
Ntp4420
Rp4421
(dp4422
g19
(I1
I1
tp4423
sbag1
(g15
g3
Ntp4424
Rp4425
(dp4426
g19
(I2
I1
tp4427
sbag1
(g15
g3
Ntp4428
Rp4429
(dp4430
g19
(I2
I0
tp4431
sbag1
(g15
g3
Ntp4432
Rp4433
(dp4434
g19
(I2
I-1
tp4435
sbag1
(g15
g3
Ntp4436
Rp4437
(dp4438
g19
(I2
I-2
tp4439
sbag1
(g15
g3
Ntp4440
Rp4441
(dp4442
g19
(I1
I-2
tp4443
sbag1
(g15
g3
Ntp4444
Rp4445
(dp4446
g19
(I0
I-2
tp4447
sbag1
(g15
g3
Ntp4448
Rp4449
(dp4450
g19
(I0
I-1
tp4451
sbag1
(g15
g3
Ntp4452
Rp4453
(dp4454
g19
(I1
I-1
tp4455
sbag1
(g15
g3
Ntp4456
Rp4457
(dp4458
g19
(I1
I0
tp4459
sbasg65
I12
sg66
S'HHPP'
p4460
sg68
g4350
sg70
(I12
S'HHPH'
p4461
g4460
tp4462
sg71
g4461
sbag1
(g2
g3
Ntp4463
Rp4464
(dp4465
g7
I6
sg8
S'HPHPHHPHPHHH'
p4466
sg10
I01
sg11
I23
sg12
I01
sg13
(lp4467
g1
(g15
g3
Ntp4468
Rp4469
(dp4470
g19
g20
sbag1
(g15
g3
Ntp4471
Rp4472
(dp4473
g19
(I0
I1
tp4474
sbag1
(g15
g3
Ntp4475
Rp4476
(dp4477
g19
(I1
I1
tp4478
sbag1
(g15
g3
Ntp4479
Rp4480
(dp4481
g19
(I2
I1
tp4482
sbag1
(g15
g3
Ntp4483
Rp4484
(dp4485
g19
(I2
I0
tp4486
sbag1
(g15
g3
Ntp4487
Rp4488
(dp4489
g19
(I2
I-1
tp4490
sbag1
(g15
g3
Ntp4491
Rp4492
(dp4493
g19
(I2
I-2
tp4494
sbag1
(g15
g3
Ntp4495
Rp4496
(dp4497
g19
(I1
I-2
tp4498
sbag1
(g15
g3
Ntp4499
Rp4500
(dp4501
g19
(I0
I-2
tp4502
sbag1
(g15
g3
Ntp4503
Rp4504
(dp4505
g19
(I0
I-1
tp4506
sbag1
(g15
g3
Ntp4507
Rp4508
(dp4509
g19
(I1
I-1
tp4510
sbag1
(g15
g3
Ntp4511
Rp4512
(dp4513
g19
(I1
I0
tp4514
sbasg65
I12
sg66
S'HHPP'
p4515
sg68
g4350
sg70
(I12
S'HHPH'
p4516
g4515
tp4517
sg71
g4516
sbag1
(g2
g3
Ntp4518
Rp4519
(dp4520
g7
I5
sg8
S'HPPPHHPHHHHH'
p4521
sg10
I01
sg11
I24
sg12
I01
sg13
(lp4522
g1
(g15
g3
Ntp4523
Rp4524
(dp4525
g19
g20
sbag1
(g15
g3
Ntp4526
Rp4527
(dp4528
g19
(I0
I1
tp4529
sbag1
(g15
g3
Ntp4530
Rp4531
(dp4532
g19
(I1
I1
tp4533
sbag1
(g15
g3
Ntp4534
Rp4535
(dp4536
g19
(I2
I1
tp4537
sbag1
(g15
g3
Ntp4538
Rp4539
(dp4540
g19
(I2
I0
tp4541
sbag1
(g15
g3
Ntp4542
Rp4543
(dp4544
g19
(I2
I-1
tp4545
sbag1
(g15
g3
Ntp4546
Rp4547
(dp4548
g19
(I2
I-2
tp4549
sbag1
(g15
g3
Ntp4550
Rp4551
(dp4552
g19
(I1
I-2
tp4553
sbag1
(g15
g3
Ntp4554
Rp4555
(dp4556
g19
(I0
I-2
tp4557
sbag1
(g15
g3
Ntp4558
Rp4559
(dp4560
g19
(I0
I-1
tp4561
sbag1
(g15
g3
Ntp4562
Rp4563
(dp4564
g19
(I1
I-1
tp4565
sbag1
(g15
g3
Ntp4566
Rp4567
(dp4568
g19
(I1
I0
tp4569
sbasg65
I12
sg66
S'HHHPHH'
p4570
sg68
g4350
sg70
(I12
S'HHPHH'
p4571
g4570
tp4572
sg71
g4571
sbag1
(g2
g3
Ntp4573
Rp4574
(dp4575
g7
I6
sg8
S'HPHPHHPHHHHH'
p4576
sg10
I01
sg11
I25
sg12
I01
sg13
(lp4577
g1
(g15
g3
Ntp4578
Rp4579
(dp4580
g19
g20
sbag1
(g15
g3
Ntp4581
Rp4582
(dp4583
g19
(I0
I1
tp4584
sbag1
(g15
g3
Ntp4585
Rp4586
(dp4587
g19
(I1
I1
tp4588
sbag1
(g15
g3
Ntp4589
Rp4590
(dp4591
g19
(I2
I1
tp4592
sbag1
(g15
g3
Ntp4593
Rp4594
(dp4595
g19
(I2
I0
tp4596
sbag1
(g15
g3
Ntp4597
Rp4598
(dp4599
g19
(I2
I-1
tp4600
sbag1
(g15
g3
Ntp4601
Rp4602
(dp4603
g19
(I2
I-2
tp4604
sbag1
(g15
g3
Ntp4605
Rp4606
(dp4607
g19
(I1
I-2
tp4608
sbag1
(g15
g3
Ntp4609
Rp4610
(dp4611
g19
(I0
I-2
tp4612
sbag1
(g15
g3
Ntp4613
Rp4614
(dp4615
g19
(I0
I-1
tp4616
sbag1
(g15
g3
Ntp4617
Rp4618
(dp4619
g19
(I1
I-1
tp4620
sbag1
(g15
g3
Ntp4621
Rp4622
(dp4623
g19
(I1
I0
tp4624
sbasg65
I12
sg66
S'HHHPHH'
p4625
sg68
g4350
sg70
(I12
S'HHPHH'
p4626
g4625
tp4627
sg71
g4626
sbag1
(g2
g3
Ntp4628
Rp4629
(dp4630
g7
I4
sg8
S'PHPPHHPPHPH'
p4631
sg10
I00
sg11
I25
sg12
I01
sg13
(lp4632
g1
(g15
g3
Ntp4633
Rp4634
(dp4635
g19
g20
sbag1
(g15
g3
Ntp4636
Rp4637
(dp4638
g19
(I0
I1
tp4639
sbag1
(g15
g3
Ntp4640
Rp4641
(dp4642
g19
(I1
I1
tp4643
sbag1
(g15
g3
Ntp4644
Rp4645
(dp4646
g19
(I1
I2
tp4647
sbag1
(g15
g3
Ntp4648
Rp4649
(dp4650
g19
(I0
I2
tp4651
sbag1
(g15
g3
Ntp4652
Rp4653
(dp4654
g19
(I-1
I2
tp4655
sbag1
(g15
g3
Ntp4656
Rp4657
(dp4658
g19
(I-1
I3
tp4659
sbag1
(g15
g3
Ntp4660
Rp4661
(dp4662
g19
(I-2
I3
tp4663
sbag1
(g15
g3
Ntp4664
Rp4665
(dp4666
g19
(I-2
I2
tp4667
sbag1
(g15
g3
Ntp4668
Rp4669
(dp4670
g19
(I-2
I1
tp4671
sbag1
(g15
g3
Ntp4672
Rp4673
(dp4674
g19
(I-1
I1
tp4675
sbasg65
I11
sg66
g72
sg68
S'URULLULDDR'
p4676
sg70
Nsg71
S'HHPP'
p4677
sbag1
(g2
g3
Ntp4678
Rp4679
(dp4680
g7
I4
sg8
S'HHPPHHPPHPH'
p4681
sg10
I00
sg11
I25
sg12
I01
sg13
(lp4682
g1
(g15
g3
Ntp4683
Rp4684
(dp4685
g19
g20
sbag1
(g15
g3
Ntp4686
Rp4687
(dp4688
g19
(I0
I1
tp4689
sbag1
(g15
g3
Ntp4690
Rp4691
(dp4692
g19
(I1
I1
tp4693
sbag1
(g15
g3
Ntp4694
Rp4695
(dp4696
g19
(I1
I2
tp4697
sbag1
(g15
g3
Ntp4698
Rp4699
(dp4700
g19
(I0
I2
tp4701
sbag1
(g15
g3
Ntp4702
Rp4703
(dp4704
g19
(I-1
I2
tp4705
sbag1
(g15
g3
Ntp4706
Rp4707
(dp4708
g19
(I-1
I3
tp4709
sbag1
(g15
g3
Ntp4710
Rp4711
(dp4712
g19
(I-2
I3
tp4713
sbag1
(g15
g3
Ntp4714
Rp4715
(dp4716
g19
(I-2
I2
tp4717
sbag1
(g15
g3
Ntp4718
Rp4719
(dp4720
g19
(I-2
I1
tp4721
sbag1
(g15
g3
Ntp4722
Rp4723
(dp4724
g19
(I-1
I1
tp4725
sbasg65
I11
sg66
g72
sg68
g4676
sg70
Nsg71
S'HHPP'
p4726
sbag1
(g2
g3
Ntp4727
Rp4728
(dp4729
g7
I3
sg8
S'HHPPPPPHPPH'
p4730
sg10
I01
sg11
I26
sg12
I01
sg13
(lp4731
g1
(g15
g3
Ntp4732
Rp4733
(dp4734
g19
g20
sbag1
(g15
g3
Ntp4735
Rp4736
(dp4737
g19
(I0
I1
tp4738
sbag1
(g15
g3
Ntp4739
Rp4740
(dp4741
g19
(I1
I1
tp4742
sbag1
(g15
g3
Ntp4743
Rp4744
(dp4745
g19
(I1
I0
tp4746
sbag1
(g15
g3
Ntp4747
Rp4748
(dp4749
g19
(I1
I-1
tp4750
sbag1
(g15
g3
Ntp4751
Rp4752
(dp4753
g19
(I0
I-1
tp4754
sbag1
(g15
g3
Ntp4755
Rp4756
(dp4757
g19
(I-1
I-1
tp4758
sbag1
(g15
g3
Ntp4759
Rp4760
(dp4761
g19
(I-1
I0
tp4762
sbag1
(g15
g3
Ntp4763
Rp4764
(dp4765
g19
(I-2
I0
tp4766
sbag1
(g15
g3
Ntp4767
Rp4768
(dp4769
g19
(I-2
I1
tp4770
sbag1
(g15
g3
Ntp4771
Rp4772
(dp4773
g19
(I-1
I1
tp4774
sbasg65
I11
sg66
S'HHPP'
p4775
sg68
S'URDDLLULUR'
p4776
sg70
(I11
S'HHPP'
p4777
g4775
tp4778
sg71
g4777
sbag1
(g2
g3
Ntp4779
Rp4780
(dp4781
g7
I4
sg8
S'HHPHPPPHPPH'
p4782
sg10
I01
sg11
I27
sg12
I01
sg13
(lp4783
g1
(g15
g3
Ntp4784
Rp4785
(dp4786
g19
g20
sbag1
(g15
g3
Ntp4787
Rp4788
(dp4789
g19
(I0
I1
tp4790
sbag1
(g15
g3
Ntp4791
Rp4792
(dp4793
g19
(I1
I1
tp4794
sbag1
(g15
g3
Ntp4795
Rp4796
(dp4797
g19
(I1
I0
tp4798
sbag1
(g15
g3
Ntp4799
Rp4800
(dp4801
g19
(I1
I-1
tp4802
sbag1
(g15
g3
Ntp4803
Rp4804
(dp4805
g19
(I0
I-1
tp4806
sbag1
(g15
g3
Ntp4807
Rp4808
(dp4809
g19
(I-1
I-1
tp4810
sbag1
(g15
g3
Ntp4811
Rp4812
(dp4813
g19
(I-1
I0
tp4814
sbag1
(g15
g3
Ntp4815
Rp4816
(dp4817
g19
(I-2
I0
tp4818
sbag1
(g15
g3
Ntp4819
Rp4820
(dp4821
g19
(I-2
I1
tp4822
sbag1
(g15
g3
Ntp4823
Rp4824
(dp4825
g19
(I-1
I1
tp4826
sbasg65
I11
sg66
S'HHPP'
p4827
sg68
g4776
sg70
(I11
S'HHPH'
p4828
g4827
tp4829
sg71
g4828
sbag1
(g2
g3
Ntp4830
Rp4831
(dp4832
g7
I4
sg8
S'HHPPPHPHPPH'
p4833
sg10
I01
sg11
I28
sg12
I01
sg13
(lp4834
g1
(g15
g3
Ntp4835
Rp4836
(dp4837
g19
g20
sbag1
(g15
g3
Ntp4838
Rp4839
(dp4840
g19
(I0
I1
tp4841
sbag1
(g15
g3
Ntp4842
Rp4843
(dp4844
g19
(I1
I1
tp4845
sbag1
(g15
g3
Ntp4846
Rp4847
(dp4848
g19
(I1
I0
tp4849
sbag1
(g15
g3
Ntp4850
Rp4851
(dp4852
g19
(I1
I-1
tp4853
sbag1
(g15
g3
Ntp4854
Rp4855
(dp4856
g19
(I0
I-1
tp4857
sbag1
(g15
g3
Ntp4858
Rp4859
(dp4860
g19
(I-1
I-1
tp4861
sbag1
(g15
g3
Ntp4862
Rp4863
(dp4864
g19
(I-1
I0
tp4865
sbag1
(g15
g3
Ntp4866
Rp4867
(dp4868
g19
(I-2
I0
tp4869
sbag1
(g15
g3
Ntp4870
Rp4871
(dp4872
g19
(I-2
I1
tp4873
sbag1
(g15
g3
Ntp4874
Rp4875
(dp4876
g19
(I-1
I1
tp4877
sbasg65
I11
sg66
S'HHPP'
p4878
sg68
g4776
sg70
(I11
S'HHPP'
p4879
g4878
tp4880
sg71
g4879
sbag1
(g2
g3
Ntp4881
Rp4882
(dp4883
g7
I5
sg8
S'HHPHPHPHPPH'
p4884
sg10
I01
sg11
I29
sg12
I01
sg13
(lp4885
g1
(g15
g3
Ntp4886
Rp4887
(dp4888
g19
g20
sbag1
(g15
g3
Ntp4889
Rp4890
(dp4891
g19
(I0
I1
tp4892
sbag1
(g15
g3
Ntp4893
Rp4894
(dp4895
g19
(I1
I1
tp4896
sbag1
(g15
g3
Ntp4897
Rp4898
(dp4899
g19
(I1
I0
tp4900
sbag1
(g15
g3
Ntp4901
Rp4902
(dp4903
g19
(I1
I-1
tp4904
sbag1
(g15
g3
Ntp4905
Rp4906
(dp4907
g19
(I0
I-1
tp4908
sbag1
(g15
g3
Ntp4909
Rp4910
(dp4911
g19
(I-1
I-1
tp4912
sbag1
(g15
g3
Ntp4913
Rp4914
(dp4915
g19
(I-1
I0
tp4916
sbag1
(g15
g3
Ntp4917
Rp4918
(dp4919
g19
(I-2
I0
tp4920
sbag1
(g15
g3
Ntp4921
Rp4922
(dp4923
g19
(I-2
I1
tp4924
sbag1
(g15
g3
Ntp4925
Rp4926
(dp4927
g19
(I-1
I1
tp4928
sbasg65
I11
sg66
S'HHPP'
p4929
sg68
g4776
sg70
(I11
S'HHPH'
p4930
g4929
tp4931
sg71
g4930
sbag1
(g2
g3
Ntp4932
Rp4933
(dp4934
g7
I4
sg8
S'HPPHPPHPPHP'
p4935
sg10
I00
sg11
I29
sg12
I00
sg13
(lp4936
g1
(g15
g3
Ntp4937
Rp4938
(dp4939
g19
g20
sbag1
(g15
g3
Ntp4940
Rp4941
(dp4942
g19
(I0
I1
tp4943
sbag1
(g15
g3
Ntp4944
Rp4945
(dp4946
g19
(I1
I1
tp4947
sbag1
(g15
g3
Ntp4948
Rp4949
(dp4950
g19
(I1
I0
tp4951
sbag1
(g15
g3
Ntp4952
Rp4953
(dp4954
g19
(I2
I0
tp4955
sbag1
(g15
g3
Ntp4956
Rp4957
(dp4958
g19
(I2
I-1
tp4959
sbag1
(g15
g3
Ntp4960
Rp4961
(dp4962
g19
(I1
I-1
tp4963
sbag1
(g15
g3
Ntp4964
Rp4965
(dp4966
g19
(I1
I-2
tp4967
sbag1
(g15
g3
Ntp4968
Rp4969
(dp4970
g19
(I0
I-2
tp4971
sbag1
(g15
g3
Ntp4972
Rp4973
(dp4974
g19
(I0
I-1
tp4975
sbag1
(g15
g3
Ntp4976
Rp4977
(dp4978
g19
(I-1
I-1
tp4979
sbasg65
I11
sg66
g72
sg68
S'URDRDLDLUL'
p4980
sg70
Nsg71
g72
sbag1
(g2
g3
Ntp4981
Rp4982
(dp4983
g7
I4
sg8
S'HHPHPPHPPHP'
p4984
sg10
I01
sg11
I30
sg12
I01
sg13
(lp4985
g1
(g15
g3
Ntp4986
Rp4987
(dp4988
g19
g20
sbag1
(g15
g3
Ntp4989
Rp4990
(dp4991
g19
(I0
I1
tp4992
sbag1
(g15
g3
Ntp4993
Rp4994
(dp4995
g19
(I1
I1
tp4996
sbag1
(g15
g3
Ntp4997
Rp4998
(dp4999
g19
(I1
I0
tp5000
sbag1
(g15
g3
Ntp5001
Rp5002
(dp5003
g19
(I2
I0
tp5004
sbag1
(g15
g3
Ntp5005
Rp5006
(dp5007
g19
(I2
I-1
tp5008
sbag1
(g15
g3
Ntp5009
Rp5010
(dp5011
g19
(I1
I-1
tp5012
sbag1
(g15
g3
Ntp5013
Rp5014
(dp5015
g19
(I1
I-2
tp5016
sbag1
(g15
g3
Ntp5017
Rp5018
(dp5019
g19
(I0
I-2
tp5020
sbag1
(g15
g3
Ntp5021
Rp5022
(dp5023
g19
(I0
I-1
tp5024
sbag1
(g15
g3
Ntp5025
Rp5026
(dp5027
g19
(I-1
I-1
tp5028
sbasg65
I11
sg66
S'HHPP'
p5029
sg68
g4980
sg70
(I11
S'HHPH'
p5030
g5029
tp5031
sg71
g5030
sbag1
(g2
g3
Ntp5032
Rp5033
(dp5034
g7
I4
sg8
S'HPPHHPHPPHP'
p5035
sg10
I00
sg11
I30
sg12
I01
sg13
(lp5036
g1
(g15
g3
Ntp5037
Rp5038
(dp5039
g19
g20
sbag1
(g15
g3
Ntp5040
Rp5041
(dp5042
g19
(I0
I1
tp5043
sbag1
(g15
g3
Ntp5044
Rp5045
(dp5046
g19
(I1
I1
tp5047
sbag1
(g15
g3
Ntp5048
Rp5049
(dp5050
g19
(I1
I0
tp5051
sbag1
(g15
g3
Ntp5052
Rp5053
(dp5054
g19
(I2
I0
tp5055
sbag1
(g15
g3
Ntp5056
Rp5057
(dp5058
g19
(I2
I-1
tp5059
sbag1
(g15
g3
Ntp5060
Rp5061
(dp5062
g19
(I1
I-1
tp5063
sbag1
(g15
g3
Ntp5064
Rp5065
(dp5066
g19
(I1
I-2
tp5067
sbag1
(g15
g3
Ntp5068
Rp5069
(dp5070
g19
(I0
I-2
tp5071
sbag1
(g15
g3
Ntp5072
Rp5073
(dp5074
g19
(I0
I-1
tp5075
sbag1
(g15
g3
Ntp5076
Rp5077
(dp5078
g19
(I-1
I-1
tp5079
sbasg65
I11
sg66
g72
sg68
g4980
sg70
Nsg71
S'HHPH'
p5080
sbag1
(g2
g3
Ntp5081
Rp5082
(dp5083
g7
I4
sg8
S'HPPHPPHPHHP'
p5084
sg10
I00
sg11
I30
sg12
I00
sg13
(lp5085
g1
(g15
g3
Ntp5086
Rp5087
(dp5088
g19
g20
sbag1
(g15
g3
Ntp5089
Rp5090
(dp5091
g19
(I0
I1
tp5092
sbag1
(g15
g3
Ntp5093
Rp5094
(dp5095
g19
(I1
I1
tp5096
sbag1
(g15
g3
Ntp5097
Rp5098
(dp5099
g19
(I1
I0
tp5100
sbag1
(g15
g3
Ntp5101
Rp5102
(dp5103
g19
(I2
I0
tp5104
sbag1
(g15
g3
Ntp5105
Rp5106
(dp5107
g19
(I2
I-1
tp5108
sbag1
(g15
g3
Ntp5109
Rp5110
(dp5111
g19
(I1
I-1
tp5112
sbag1
(g15
g3
Ntp5113
Rp5114
(dp5115
g19
(I1
I-2
tp5116
sbag1
(g15
g3
Ntp5117
Rp5118
(dp5119
g19
(I0
I-2
tp5120
sbag1
(g15
g3
Ntp5121
Rp5122
(dp5123
g19
(I0
I-1
tp5124
sbag1
(g15
g3
Ntp5125
Rp5126
(dp5127
g19
(I-1
I-1
tp5128
sbasg65
I11
sg66
g72
sg68
g4980
sg70
Nsg71
g72
sbag1
(g2
g3
Ntp5129
Rp5130
(dp5131
g7
I4
sg8
S'HPPHHPHPHHP'
p5132
sg10
I00
sg11
I30
sg12
I01
sg13
(lp5133
g1
(g15
g3
Ntp5134
Rp5135
(dp5136
g19
g20
sbag1
(g15
g3
Ntp5137
Rp5138
(dp5139
g19
(I0
I1
tp5140
sbag1
(g15
g3
Ntp5141
Rp5142
(dp5143
g19
(I1
I1
tp5144
sbag1
(g15
g3
Ntp5145
Rp5146
(dp5147
g19
(I1
I0
tp5148
sbag1
(g15
g3
Ntp5149
Rp5150
(dp5151
g19
(I2
I0
tp5152
sbag1
(g15
g3
Ntp5153
Rp5154
(dp5155
g19
(I2
I-1
tp5156
sbag1
(g15
g3
Ntp5157
Rp5158
(dp5159
g19
(I1
I-1
tp5160
sbag1
(g15
g3
Ntp5161
Rp5162
(dp5163
g19
(I1
I-2
tp5164
sbag1
(g15
g3
Ntp5165
Rp5166
(dp5167
g19
(I0
I-2
tp5168
sbag1
(g15
g3
Ntp5169
Rp5170
(dp5171
g19
(I0
I-1
tp5172
sbag1
(g15
g3
Ntp5173
Rp5174
(dp5175
g19
(I-1
I-1
tp5176
sbasg65
I11
sg66
g72
sg68
g4980
sg70
Nsg71
S'HHPH'
p5177
sbag1
(g2
g3
Ntp5178
Rp5179
(dp5180
g7
I4
sg8
S'HPPHPPHPPHH'
p5181
sg10
I00
sg11
I30
sg12
I00
sg13
(lp5182
g1
(g15
g3
Ntp5183
Rp5184
(dp5185
g19
g20
sbag1
(g15
g3
Ntp5186
Rp5187
(dp5188
g19
(I0
I1
tp5189
sbag1
(g15
g3
Ntp5190
Rp5191
(dp5192
g19
(I1
I1
tp5193
sbag1
(g15
g3
Ntp5194
Rp5195
(dp5196
g19
(I1
I0
tp5197
sbag1
(g15
g3
Ntp5198
Rp5199
(dp5200
g19
(I2
I0
tp5201
sbag1
(g15
g3
Ntp5202
Rp5203
(dp5204
g19
(I2
I-1
tp5205
sbag1
(g15
g3
Ntp5206
Rp5207
(dp5208
g19
(I1
I-1
tp5209
sbag1
(g15
g3
Ntp5210
Rp5211
(dp5212
g19
(I1
I-2
tp5213
sbag1
(g15
g3
Ntp5214
Rp5215
(dp5216
g19
(I0
I-2
tp5217
sbag1
(g15
g3
Ntp5218
Rp5219
(dp5220
g19
(I0
I-1
tp5221
sbag1
(g15
g3
Ntp5222
Rp5223
(dp5224
g19
(I-1
I-1
tp5225
sbasg65
I11
sg66
g72
sg68
g4980
sg70
Nsg71
g72
sbag1
(g2
g3
Ntp5226
Rp5227
(dp5228
g7
I4
sg8
S'HPPHPPHPHHH'
p5229
sg10
I00
sg11
I30
sg12
I00
sg13
(lp5230
g1
(g15
g3
Ntp5231
Rp5232
(dp5233
g19
g20
sbag1
(g15
g3
Ntp5234
Rp5235
(dp5236
g19
(I0
I1
tp5237
sbag1
(g15
g3
Ntp5238
Rp5239
(dp5240
g19
(I1
I1
tp5241
sbag1
(g15
g3
Ntp5242
Rp5243
(dp5244
g19
(I1
I0
tp5245
sbag1
(g15
g3
Ntp5246
Rp5247
(dp5248
g19
(I2
I0
tp5249
sbag1
(g15
g3
Ntp5250
Rp5251
(dp5252
g19
(I2
I-1
tp5253
sbag1
(g15
g3
Ntp5254
Rp5255
(dp5256
g19
(I1
I-1
tp5257
sbag1
(g15
g3
Ntp5258
Rp5259
(dp5260
g19
(I1
I-2
tp5261
sbag1
(g15
g3
Ntp5262
Rp5263
(dp5264
g19
(I0
I-2
tp5265
sbag1
(g15
g3
Ntp5266
Rp5267
(dp5268
g19
(I0
I-1
tp5269
sbag1
(g15
g3
Ntp5270
Rp5271
(dp5272
g19
(I-1
I-1
tp5273
sbasg65
I11
sg66
g72
sg68
g4980
sg70
Nsg71
g72
sbag1
(g2
g3
Ntp5274
Rp5275
(dp5276
g7
I4
sg8
S'PHPHPPHPHPH'
p5277
sg10
I00
sg11
I30
sg12
I00
sg13
(lp5278
g1
(g15
g3
Ntp5279
Rp5280
(dp5281
g19
g20
sbag1
(g15
g3
Ntp5282
Rp5283
(dp5284
g19
(I0
I1
tp5285
sbag1
(g15
g3
Ntp5286
Rp5287
(dp5288
g19
(I1
I1
tp5289
sbag1
(g15
g3
Ntp5290
Rp5291
(dp5292
g19
(I1
I2
tp5293
sbag1
(g15
g3
Ntp5294
Rp5295
(dp5296
g19
(I2
I2
tp5297
sbag1
(g15
g3
Ntp5298
Rp5299
(dp5300
g19
(I2
I3
tp5301
sbag1
(g15
g3
Ntp5302
Rp5303
(dp5304
g19
(I1
I3
tp5305
sbag1
(g15
g3
Ntp5306
Rp5307
(dp5308
g19
(I0
I3
tp5309
sbag1
(g15
g3
Ntp5310
Rp5311
(dp5312
g19
(I0
I2
tp5313
sbag1
(g15
g3
Ntp5314
Rp5315
(dp5316
g19
(I-1
I2
tp5317
sbag1
(g15
g3
Ntp5318
Rp5319
(dp5320
g19
(I-1
I1
tp5321
sbasg65
I11
sg66
g72
sg68
S'URURULLDLD'
p5322
sg70
Nsg71
g72
sbag1
(g2
g3
Ntp5323
Rp5324
(dp5325
g7
I4
sg8
S'HHPHPPHPHPH'
p5326
sg10
I00
sg11
I30
sg12
I01
sg13
(lp5327
g1
(g15
g3
Ntp5328
Rp5329
(dp5330
g19
g20
sbag1
(g15
g3
Ntp5331
Rp5332
(dp5333
g19
(I0
I1
tp5334
sbag1
(g15
g3
Ntp5335
Rp5336
(dp5337
g19
(I1
I1
tp5338
sbag1
(g15
g3
Ntp5339
Rp5340
(dp5341
g19
(I1
I2
tp5342
sbag1
(g15
g3
Ntp5343
Rp5344
(dp5345
g19
(I2
I2
tp5346
sbag1
(g15
g3
Ntp5347
Rp5348
(dp5349
g19
(I2
I3
tp5350
sbag1
(g15
g3
Ntp5351
Rp5352
(dp5353
g19
(I1
I3
tp5354
sbag1
(g15
g3
Ntp5355
Rp5356
(dp5357
g19
(I0
I3
tp5358
sbag1
(g15
g3
Ntp5359
Rp5360
(dp5361
g19
(I0
I2
tp5362
sbag1
(g15
g3
Ntp5363
Rp5364
(dp5365
g19
(I-1
I2
tp5366
sbag1
(g15
g3
Ntp5367
Rp5368
(dp5369
g19
(I-1
I1
tp5370
sbasg65
I11
sg66
g72
sg68
g5322
sg70
Nsg71
S'HHPH'
p5371
sbag1
(g2
g3
Ntp5372
Rp5373
(dp5374
g7
I4
sg8
S'PHHHPPHPHPH'
p5375
sg10
I00
sg11
I30
sg12
I01
sg13
(lp5376
g1
(g15
g3
Ntp5377
Rp5378
(dp5379
g19
g20
sbag1
(g15
g3
Ntp5380
Rp5381
(dp5382
g19
(I0
I1
tp5383
sbag1
(g15
g3
Ntp5384
Rp5385
(dp5386
g19
(I1
I1
tp5387
sbag1
(g15
g3
Ntp5388
Rp5389
(dp5390
g19
(I1
I2
tp5391
sbag1
(g15
g3
Ntp5392
Rp5393
(dp5394
g19
(I2
I2
tp5395
sbag1
(g15
g3
Ntp5396
Rp5397
(dp5398
g19
(I2
I3
tp5399
sbag1
(g15
g3
Ntp5400
Rp5401
(dp5402
g19
(I1
I3
tp5403
sbag1
(g15
g3
Ntp5404
Rp5405
(dp5406
g19
(I0
I3
tp5407
sbag1
(g15
g3
Ntp5408
Rp5409
(dp5410
g19
(I0
I2
tp5411
sbag1
(g15
g3
Ntp5412
Rp5413
(dp5414
g19
(I-1
I2
tp5415
sbag1
(g15
g3
Ntp5416
Rp5417
(dp5418
g19
(I-1
I1
tp5419
sbasg65
I11
sg66
g72
sg68
g5322
sg70
Nsg71
S'HHHPP'
p5420
sbag1
(g2
g3
Ntp5421
Rp5422
(dp5423
g7
I4
sg8
S'HHHHPPHPHPH'
p5424
sg10
I00
sg11
I30
sg12
I01
sg13
(lp5425
g1
(g15
g3
Ntp5426
Rp5427
(dp5428
g19
g20
sbag1
(g15
g3
Ntp5429
Rp5430
(dp5431
g19
(I0
I1
tp5432
sbag1
(g15
g3
Ntp5433
Rp5434
(dp5435
g19
(I1
I1
tp5436
sbag1
(g15
g3
Ntp5437
Rp5438
(dp5439
g19
(I1
I2
tp5440
sbag1
(g15
g3
Ntp5441
Rp5442
(dp5443
g19
(I2
I2
tp5444
sbag1
(g15
g3
Ntp5445
Rp5446
(dp5447
g19
(I2
I3
tp5448
sbag1
(g15
g3
Ntp5449
Rp5450
(dp5451
g19
(I1
I3
tp5452
sbag1
(g15
g3
Ntp5453
Rp5454
(dp5455
g19
(I0
I3
tp5456
sbag1
(g15
g3
Ntp5457
Rp5458
(dp5459
g19
(I0
I2
tp5460
sbag1
(g15
g3
Ntp5461
Rp5462
(dp5463
g19
(I-1
I2
tp5464
sbag1
(g15
g3
Ntp5465
Rp5466
(dp5467
g19
(I-1
I1
tp5468
sbasg65
I11
sg66
g72
sg68
g5322
sg70
Nsg71
S'HHHHPP'
p5469
sbag1
(g2
g3
Ntp5470
Rp5471
(dp5472
g7
I4
sg8
S'PHPHHPHPHPH'
p5473
sg10
I00
sg11
I30
sg12
I01
sg13
(lp5474
g1
(g15
g3
Ntp5475
Rp5476
(dp5477
g19
g20
sbag1
(g15
g3
Ntp5478
Rp5479
(dp5480
g19
(I0
I1
tp5481
sbag1
(g15
g3
Ntp5482
Rp5483
(dp5484
g19
(I1
I1
tp5485
sbag1
(g15
g3
Ntp5486
Rp5487
(dp5488
g19
(I1
I2
tp5489
sbag1
(g15
g3
Ntp5490
Rp5491
(dp5492
g19
(I2
I2
tp5493
sbag1
(g15
g3
Ntp5494
Rp5495
(dp5496
g19
(I2
I3
tp5497
sbag1
(g15
g3
Ntp5498
Rp5499
(dp5500
g19
(I1
I3
tp5501
sbag1
(g15
g3
Ntp5502
Rp5503
(dp5504
g19
(I0
I3
tp5505
sbag1
(g15
g3
Ntp5506
Rp5507
(dp5508
g19
(I0
I2
tp5509
sbag1
(g15
g3
Ntp5510
Rp5511
(dp5512
g19
(I-1
I2
tp5513
sbag1
(g15
g3
Ntp5514
Rp5515
(dp5516
g19
(I-1
I1
tp5517
sbasg65
I11
sg66
g72
sg68
g5322
sg70
Nsg71
S'HHPH'
p5518
sbag1
(g2
g3
Ntp5519
Rp5520
(dp5521
g7
I4
sg8
S'HHPHHPHPHPH'
p5522
sg10
I00
sg11
I30
sg12
I01
sg13
(lp5523
g1
(g15
g3
Ntp5524
Rp5525
(dp5526
g19
g20
sbag1
(g15
g3
Ntp5527
Rp5528
(dp5529
g19
(I0
I1
tp5530
sbag1
(g15
g3
Ntp5531
Rp5532
(dp5533
g19
(I1
I1
tp5534
sbag1
(g15
g3
Ntp5535
Rp5536
(dp5537
g19
(I1
I2
tp5538
sbag1
(g15
g3
Ntp5539
Rp5540
(dp5541
g19
(I2
I2
tp5542
sbag1
(g15
g3
Ntp5543
Rp5544
(dp5545
g19
(I2
I3
tp5546
sbag1
(g15
g3
Ntp5547
Rp5548
(dp5549
g19
(I1
I3
tp5550
sbag1
(g15
g3
Ntp5551
Rp5552
(dp5553
g19
(I0
I3
tp5554
sbag1
(g15
g3
Ntp5555
Rp5556
(dp5557
g19
(I0
I2
tp5558
sbag1
(g15
g3
Ntp5559
Rp5560
(dp5561
g19
(I-1
I2
tp5562
sbag1
(g15
g3
Ntp5563
Rp5564
(dp5565
g19
(I-1
I1
tp5566
sbasg65
I11
sg66
g72
sg68
g5322
sg70
Nsg71
S'HHPHH'
p5567
sbag1
(g2
g3
Ntp5568
Rp5569
(dp5570
g7
I4
sg8
S'PHHHHPHPHPH'
p5571
sg10
I00
sg11
I30
sg12
I01
sg13
(lp5572
g1
(g15
g3
Ntp5573
Rp5574
(dp5575
g19
g20
sbag1
(g15
g3
Ntp5576
Rp5577
(dp5578
g19
(I0
I1
tp5579
sbag1
(g15
g3
Ntp5580
Rp5581
(dp5582
g19
(I1
I1
tp5583
sbag1
(g15
g3
Ntp5584
Rp5585
(dp5586
g19
(I1
I2
tp5587
sbag1
(g15
g3
Ntp5588
Rp5589
(dp5590
g19
(I2
I2
tp5591
sbag1
(g15
g3
Ntp5592
Rp5593
(dp5594
g19
(I2
I3
tp5595
sbag1
(g15
g3
Ntp5596
Rp5597
(dp5598
g19
(I1
I3
tp5599
sbag1
(g15
g3
Ntp5600
Rp5601
(dp5602
g19
(I0
I3
tp5603
sbag1
(g15
g3
Ntp5604
Rp5605
(dp5606
g19
(I0
I2
tp5607
sbag1
(g15
g3
Ntp5608
Rp5609
(dp5610
g19
(I-1
I2
tp5611
sbag1
(g15
g3
Ntp5612
Rp5613
(dp5614
g19
(I-1
I1
tp5615
sbasg65
I11
sg66
g72
sg68
g5322
sg70
Nsg71
S'HHHHPH'
p5616
sbag1
(g2
g3
Ntp5617
Rp5618
(dp5619
g7
I4
sg8
S'HHHHHPHPHPH'
p5620
sg10
I00
sg11
I30
sg12
I01
sg13
(lp5621
g1
(g15
g3
Ntp5622
Rp5623
(dp5624
g19
g20
sbag1
(g15
g3
Ntp5625
Rp5626
(dp5627
g19
(I0
I1
tp5628
sbag1
(g15
g3
Ntp5629
Rp5630
(dp5631
g19
(I1
I1
tp5632
sbag1
(g15
g3
Ntp5633
Rp5634
(dp5635
g19
(I1
I2
tp5636
sbag1
(g15
g3
Ntp5637
Rp5638
(dp5639
g19
(I2
I2
tp5640
sbag1
(g15
g3
Ntp5641
Rp5642
(dp5643
g19
(I2
I3
tp5644
sbag1
(g15
g3
Ntp5645
Rp5646
(dp5647
g19
(I1
I3
tp5648
sbag1
(g15
g3
Ntp5649
Rp5650
(dp5651
g19
(I0
I3
tp5652
sbag1
(g15
g3
Ntp5653
Rp5654
(dp5655
g19
(I0
I2
tp5656
sbag1
(g15
g3
Ntp5657
Rp5658
(dp5659
g19
(I-1
I2
tp5660
sbag1
(g15
g3
Ntp5661
Rp5662
(dp5663
g19
(I-1
I1
tp5664
sbasg65
I11
sg66
g72
sg68
g5322
sg70
Nsg71
S'HHHHPH'
p5665
sbag1
(g2
g3
Ntp5666
Rp5667
(dp5668
g7
I5
sg8
S'HHHHHPPPHHPH'
p5669
sg10
I01
sg11
I31
sg12
I01
sg13
(lp5670
g1
(g15
g3
Ntp5671
Rp5672
(dp5673
g19
g20
sbag1
(g15
g3
Ntp5674
Rp5675
(dp5676
g19
(I0
I1
tp5677
sbag1
(g15
g3
Ntp5678
Rp5679
(dp5680
g19
(I1
I1
tp5681
sbag1
(g15
g3
Ntp5682
Rp5683
(dp5684
g19
(I1
I2
tp5685
sbag1
(g15
g3
Ntp5686
Rp5687
(dp5688
g19
(I0
I2
tp5689
sbag1
(g15
g3
Ntp5690
Rp5691
(dp5692
g19
(I0
I3
tp5693
sbag1
(g15
g3
Ntp5694
Rp5695
(dp5696
g19
(I1
I3
tp5697
sbag1
(g15
g3
Ntp5698
Rp5699
(dp5700
g19
(I2
I3
tp5701
sbag1
(g15
g3
Ntp5702
Rp5703
(dp5704
g19
(I2
I2
tp5705
sbag1
(g15
g3
Ntp5706
Rp5707
(dp5708
g19
(I2
I1
tp5709
sbag1
(g15
g3
Ntp5710
Rp5711
(dp5712
g19
(I2
I0
tp5713
sbag1
(g15
g3
Ntp5714
Rp5715
(dp5716
g19
(I1
I0
tp5717
sbasg65
I12
sg66
S'HHHPP'
p5718
sg68
S'URULURRDDDL'
p5719
sg70
(I12
S'HHHHPP'
p5720
g5718
tp5721
sg71
g5720
sbag1
(g2
g3
Ntp5722
Rp5723
(dp5724
g7
I6
sg8
S'HHHHHPHPHHPH'
p5725
sg10
I01
sg11
I32
sg12
I01
sg13
(lp5726
g1
(g15
g3
Ntp5727
Rp5728
(dp5729
g19
g20
sbag1
(g15
g3
Ntp5730
Rp5731
(dp5732
g19
(I0
I1
tp5733
sbag1
(g15
g3
Ntp5734
Rp5735
(dp5736
g19
(I1
I1
tp5737
sbag1
(g15
g3
Ntp5738
Rp5739
(dp5740
g19
(I1
I2
tp5741
sbag1
(g15
g3
Ntp5742
Rp5743
(dp5744
g19
(I0
I2
tp5745
sbag1
(g15
g3
Ntp5746
Rp5747
(dp5748
g19
(I0
I3
tp5749
sbag1
(g15
g3
Ntp5750
Rp5751
(dp5752
g19
(I1
I3
tp5753
sbag1
(g15
g3
Ntp5754
Rp5755
(dp5756
g19
(I2
I3
tp5757
sbag1
(g15
g3
Ntp5758
Rp5759
(dp5760
g19
(I2
I2
tp5761
sbag1
(g15
g3
Ntp5762
Rp5763
(dp5764
g19
(I2
I1
tp5765
sbag1
(g15
g3
Ntp5766
Rp5767
(dp5768
g19
(I2
I0
tp5769
sbag1
(g15
g3
Ntp5770
Rp5771
(dp5772
g19
(I1
I0
tp5773
sbasg65
I12
sg66
S'HHHPP'
p5774
sg68
g5719
sg70
(I12
S'HHHHPH'
p5775
g5774
tp5776
sg71
g5775
sbag1
(g2
g3
Ntp5777
Rp5778
(dp5779
g7
I6
sg8
S'HHHHHHHPHHPH'
p5780
sg10
I01
sg11
I33
sg12
I01
sg13
(lp5781
g1
(g15
g3
Ntp5782
Rp5783
(dp5784
g19
g20
sbag1
(g15
g3
Ntp5785
Rp5786
(dp5787
g19
(I0
I1
tp5788
sbag1
(g15
g3
Ntp5789
Rp5790
(dp5791
g19
(I1
I1
tp5792
sbag1
(g15
g3
Ntp5793
Rp5794
(dp5795
g19
(I1
I2
tp5796
sbag1
(g15
g3
Ntp5797
Rp5798
(dp5799
g19
(I0
I2
tp5800
sbag1
(g15
g3
Ntp5801
Rp5802
(dp5803
g19
(I0
I3
tp5804
sbag1
(g15
g3
Ntp5805
Rp5806
(dp5807
g19
(I1
I3
tp5808
sbag1
(g15
g3
Ntp5809
Rp5810
(dp5811
g19
(I2
I3
tp5812
sbag1
(g15
g3
Ntp5813
Rp5814
(dp5815
g19
(I2
I2
tp5816
sbag1
(g15
g3
Ntp5817
Rp5818
(dp5819
g19
(I2
I1
tp5820
sbag1
(g15
g3
Ntp5821
Rp5822
(dp5823
g19
(I2
I0
tp5824
sbag1
(g15
g3
Ntp5825
Rp5826
(dp5827
g19
(I1
I0
tp5828
sbasg65
I12
sg66
S'HHHHPHH'
p5829
sg68
g5719
sg70
(I12
S'HHHHPHH'
p5830
g5829
tp5831
sg71
g5830
sbag1
(g2
g3
Ntp5832
Rp5833
(dp5834
g7
I5
sg8
S'HPHPHPPHHPPH'
p5835
sg10
I00
sg11
I33
sg12
I01
sg13
(lp5836
g1
(g15
g3
Ntp5837
Rp5838
(dp5839
g19
g20
sbag1
(g15
g3
Ntp5840
Rp5841
(dp5842
g19
(I0
I1
tp5843
sbag1
(g15
g3
Ntp5844
Rp5845
(dp5846
g19
(I1
I1
tp5847
sbag1
(g15
g3
Ntp5848
Rp5849
(dp5850
g19
(I1
I2
tp5851
sbag1
(g15
g3
Ntp5852
Rp5853
(dp5854
g19
(I2
I2
tp5855
sbag1
(g15
g3
Ntp5856
Rp5857
(dp5858
g19
(I3
I2
tp5859
sbag1
(g15
g3
Ntp5860
Rp5861
(dp5862
g19
(I3
I1
tp5863
sbag1
(g15
g3
Ntp5864
Rp5865
(dp5866
g19
(I2
I1
tp5867
sbag1
(g15
g3
Ntp5868
Rp5869
(dp5870
g19
(I2
I0
tp5871
sbag1
(g15
g3
Ntp5872
Rp5873
(dp5874
g19
(I2
I-1
tp5875
sbag1
(g15
g3
Ntp5876
Rp5877
(dp5878
g19
(I1
I-1
tp5879
sbag1
(g15
g3
Ntp5880
Rp5881
(dp5882
g19
(I1
I0
tp5883
sbasg65
I12
sg66
g72
sg68
S'URURRDLDDLU'
p5884
sg70
Nsg71
S'HHPP'
p5885
sbag1
(g2
g3
Ntp5886
Rp5887
(dp5888
g7
I5
sg8
S'HPHPHPHHHPPH'
p5889
sg10
I00
sg11
I33
sg12
I01
sg13
(lp5890
g1
(g15
g3
Ntp5891
Rp5892
(dp5893
g19
g20
sbag1
(g15
g3
Ntp5894
Rp5895
(dp5896
g19
(I0
I1
tp5897
sbag1
(g15
g3
Ntp5898
Rp5899
(dp5900
g19
(I1
I1
tp5901
sbag1
(g15
g3
Ntp5902
Rp5903
(dp5904
g19
(I1
I2
tp5905
sbag1
(g15
g3
Ntp5906
Rp5907
(dp5908
g19
(I2
I2
tp5909
sbag1
(g15
g3
Ntp5910
Rp5911
(dp5912
g19
(I3
I2
tp5913
sbag1
(g15
g3
Ntp5914
Rp5915
(dp5916
g19
(I3
I1
tp5917
sbag1
(g15
g3
Ntp5918
Rp5919
(dp5920
g19
(I2
I1
tp5921
sbag1
(g15
g3
Ntp5922
Rp5923
(dp5924
g19
(I2
I0
tp5925
sbag1
(g15
g3
Ntp5926
Rp5927
(dp5928
g19
(I2
I-1
tp5929
sbag1
(g15
g3
Ntp5930
Rp5931
(dp5932
g19
(I1
I-1
tp5933
sbag1
(g15
g3
Ntp5934
Rp5935
(dp5936
g19
(I1
I0
tp5937
sbasg65
I12
sg66
g72
sg68
g5884
sg70
Nsg71
S'HHHPP'
p5938
sbag1
(g2
g3
Ntp5939
Rp5940
(dp5941
g7
I3
sg8
S'PHPPHPPHH'
p5942
sg10
I01
sg11
I33
sg12
I00
sg13
(lp5943
g1
(g15
g3
Ntp5944
Rp5945
(dp5946
g19
g20
sbag1
(g15
g3
Ntp5947
Rp5948
(dp5949
g19
(I0
I1
tp5950
sbag1
(g15
g3
Ntp5951
Rp5952
(dp5953
g19
(I1
I1
tp5954
sbag1
(g15
g3
Ntp5955
Rp5956
(dp5957
g19
(I1
I2
tp5958
sbag1
(g15
g3
Ntp5959
Rp5960
(dp5961
g19
(I0
I2
tp5962
sbag1
(g15
g3
Ntp5963
Rp5964
(dp5965
g19
(I0
I3
tp5966
sbag1
(g15
g3
Ntp5967
Rp5968
(dp5969
g19
(I-1
I3
tp5970
sbag1
(g15
g3
Ntp5971
Rp5972
(dp5973
g19
(I-1
I2
tp5974
sbag1
(g15
g3
Ntp5975
Rp5976
(dp5977
g19
(I-1
I1
tp5978
sbasg65
I9
sg66
S'HHPP'
p5979
sg68
S'URULULDD'
p5980
sg70
Nsg71
g72
sbag1
(g2
g3
Ntp5981
Rp5982
(dp5983
g7
I3
sg8
S'PHPPHPHHH'
p5984
sg10
I01
sg11
I33
sg12
I00
sg13
(lp5985
g1
(g15
g3
Ntp5986
Rp5987
(dp5988
g19
g20
sbag1
(g15
g3
Ntp5989
Rp5990
(dp5991
g19
(I0
I1
tp5992
sbag1
(g15
g3
Ntp5993
Rp5994
(dp5995
g19
(I1
I1
tp5996
sbag1
(g15
g3
Ntp5997
Rp5998
(dp5999
g19
(I1
I2
tp6000
sbag1
(g15
g3
Ntp6001
Rp6002
(dp6003
g19
(I0
I2
tp6004
sbag1
(g15
g3
Ntp6005
Rp6006
(dp6007
g19
(I0
I3
tp6008
sbag1
(g15
g3
Ntp6009
Rp6010
(dp6011
g19
(I-1
I3
tp6012
sbag1
(g15
g3
Ntp6013
Rp6014
(dp6015
g19
(I-1
I2
tp6016
sbag1
(g15
g3
Ntp6017
Rp6018
(dp6019
g19
(I-1
I1
tp6020
sbasg65
I9
sg66
S'HHHPH'
p6021
sg68
g5980
sg70
Nsg71
g72
sbag1
(g2
g3
Ntp6022
Rp6023
(dp6024
g7
I3
sg8
S'HHPPPPPHPPHP'
p6025
sg10
I00
sg11
I33
sg12
I01
sg13
(lp6026
g1
(g15
g3
Ntp6027
Rp6028
(dp6029
g19
g20
sbag1
(g15
g3
Ntp6030
Rp6031
(dp6032
g19
(I0
I1
tp6033
sbag1
(g15
g3
Ntp6034
Rp6035
(dp6036
g19
(I1
I1
tp6037
sbag1
(g15
g3
Ntp6038
Rp6039
(dp6040
g19
(I1
I0
tp6041
sbag1
(g15
g3
Ntp6042
Rp6043
(dp6044
g19
(I1
I-1
tp6045
sbag1
(g15
g3
Ntp6046
Rp6047
(dp6048
g19
(I0
I-1
tp6049
sbag1
(g15
g3
Ntp6050
Rp6051
(dp6052
g19
(I-1
I-1
tp6053
sbag1
(g15
g3
Ntp6054
Rp6055
(dp6056
g19
(I-1
I0
tp6057
sbag1
(g15
g3
Ntp6058
Rp6059
(dp6060
g19
(I-2
I0
tp6061
sbag1
(g15
g3
Ntp6062
Rp6063
(dp6064
g19
(I-2
I1
tp6065
sbag1
(g15
g3
Ntp6066
Rp6067
(dp6068
g19
(I-1
I1
tp6069
sbag1
(g15
g3
Ntp6070
Rp6071
(dp6072
g19
(I-1
I2
tp6073
sbasg65
I12
sg66
g72
sg68
S'URDDLLULURU'
p6074
sg70
Nsg71
S'HHPP'
p6075
sbag1
(g2
g3
Ntp6076
Rp6077
(dp6078
g7
I4
sg8
S'HHPHPPPHPPHP'
p6079
sg10
I00
sg11
I33
sg12
I01
sg13
(lp6080
g1
(g15
g3
Ntp6081
Rp6082
(dp6083
g19
g20
sbag1
(g15
g3
Ntp6084
Rp6085
(dp6086
g19
(I0
I1
tp6087
sbag1
(g15
g3
Ntp6088
Rp6089
(dp6090
g19
(I1
I1
tp6091
sbag1
(g15
g3
Ntp6092
Rp6093
(dp6094
g19
(I1
I0
tp6095
sbag1
(g15
g3
Ntp6096
Rp6097
(dp6098
g19
(I1
I-1
tp6099
sbag1
(g15
g3
Ntp6100
Rp6101
(dp6102
g19
(I0
I-1
tp6103
sbag1
(g15
g3
Ntp6104
Rp6105
(dp6106
g19
(I-1
I-1
tp6107
sbag1
(g15
g3
Ntp6108
Rp6109
(dp6110
g19
(I-1
I0
tp6111
sbag1
(g15
g3
Ntp6112
Rp6113
(dp6114
g19
(I-2
I0
tp6115
sbag1
(g15
g3
Ntp6116
Rp6117
(dp6118
g19
(I-2
I1
tp6119
sbag1
(g15
g3
Ntp6120
Rp6121
(dp6122
g19
(I-1
I1
tp6123
sbag1
(g15
g3
Ntp6124
Rp6125
(dp6126
g19
(I-1
I2
tp6127
sbasg65
I12
sg66
g72
sg68
g6074
sg70
Nsg71
S'HHPH'
p6128
sbag1
(g2
g3
Ntp6129
Rp6130
(dp6131
g7
I4
sg8
S'HHPPPHPHPPHP'
p6132
sg10
I00
sg11
I33
sg12
I01
sg13
(lp6133
g1
(g15
g3
Ntp6134
Rp6135
(dp6136
g19
g20
sbag1
(g15
g3
Ntp6137
Rp6138
(dp6139
g19
(I0
I1
tp6140
sbag1
(g15
g3
Ntp6141
Rp6142
(dp6143
g19
(I1
I1
tp6144
sbag1
(g15
g3
Ntp6145
Rp6146
(dp6147
g19
(I1
I0
tp6148
sbag1
(g15
g3
Ntp6149
Rp6150
(dp6151
g19
(I1
I-1
tp6152
sbag1
(g15
g3
Ntp6153
Rp6154
(dp6155
g19
(I0
I-1
tp6156
sbag1
(g15
g3
Ntp6157
Rp6158
(dp6159
g19
(I-1
I-1
tp6160
sbag1
(g15
g3
Ntp6161
Rp6162
(dp6163
g19
(I-1
I0
tp6164
sbag1
(g15
g3
Ntp6165
Rp6166
(dp6167
g19
(I-2
I0
tp6168
sbag1
(g15
g3
Ntp6169
Rp6170
(dp6171
g19
(I-2
I1
tp6172
sbag1
(g15
g3
Ntp6173
Rp6174
(dp6175
g19
(I-1
I1
tp6176
sbag1
(g15
g3
Ntp6177
Rp6178
(dp6179
g19
(I-1
I2
tp6180
sbasg65
I12
sg66
g72
sg68
g6074
sg70
Nsg71
S'HHPP'
p6181
sbag1
(g2
g3
Ntp6182
Rp6183
(dp6184
g7
I5
sg8
S'HHPHPHPHPPHP'
p6185
sg10
I00
sg11
I33
sg12
I01
sg13
(lp6186
g1
(g15
g3
Ntp6187
Rp6188
(dp6189
g19
g20
sbag1
(g15
g3
Ntp6190
Rp6191
(dp6192
g19
(I0
I1
tp6193
sbag1
(g15
g3
Ntp6194
Rp6195
(dp6196
g19
(I1
I1
tp6197
sbag1
(g15
g3
Ntp6198
Rp6199
(dp6200
g19
(I1
I0
tp6201
sbag1
(g15
g3
Ntp6202
Rp6203
(dp6204
g19
(I1
I-1
tp6205
sbag1
(g15
g3
Ntp6206
Rp6207
(dp6208
g19
(I0
I-1
tp6209
sbag1
(g15
g3
Ntp6210
Rp6211
(dp6212
g19
(I-1
I-1
tp6213
sbag1
(g15
g3
Ntp6214
Rp6215
(dp6216
g19
(I-1
I0
tp6217
sbag1
(g15
g3
Ntp6218
Rp6219
(dp6220
g19
(I-2
I0
tp6221
sbag1
(g15
g3
Ntp6222
Rp6223
(dp6224
g19
(I-2
I1
tp6225
sbag1
(g15
g3
Ntp6226
Rp6227
(dp6228
g19
(I-1
I1
tp6229
sbag1
(g15
g3
Ntp6230
Rp6231
(dp6232
g19
(I-1
I2
tp6233
sbasg65
I12
sg66
g72
sg68
g6074
sg70
Nsg71
S'HHPH'
p6234
sbag1
(g2
g3
Ntp6235
Rp6236
(dp6237
g7
I5
sg8
S'HHPHPHPHPHHP'
p6238
sg10
I00
sg11
I33
sg12
I01
sg13
(lp6239
g1
(g15
g3
Ntp6240
Rp6241
(dp6242
g19
g20
sbag1
(g15
g3
Ntp6243
Rp6244
(dp6245
g19
(I0
I1
tp6246
sbag1
(g15
g3
Ntp6247
Rp6248
(dp6249
g19
(I1
I1
tp6250
sbag1
(g15
g3
Ntp6251
Rp6252
(dp6253
g19
(I1
I0
tp6254
sbag1
(g15
g3
Ntp6255
Rp6256
(dp6257
g19
(I1
I-1
tp6258
sbag1
(g15
g3
Ntp6259
Rp6260
(dp6261
g19
(I0
I-1
tp6262
sbag1
(g15
g3
Ntp6263
Rp6264
(dp6265
g19
(I-1
I-1
tp6266
sbag1
(g15
g3
Ntp6267
Rp6268
(dp6269
g19
(I-1
I0
tp6270
sbag1
(g15
g3
Ntp6271
Rp6272
(dp6273
g19
(I-2
I0
tp6274
sbag1
(g15
g3
Ntp6275
Rp6276
(dp6277
g19
(I-2
I1
tp6278
sbag1
(g15
g3
Ntp6279
Rp6280
(dp6281
g19
(I-1
I1
tp6282
sbag1
(g15
g3
Ntp6283
Rp6284
(dp6285
g19
(I-1
I2
tp6286
sbasg65
I12
sg66
g72
sg68
g6074
sg70
Nsg71
S'HHPH'
p6287
sbag1
(g2
g3
Ntp6288
Rp6289
(dp6290
g7
I4
sg8
S'PHPHPPHHPPHP'
p6291
sg10
I00
sg11
I33
sg12
I01
sg13
(lp6292
g1
(g15
g3
Ntp6293
Rp6294
(dp6295
g19
g20
sbag1
(g15
g3
Ntp6296
Rp6297
(dp6298
g19
(I0
I1
tp6299
sbag1
(g15
g3
Ntp6300
Rp6301
(dp6302
g19
(I1
I1
tp6303
sbag1
(g15
g3
Ntp6304
Rp6305
(dp6306
g19
(I1
I2
tp6307
sbag1
(g15
g3
Ntp6308
Rp6309
(dp6310
g19
(I1
I3
tp6311
sbag1
(g15
g3
Ntp6312
Rp6313
(dp6314
g19
(I0
I3
tp6315
sbag1
(g15
g3
Ntp6316
Rp6317
(dp6318
g19
(I0
I2
tp6319
sbag1
(g15
g3
Ntp6320
Rp6321
(dp6322
g19
(I-1
I2
tp6323
sbag1
(g15
g3
Ntp6324
Rp6325
(dp6326
g19
(I-2
I2
tp6327
sbag1
(g15
g3
Ntp6328
Rp6329
(dp6330
g19
(I-2
I1
tp6331
sbag1
(g15
g3
Ntp6332
Rp6333
(dp6334
g19
(I-1
I1
tp6335
sbag1
(g15
g3
Ntp6336
Rp6337
(dp6338
g19
(I-1
I0
tp6339
sbasg65
I12
sg66
g72
sg68
S'URUULDLLDRD'
p6340
sg70
Nsg71
S'HHPP'
p6341
sbag1
(g2
g3
Ntp6342
Rp6343
(dp6344
g7
I4
sg8
S'PHPHPPHHPPHH'
p6345
sg10
I00
sg11
I33
sg12
I01
sg13
(lp6346
g1
(g15
g3
Ntp6347
Rp6348
(dp6349
g19
g20
sbag1
(g15
g3
Ntp6350
Rp6351
(dp6352
g19
(I0
I1
tp6353
sbag1
(g15
g3
Ntp6354
Rp6355
(dp6356
g19
(I1
I1
tp6357
sbag1
(g15
g3
Ntp6358
Rp6359
(dp6360
g19
(I1
I2
tp6361
sbag1
(g15
g3
Ntp6362
Rp6363
(dp6364
g19
(I1
I3
tp6365
sbag1
(g15
g3
Ntp6366
Rp6367
(dp6368
g19
(I0
I3
tp6369
sbag1
(g15
g3
Ntp6370
Rp6371
(dp6372
g19
(I0
I2
tp6373
sbag1
(g15
g3
Ntp6374
Rp6375
(dp6376
g19
(I-1
I2
tp6377
sbag1
(g15
g3
Ntp6378
Rp6379
(dp6380
g19
(I-2
I2
tp6381
sbag1
(g15
g3
Ntp6382
Rp6383
(dp6384
g19
(I-2
I1
tp6385
sbag1
(g15
g3
Ntp6386
Rp6387
(dp6388
g19
(I-1
I1
tp6389
sbag1
(g15
g3
Ntp6390
Rp6391
(dp6392
g19
(I-1
I0
tp6393
sbasg65
I12
sg66
g72
sg68
g6340
sg70
Nsg71
S'HHPP'
p6394
sbag1
(g2
g3
Ntp6395
Rp6396
(dp6397
g7
I5
sg8
S'HHPPHPHPHPPH'
p6398
sg10
I00
sg11
I33
sg12
I01
sg13
(lp6399
g1
(g15
g3
Ntp6400
Rp6401
(dp6402
g19
g20
sbag1
(g15
g3
Ntp6403
Rp6404
(dp6405
g19
(I0
I1
tp6406
sbag1
(g15
g3
Ntp6407
Rp6408
(dp6409
g19
(I1
I1
tp6410
sbag1
(g15
g3
Ntp6411
Rp6412
(dp6413
g19
(I1
I2
tp6414
sbag1
(g15
g3
Ntp6415
Rp6416
(dp6417
g19
(I0
I2
tp6418
sbag1
(g15
g3
Ntp6419
Rp6420
(dp6421
g19
(I-1
I2
tp6422
sbag1
(g15
g3
Ntp6423
Rp6424
(dp6425
g19
(I-1
I1
tp6426
sbag1
(g15
g3
Ntp6427
Rp6428
(dp6429
g19
(I-2
I1
tp6430
sbag1
(g15
g3
Ntp6431
Rp6432
(dp6433
g19
(I-2
I0
tp6434
sbag1
(g15
g3
Ntp6435
Rp6436
(dp6437
g19
(I-2
I-1
tp6438
sbag1
(g15
g3
Ntp6439
Rp6440
(dp6441
g19
(I-1
I-1
tp6442
sbag1
(g15
g3
Ntp6443
Rp6444
(dp6445
g19
(I-1
I0
tp6446
sbasg65
I12
sg66
g72
sg68
S'URULLDLDDRU'
p6447
sg70
Nsg71
S'HHPP'
p6448
sbag1
(g2
g3
Ntp6449
Rp6450
(dp6451
g7
I5
sg8
S'HHHPHPHPHPPH'
p6452
sg10
I00
sg11
I33
sg12
I01
sg13
(lp6453
g1
(g15
g3
Ntp6454
Rp6455
(dp6456
g19
g20
sbag1
(g15
g3
Ntp6457
Rp6458
(dp6459
g19
(I0
I1
tp6460
sbag1
(g15
g3
Ntp6461
Rp6462
(dp6463
g19
(I1
I1
tp6464
sbag1
(g15
g3
Ntp6465
Rp6466
(dp6467
g19
(I1
I2
tp6468
sbag1
(g15
g3
Ntp6469
Rp6470
(dp6471
g19
(I0
I2
tp6472
sbag1
(g15
g3
Ntp6473
Rp6474
(dp6475
g19
(I-1
I2
tp6476
sbag1
(g15
g3
Ntp6477
Rp6478
(dp6479
g19
(I-1
I1
tp6480
sbag1
(g15
g3
Ntp6481
Rp6482
(dp6483
g19
(I-2
I1
tp6484
sbag1
(g15
g3
Ntp6485
Rp6486
(dp6487
g19
(I-2
I0
tp6488
sbag1
(g15
g3
Ntp6489
Rp6490
(dp6491
g19
(I-2
I-1
tp6492
sbag1
(g15
g3
Ntp6493
Rp6494
(dp6495
g19
(I-1
I-1
tp6496
sbag1
(g15
g3
Ntp6497
Rp6498
(dp6499
g19
(I-1
I0
tp6500
sbasg65
I12
sg66
g72
sg68
g6447
sg70
Nsg71
S'HHHPH'
p6501
sbag1
(g2
g3
Ntp6502
Rp6503
(dp6504
g7
I4
sg8
S'HHPPHPPPPHPH'
p6505
sg10
I01
sg11
I34
sg12
I01
sg13
(lp6506
g1
(g15
g3
Ntp6507
Rp6508
(dp6509
g19
g20
sbag1
(g15
g3
Ntp6510
Rp6511
(dp6512
g19
(I0
I1
tp6513
sbag1
(g15
g3
Ntp6514
Rp6515
(dp6516
g19
(I0
I2
tp6517
sbag1
(g15
g3
Ntp6518
Rp6519
(dp6520
g19
(I1
I2
tp6521
sbag1
(g15
g3
Ntp6522
Rp6523
(dp6524
g19
(I1
I1
tp6525
sbag1
(g15
g3
Ntp6526
Rp6527
(dp6528
g19
(I2
I1
tp6529
sbag1
(g15
g3
Ntp6530
Rp6531
(dp6532
g19
(I3
I1
tp6533
sbag1
(g15
g3
Ntp6534
Rp6535
(dp6536
g19
(I3
I0
tp6537
sbag1
(g15
g3
Ntp6538
Rp6539
(dp6540
g19
(I2
I0
tp6541
sbag1
(g15
g3
Ntp6542
Rp6543
(dp6544
g19
(I1
I0
tp6545
sbag1
(g15
g3
Ntp6546
Rp6547
(dp6548
g19
(I1
I-1
tp6549
sbag1
(g15
g3
Ntp6550
Rp6551
(dp6552
g19
(I0
I-1
tp6553
sbasg65
I12
sg66
S'HHHPH'
p6554
sg68
S'UURDRRDLLDL'
p6555
sg70
(I12
S'HHPP'
p6556
g6554
tp6557
sg71
g6556
sbag1
(g2
g3
Ntp6558
Rp6559
(dp6560
g7
I3
sg8
S'HHPPHPPH'
p6561
sg10
I01
sg11
I35
sg12
I01
sg13
(lp6562
g1
(g15
g3
Ntp6563
Rp6564
(dp6565
g19
g20
sbag1
(g15
g3
Ntp6566
Rp6567
(dp6568
g19
(I0
I1
tp6569
sbag1
(g15
g3
Ntp6570
Rp6571
(dp6572
g19
(I0
I2
tp6573
sbag1
(g15
g3
Ntp6574
Rp6575
(dp6576
g19
(I1
I2
tp6577
sbag1
(g15
g3
Ntp6578
Rp6579
(dp6580
g19
(I1
I1
tp6581
sbag1
(g15
g3
Ntp6582
Rp6583
(dp6584
g19
(I2
I1
tp6585
sbag1
(g15
g3
Ntp6586
Rp6587
(dp6588
g19
(I2
I0
tp6589
sbag1
(g15
g3
Ntp6590
Rp6591
(dp6592
g19
(I1
I0
tp6593
sbasg65
I8
sg66
S'HHPHH'
p6594
sg68
S'UURDRDL'
p6595
sg70
(I8
S'HHPP'
p6596
g6594
tp6597
sg71
g6596
sbag1
(g2
g3
Ntp6598
Rp6599
(dp6600
g7
I5
sg8
S'HPHPPHPPHPPH'
p6601
sg10
I00
sg11
I35
sg12
I00
sg13
(lp6602
g1
(g15
g3
Ntp6603
Rp6604
(dp6605
g19
g20
sbag1
(g15
g3
Ntp6606
Rp6607
(dp6608
g19
(I0
I1
tp6609
sbag1
(g15
g3
Ntp6610
Rp6611
(dp6612
g19
(I1
I1
tp6613
sbag1
(g15
g3
Ntp6614
Rp6615
(dp6616
g19
(I1
I2
tp6617
sbag1
(g15
g3
Ntp6618
Rp6619
(dp6620
g19
(I2
I2
tp6621
sbag1
(g15
g3
Ntp6622
Rp6623
(dp6624
g19
(I2
I1
tp6625
sbag1
(g15
g3
Ntp6626
Rp6627
(dp6628
g19
(I3
I1
tp6629
sbag1
(g15
g3
Ntp6630
Rp6631
(dp6632
g19
(I3
I0
tp6633
sbag1
(g15
g3
Ntp6634
Rp6635
(dp6636
g19
(I2
I0
tp6637
sbag1
(g15
g3
Ntp6638
Rp6639
(dp6640
g19
(I2
I-1
tp6641
sbag1
(g15
g3
Ntp6642
Rp6643
(dp6644
g19
(I1
I-1
tp6645
sbag1
(g15
g3
Ntp6646
Rp6647
(dp6648
g19
(I1
I0
tp6649
sbasg65
I12
sg66
g72
sg68
S'URURDRDLDLU'
p6650
sg70
Nsg71
g72
sbag1
(g2
g3
Ntp6651
Rp6652
(dp6653
g7
I5
sg8
S'HHHPPHPPHPPH'
p6654
sg10
I01
sg11
I36
sg12
I01
sg13
(lp6655
g1
(g15
g3
Ntp6656
Rp6657
(dp6658
g19
g20
sbag1
(g15
g3
Ntp6659
Rp6660
(dp6661
g19
(I0
I1
tp6662
sbag1
(g15
g3
Ntp6663
Rp6664
(dp6665
g19
(I1
I1
tp6666
sbag1
(g15
g3
Ntp6667
Rp6668
(dp6669
g19
(I1
I2
tp6670
sbag1
(g15
g3
Ntp6671
Rp6672
(dp6673
g19
(I2
I2
tp6674
sbag1
(g15
g3
Ntp6675
Rp6676
(dp6677
g19
(I2
I1
tp6678
sbag1
(g15
g3
Ntp6679
Rp6680
(dp6681
g19
(I3
I1
tp6682
sbag1
(g15
g3
Ntp6683
Rp6684
(dp6685
g19
(I3
I0
tp6686
sbag1
(g15
g3
Ntp6687
Rp6688
(dp6689
g19
(I2
I0
tp6690
sbag1
(g15
g3
Ntp6691
Rp6692
(dp6693
g19
(I2
I-1
tp6694
sbag1
(g15
g3
Ntp6695
Rp6696
(dp6697
g19
(I1
I-1
tp6698
sbag1
(g15
g3
Ntp6699
Rp6700
(dp6701
g19
(I1
I0
tp6702
sbasg65
I12
sg66
S'HHPH'
p6703
sg68
g6650
sg70
(I12
S'HHHPP'
p6704
g6703
tp6705
sg71
g6704
sbag1
(g2
g3
Ntp6706
Rp6707
(dp6708
g7
I5
sg8
S'HPHPHHPPHPPH'
p6709
sg10
I00
sg11
I36
sg12
I01
sg13
(lp6710
g1
(g15
g3
Ntp6711
Rp6712
(dp6713
g19
g20
sbag1
(g15
g3
Ntp6714
Rp6715
(dp6716
g19
(I0
I1
tp6717
sbag1
(g15
g3
Ntp6718
Rp6719
(dp6720
g19
(I1
I1
tp6721
sbag1
(g15
g3
Ntp6722
Rp6723
(dp6724
g19
(I1
I2
tp6725
sbag1
(g15
g3
Ntp6726
Rp6727
(dp6728
g19
(I2
I2
tp6729
sbag1
(g15
g3
Ntp6730
Rp6731
(dp6732
g19
(I2
I1
tp6733
sbag1
(g15
g3
Ntp6734
Rp6735
(dp6736
g19
(I3
I1
tp6737
sbag1
(g15
g3
Ntp6738
Rp6739
(dp6740
g19
(I3
I0
tp6741
sbag1
(g15
g3
Ntp6742
Rp6743
(dp6744
g19
(I2
I0
tp6745
sbag1
(g15
g3
Ntp6746
Rp6747
(dp6748
g19
(I2
I-1
tp6749
sbag1
(g15
g3
Ntp6750
Rp6751
(dp6752
g19
(I1
I-1
tp6753
sbag1
(g15
g3
Ntp6754
Rp6755
(dp6756
g19
(I1
I0
tp6757
sbasg65
I12
sg66
g72
sg68
g6650
sg70
Nsg71
S'HHPP'
p6758
sbag1
(g2
g3
Ntp6759
Rp6760
(dp6761
g7
I5
sg8
S'HPHPPHPPHPHH'
p6762
sg10
I00
sg11
I36
sg12
I00
sg13
(lp6763
g1
(g15
g3
Ntp6764
Rp6765
(dp6766
g19
g20
sbag1
(g15
g3
Ntp6767
Rp6768
(dp6769
g19
(I0
I1
tp6770
sbag1
(g15
g3
Ntp6771
Rp6772
(dp6773
g19
(I1
I1
tp6774
sbag1
(g15
g3
Ntp6775
Rp6776
(dp6777
g19
(I1
I2
tp6778
sbag1
(g15
g3
Ntp6779
Rp6780
(dp6781
g19
(I2
I2
tp6782
sbag1
(g15
g3
Ntp6783
Rp6784
(dp6785
g19
(I2
I1
tp6786
sbag1
(g15
g3
Ntp6787
Rp6788
(dp6789
g19
(I3
I1
tp6790
sbag1
(g15
g3
Ntp6791
Rp6792
(dp6793
g19
(I3
I0
tp6794
sbag1
(g15
g3
Ntp6795
Rp6796
(dp6797
g19
(I2
I0
tp6798
sbag1
(g15
g3
Ntp6799
Rp6800
(dp6801
g19
(I2
I-1
tp6802
sbag1
(g15
g3
Ntp6803
Rp6804
(dp6805
g19
(I1
I-1
tp6806
sbag1
(g15
g3
Ntp6807
Rp6808
(dp6809
g19
(I1
I0
tp6810
sbasg65
I12
sg66
g72
sg68
g6650
sg70
Nsg71
g72
sbag1
(g2
g3
Ntp6811
Rp6812
(dp6813
g7
I5
sg8
S'HPHPPHPHPHPH'
p6814
sg10
I00
sg11
I36
sg12
I00
sg13
(lp6815
g1
(g15
g3
Ntp6816
Rp6817
(dp6818
g19
g20
sbag1
(g15
g3
Ntp6819
Rp6820
(dp6821
g19
(I0
I1
tp6822
sbag1
(g15
g3
Ntp6823
Rp6824
(dp6825
g19
(I1
I1
tp6826
sbag1
(g15
g3
Ntp6827
Rp6828
(dp6829
g19
(I1
I2
tp6830
sbag1
(g15
g3
Ntp6831
Rp6832
(dp6833
g19
(I2
I2
tp6834
sbag1
(g15
g3
Ntp6835
Rp6836
(dp6837
g19
(I2
I1
tp6838
sbag1
(g15
g3
Ntp6839
Rp6840
(dp6841
g19
(I2
I0
tp6842
sbag1
(g15
g3
Ntp6843
Rp6844
(dp6845
g19
(I1
I0
tp6846
sbag1
(g15
g3
Ntp6847
Rp6848
(dp6849
g19
(I1
I-1
tp6850
sbag1
(g15
g3
Ntp6851
Rp6852
(dp6853
g19
(I0
I-1
tp6854
sbag1
(g15
g3
Ntp6855
Rp6856
(dp6857
g19
(I-1
I-1
tp6858
sbag1
(g15
g3
Ntp6859
Rp6860
(dp6861
g19
(I-1
I0
tp6862
sbasg65
I12
sg66
g72
sg68
S'URURDDLDLLU'
p6863
sg70
Nsg71
g72
sbag1
(g2
g3
Ntp6864
Rp6865
(dp6866
g7
I5
sg8
S'HHHPPHPHPHPH'
p6867
sg10
I00
sg11
I36
sg12
I01
sg13
(lp6868
g1
(g15
g3
Ntp6869
Rp6870
(dp6871
g19
g20
sbag1
(g15
g3
Ntp6872
Rp6873
(dp6874
g19
(I0
I1
tp6875
sbag1
(g15
g3
Ntp6876
Rp6877
(dp6878
g19
(I1
I1
tp6879
sbag1
(g15
g3
Ntp6880
Rp6881
(dp6882
g19
(I1
I2
tp6883
sbag1
(g15
g3
Ntp6884
Rp6885
(dp6886
g19
(I2
I2
tp6887
sbag1
(g15
g3
Ntp6888
Rp6889
(dp6890
g19
(I2
I1
tp6891
sbag1
(g15
g3
Ntp6892
Rp6893
(dp6894
g19
(I2
I0
tp6895
sbag1
(g15
g3
Ntp6896
Rp6897
(dp6898
g19
(I1
I0
tp6899
sbag1
(g15
g3
Ntp6900
Rp6901
(dp6902
g19
(I1
I-1
tp6903
sbag1
(g15
g3
Ntp6904
Rp6905
(dp6906
g19
(I0
I-1
tp6907
sbag1
(g15
g3
Ntp6908
Rp6909
(dp6910
g19
(I-1
I-1
tp6911
sbag1
(g15
g3
Ntp6912
Rp6913
(dp6914
g19
(I-1
I0
tp6915
sbasg65
I12
sg66
g72
sg68
g6863
sg70
Nsg71
S'HHHPP'
p6916
sbag1
(g2
g3
Ntp6917
Rp6918
(dp6919
g7
I5
sg8
S'HPHHPHPHPHPH'
p6920
sg10
I00
sg11
I36
sg12
I01
sg13
(lp6921
g1
(g15
g3
Ntp6922
Rp6923
(dp6924
g19
g20
sbag1
(g15
g3
Ntp6925
Rp6926
(dp6927
g19
(I0
I1
tp6928
sbag1
(g15
g3
Ntp6929
Rp6930
(dp6931
g19
(I1
I1
tp6932
sbag1
(g15
g3
Ntp6933
Rp6934
(dp6935
g19
(I1
I2
tp6936
sbag1
(g15
g3
Ntp6937
Rp6938
(dp6939
g19
(I2
I2
tp6940
sbag1
(g15
g3
Ntp6941
Rp6942
(dp6943
g19
(I2
I1
tp6944
sbag1
(g15
g3
Ntp6945
Rp6946
(dp6947
g19
(I2
I0
tp6948
sbag1
(g15
g3
Ntp6949
Rp6950
(dp6951
g19
(I1
I0
tp6952
sbag1
(g15
g3
Ntp6953
Rp6954
(dp6955
g19
(I1
I-1
tp6956
sbag1
(g15
g3
Ntp6957
Rp6958
(dp6959
g19
(I0
I-1
tp6960
sbag1
(g15
g3
Ntp6961
Rp6962
(dp6963
g19
(I-1
I-1
tp6964
sbag1
(g15
g3
Ntp6965
Rp6966
(dp6967
g19
(I-1
I0
tp6968
sbasg65
I12
sg66
g72
sg68
g6863
sg70
Nsg71
S'HHPH'
p6969
sbag1
(g2
g3
Ntp6970
Rp6971
(dp6972
g7
I5
sg8
S'HHHHPHPHPHPH'
p6973
sg10
I00
sg11
I36
sg12
I01
sg13
(lp6974
g1
(g15
g3
Ntp6975
Rp6976
(dp6977
g19
g20
sbag1
(g15
g3
Ntp6978
Rp6979
(dp6980
g19
(I0
I1
tp6981
sbag1
(g15
g3
Ntp6982
Rp6983
(dp6984
g19
(I1
I1
tp6985
sbag1
(g15
g3
Ntp6986
Rp6987
(dp6988
g19
(I1
I2
tp6989
sbag1
(g15
g3
Ntp6990
Rp6991
(dp6992
g19
(I2
I2
tp6993
sbag1
(g15
g3
Ntp6994
Rp6995
(dp6996
g19
(I2
I1
tp6997
sbag1
(g15
g3
Ntp6998
Rp6999
(dp7000
g19
(I2
I0
tp7001
sbag1
(g15
g3
Ntp7002
Rp7003
(dp7004
g19
(I1
I0
tp7005
sbag1
(g15
g3
Ntp7006
Rp7007
(dp7008
g19
(I1
I-1
tp7009
sbag1
(g15
g3
Ntp7010
Rp7011
(dp7012
g19
(I0
I-1
tp7013
sbag1
(g15
g3
Ntp7014
Rp7015
(dp7016
g19
(I-1
I-1
tp7017
sbag1
(g15
g3
Ntp7018
Rp7019
(dp7020
g19
(I-1
I0
tp7021
sbasg65
I12
sg66
g72
sg68
g6863
sg70
Nsg71
S'HHHHPH'
p7022
sbag1
(g2
g3
Ntp7023
Rp7024
(dp7025
g7
I4
sg8
S'HPHPPHPPHH'
p7026
sg10
I01
sg11
I36
sg12
I00
sg13
(lp7027
g1
(g15
g3
Ntp7028
Rp7029
(dp7030
g19
g20
sbag1
(g15
g3
Ntp7031
Rp7032
(dp7033
g19
(I0
I1
tp7034
sbag1
(g15
g3
Ntp7035
Rp7036
(dp7037
g19
(I1
I1
tp7038
sbag1
(g15
g3
Ntp7039
Rp7040
(dp7041
g19
(I1
I2
tp7042
sbag1
(g15
g3
Ntp7043
Rp7044
(dp7045
g19
(I2
I2
tp7046
sbag1
(g15
g3
Ntp7047
Rp7048
(dp7049
g19
(I2
I1
tp7050
sbag1
(g15
g3
Ntp7051
Rp7052
(dp7053
g19
(I3
I1
tp7054
sbag1
(g15
g3
Ntp7055
Rp7056
(dp7057
g19
(I3
I0
tp7058
sbag1
(g15
g3
Ntp7059
Rp7060
(dp7061
g19
(I2
I0
tp7062
sbag1
(g15
g3
Ntp7063
Rp7064
(dp7065
g19
(I1
I0
tp7066
sbasg65
I10
sg66
S'HHHPH'
p7067
sg68
S'URURDRDLL'
p7068
sg70
Nsg71
g72
sbag1
(g2
g3
Ntp7069
Rp7070
(dp7071
g7
I2
sg8
S'PHPPHPH'
p7072
sg10
I00
sg11
I36
sg12
I00
sg13
(lp7073
g1
(g15
g3
Ntp7074
Rp7075
(dp7076
g19
g20
sbag1
(g15
g3
Ntp7077
Rp7078
(dp7079
g19
(I0
I1
tp7080
sbag1
(g15
g3
Ntp7081
Rp7082
(dp7083
g19
(I1
I1
tp7084
sbag1
(g15
g3
Ntp7085
Rp7086
(dp7087
g19
(I1
I2
tp7088
sbag1
(g15
g3
Ntp7089
Rp7090
(dp7091
g19
(I0
I2
tp7092
sbag1
(g15
g3
Ntp7093
Rp7094
(dp7095
g19
(I-1
I2
tp7096
sbag1
(g15
g3
Ntp7097
Rp7098
(dp7099
g19
(I-1
I1
tp7100
sbasg65
I7
sg66
g72
sg68
S'URULLD'
p7101
sg70
Nsg71
g72
sbag1
(g2
g3
Ntp7102
Rp7103
(dp7104
g7
I2
sg8
S'HHPPHPH'
p7105
sg10
I00
sg11
I36
sg12
I01
sg13
(lp7106
g1
(g15
g3
Ntp7107
Rp7108
(dp7109
g19
g20
sbag1
(g15
g3
Ntp7110
Rp7111
(dp7112
g19
(I0
I1
tp7113
sbag1
(g15
g3
Ntp7114
Rp7115
(dp7116
g19
(I1
I1
tp7117
sbag1
(g15
g3
Ntp7118
Rp7119
(dp7120
g19
(I1
I2
tp7121
sbag1
(g15
g3
Ntp7122
Rp7123
(dp7124
g19
(I0
I2
tp7125
sbag1
(g15
g3
Ntp7126
Rp7127
(dp7128
g19
(I-1
I2
tp7129
sbag1
(g15
g3
Ntp7130
Rp7131
(dp7132
g19
(I-1
I1
tp7133
sbasg65
I7
sg66
g72
sg68
g7101
sg70
Nsg71
S'HHPP'
p7134
sbag1
(g2
g3
Ntp7135
Rp7136
(dp7137
g7
I2
sg8
S'PHHPHPH'
p7138
sg10
I00
sg11
I36
sg12
I01
sg13
(lp7139
g1
(g15
g3
Ntp7140
Rp7141
(dp7142
g19
g20
sbag1
(g15
g3
Ntp7143
Rp7144
(dp7145
g19
(I0
I1
tp7146
sbag1
(g15
g3
Ntp7147
Rp7148
(dp7149
g19
(I1
I1
tp7150
sbag1
(g15
g3
Ntp7151
Rp7152
(dp7153
g19
(I1
I2
tp7154
sbag1
(g15
g3
Ntp7155
Rp7156
(dp7157
g19
(I0
I2
tp7158
sbag1
(g15
g3
Ntp7159
Rp7160
(dp7161
g19
(I-1
I2
tp7162
sbag1
(g15
g3
Ntp7163
Rp7164
(dp7165
g19
(I-1
I1
tp7166
sbasg65
I7
sg66
g72
sg68
g7101
sg70
Nsg71
S'HHPH'
p7167
sbag1
(g2
g3
Ntp7168
Rp7169
(dp7170
g7
I2
sg8
S'HHHPHPH'
p7171
sg10
I00
sg11
I36
sg12
I01
sg13
(lp7172
g1
(g15
g3
Ntp7173
Rp7174
(dp7175
g19
g20
sbag1
(g15
g3
Ntp7176
Rp7177
(dp7178
g19
(I0
I1
tp7179
sbag1
(g15
g3
Ntp7180
Rp7181
(dp7182
g19
(I1
I1
tp7183
sbag1
(g15
g3
Ntp7184
Rp7185
(dp7186
g19
(I1
I2
tp7187
sbag1
(g15
g3
Ntp7188
Rp7189
(dp7190
g19
(I0
I2
tp7191
sbag1
(g15
g3
Ntp7192
Rp7193
(dp7194
g19
(I-1
I2
tp7195
sbag1
(g15
g3
Ntp7196
Rp7197
(dp7198
g19
(I-1
I1
tp7199
sbasg65
I7
sg66
g72
sg68
g7101
sg70
Nsg71
S'HHHPH'
p7200
sbag1
(g2
g3
Ntp7201
Rp7202
(dp7203
g7
I2
sg8
S'PHPPHHH'
p7204
sg10
I01
sg11
I36
sg12
I00
sg13
(lp7205
g1
(g15
g3
Ntp7206
Rp7207
(dp7208
g19
g20
sbag1
(g15
g3
Ntp7209
Rp7210
(dp7211
g19
(I0
I1
tp7212
sbag1
(g15
g3
Ntp7213
Rp7214
(dp7215
g19
(I1
I1
tp7216
sbag1
(g15
g3
Ntp7217
Rp7218
(dp7219
g19
(I1
I2
tp7220
sbag1
(g15
g3
Ntp7221
Rp7222
(dp7223
g19
(I0
I2
tp7224
sbag1
(g15
g3
Ntp7225
Rp7226
(dp7227
g19
(I-1
I2
tp7228
sbag1
(g15
g3
Ntp7229
Rp7230
(dp7231
g19
(I-1
I1
tp7232
sbasg65
I7
sg66
S'HHPHH'
p7233
sg68
g7101
sg70
Nsg71
g72
sbag1
(g2
g3
Ntp7234
Rp7235
(dp7236
g7
I4
sg8
S'PHPPHHPPHPHP'
p7237
sg10
I00
sg11
I36
sg12
I01
sg13
(lp7238
g1
(g15
g3
Ntp7239
Rp7240
(dp7241
g19
g20
sbag1
(g15
g3
Ntp7242
Rp7243
(dp7244
g19
(I0
I1
tp7245
sbag1
(g15
g3
Ntp7246
Rp7247
(dp7248
g19
(I1
I1
tp7249
sbag1
(g15
g3
Ntp7250
Rp7251
(dp7252
g19
(I1
I2
tp7253
sbag1
(g15
g3
Ntp7254
Rp7255
(dp7256
g19
(I0
I2
tp7257
sbag1
(g15
g3
Ntp7258
Rp7259
(dp7260
g19
(I-1
I2
tp7261
sbag1
(g15
g3
Ntp7262
Rp7263
(dp7264
g19
(I-1
I3
tp7265
sbag1
(g15
g3
Ntp7266
Rp7267
(dp7268
g19
(I-2
I3
tp7269
sbag1
(g15
g3
Ntp7270
Rp7271
(dp7272
g19
(I-2
I2
tp7273
sbag1
(g15
g3
Ntp7274
Rp7275
(dp7276
g19
(I-2
I1
tp7277
sbag1
(g15
g3
Ntp7278
Rp7279
(dp7280
g19
(I-1
I1
tp7281
sbag1
(g15
g3
Ntp7282
Rp7283
(dp7284
g19
(I-1
I0
tp7285
sbasg65
I12
sg66
g72
sg68
S'URULLULDDRD'
p7286
sg70
Nsg71
S'HHPP'
p7287
sbag1
(g2
g3
Ntp7288
Rp7289
(dp7290
g7
I4
sg8
S'HHPPHHPPHPHP'
p7291
sg10
I00
sg11
I36
sg12
I01
sg13
(lp7292
g1
(g15
g3
Ntp7293
Rp7294
(dp7295
g19
g20
sbag1
(g15
g3
Ntp7296
Rp7297
(dp7298
g19
(I0
I1
tp7299
sbag1
(g15
g3
Ntp7300
Rp7301
(dp7302
g19
(I1
I1
tp7303
sbag1
(g15
g3
Ntp7304
Rp7305
(dp7306
g19
(I1
I2
tp7307
sbag1
(g15
g3
Ntp7308
Rp7309
(dp7310
g19
(I0
I2
tp7311
sbag1
(g15
g3
Ntp7312
Rp7313
(dp7314
g19
(I-1
I2
tp7315
sbag1
(g15
g3
Ntp7316
Rp7317
(dp7318
g19
(I-1
I3
tp7319
sbag1
(g15
g3
Ntp7320
Rp7321
(dp7322
g19
(I-2
I3
tp7323
sbag1
(g15
g3
Ntp7324
Rp7325
(dp7326
g19
(I-2
I2
tp7327
sbag1
(g15
g3
Ntp7328
Rp7329
(dp7330
g19
(I-2
I1
tp7331
sbag1
(g15
g3
Ntp7332
Rp7333
(dp7334
g19
(I-1
I1
tp7335
sbag1
(g15
g3
Ntp7336
Rp7337
(dp7338
g19
(I-1
I0
tp7339
sbasg65
I12
sg66
g72
sg68
g7286
sg70
Nsg71
S'HHPP'
p7340
sbag1
(g2
g3
Ntp7341
Rp7342
(dp7343
g7
I4
sg8
S'PHPPHPPHPPH'
p7344
sg10
I00
sg11
I36
sg12
I00
sg13
(lp7345
g1
(g15
g3
Ntp7346
Rp7347
(dp7348
g19
g20
sbag1
(g15
g3
Ntp7349
Rp7350
(dp7351
g19
(I0
I1
tp7352
sbag1
(g15
g3
Ntp7353
Rp7354
(dp7355
g19
(I1
I1
tp7356
sbag1
(g15
g3
Ntp7357
Rp7358
(dp7359
g19
(I1
I2
tp7360
sbag1
(g15
g3
Ntp7361
Rp7362
(dp7363
g19
(I0
I2
tp7364
sbag1
(g15
g3
Ntp7365
Rp7366
(dp7367
g19
(I0
I3
tp7368
sbag1
(g15
g3
Ntp7369
Rp7370
(dp7371
g19
(I-1
I3
tp7372
sbag1
(g15
g3
Ntp7373
Rp7374
(dp7375
g19
(I-1
I2
tp7376
sbag1
(g15
g3
Ntp7377
Rp7378
(dp7379
g19
(I-2
I2
tp7380
sbag1
(g15
g3
Ntp7381
Rp7382
(dp7383
g19
(I-2
I1
tp7384
sbag1
(g15
g3
Ntp7385
Rp7386
(dp7387
g19
(I-1
I1
tp7388
sbasg65
I11
sg66
g72
sg68
S'URULULDLDR'
p7389
sg70
Nsg71
g72
sbag1
(g2
g3
Ntp7390
Rp7391
(dp7392
g7
I4
sg8
S'HHPPHPPHPPH'
p7393
sg10
I00
sg11
I36
sg12
I01
sg13
(lp7394
g1
(g15
g3
Ntp7395
Rp7396
(dp7397
g19
g20
sbag1
(g15
g3
Ntp7398
Rp7399
(dp7400
g19
(I0
I1
tp7401
sbag1
(g15
g3
Ntp7402
Rp7403
(dp7404
g19
(I1
I1
tp7405
sbag1
(g15
g3
Ntp7406
Rp7407
(dp7408
g19
(I1
I2
tp7409
sbag1
(g15
g3
Ntp7410
Rp7411
(dp7412
g19
(I0
I2
tp7413
sbag1
(g15
g3
Ntp7414
Rp7415
(dp7416
g19
(I0
I3
tp7417
sbag1
(g15
g3
Ntp7418
Rp7419
(dp7420
g19
(I-1
I3
tp7421
sbag1
(g15
g3
Ntp7422
Rp7423
(dp7424
g19
(I-1
I2
tp7425
sbag1
(g15
g3
Ntp7426
Rp7427
(dp7428
g19
(I-2
I2
tp7429
sbag1
(g15
g3
Ntp7430
Rp7431
(dp7432
g19
(I-2
I1
tp7433
sbag1
(g15
g3
Ntp7434
Rp7435
(dp7436
g19
(I-1
I1
tp7437
sbasg65
I11
sg66
g72
sg68
g7389
sg70
Nsg71
S'HHPP'
p7438
sbag1
(g2
g3
Ntp7439
Rp7440
(dp7441
g7
I4
sg8
S'PHHPHPPHPPH'
p7442
sg10
I00
sg11
I36
sg12
I01
sg13
(lp7443
g1
(g15
g3
Ntp7444
Rp7445
(dp7446
g19
g20
sbag1
(g15
g3
Ntp7447
Rp7448
(dp7449
g19
(I0
I1
tp7450
sbag1
(g15
g3
Ntp7451
Rp7452
(dp7453
g19
(I1
I1
tp7454
sbag1
(g15
g3
Ntp7455
Rp7456
(dp7457
g19
(I1
I2
tp7458
sbag1
(g15
g3
Ntp7459
Rp7460
(dp7461
g19
(I0
I2
tp7462
sbag1
(g15
g3
Ntp7463
Rp7464
(dp7465
g19
(I0
I3
tp7466
sbag1
(g15
g3
Ntp7467
Rp7468
(dp7469
g19
(I-1
I3
tp7470
sbag1
(g15
g3
Ntp7471
Rp7472
(dp7473
g19
(I-1
I2
tp7474
sbag1
(g15
g3
Ntp7475
Rp7476
(dp7477
g19
(I-2
I2
tp7478
sbag1
(g15
g3
Ntp7479
Rp7480
(dp7481
g19
(I-2
I1
tp7482
sbag1
(g15
g3
Ntp7483
Rp7484
(dp7485
g19
(I-1
I1
tp7486
sbasg65
I11
sg66
g72
sg68
g7389
sg70
Nsg71
S'HHPH'
p7487
sbag1
(g2
g3
Ntp7488
Rp7489
(dp7490
g7
I4
sg8
S'HHHPHPPHPPH'
p7491
sg10
I00
sg11
I36
sg12
I01
sg13
(lp7492
g1
(g15
g3
Ntp7493
Rp7494
(dp7495
g19
g20
sbag1
(g15
g3
Ntp7496
Rp7497
(dp7498
g19
(I0
I1
tp7499
sbag1
(g15
g3
Ntp7500
Rp7501
(dp7502
g19
(I1
I1
tp7503
sbag1
(g15
g3
Ntp7504
Rp7505
(dp7506
g19
(I1
I2
tp7507
sbag1
(g15
g3
Ntp7508
Rp7509
(dp7510
g19
(I0
I2
tp7511
sbag1
(g15
g3
Ntp7512
Rp7513
(dp7514
g19
(I0
I3
tp7515
sbag1
(g15
g3
Ntp7516
Rp7517
(dp7518
g19
(I-1
I3
tp7519
sbag1
(g15
g3
Ntp7520
Rp7521
(dp7522
g19
(I-1
I2
tp7523
sbag1
(g15
g3
Ntp7524
Rp7525
(dp7526
g19
(I-2
I2
tp7527
sbag1
(g15
g3
Ntp7528
Rp7529
(dp7530
g19
(I-2
I1
tp7531
sbag1
(g15
g3
Ntp7532
Rp7533
(dp7534
g19
(I-1
I1
tp7535
sbasg65
I11
sg66
g72
sg68
g7389
sg70
Nsg71
S'HHHPH'
p7536
sbag1
(g2
g3
Ntp7537
Rp7538
(dp7539
g7
I4
sg8
S'PHPPHPHHPPH'
p7540
sg10
I00
sg11
I36
sg12
I01
sg13
(lp7541
g1
(g15
g3
Ntp7542
Rp7543
(dp7544
g19
g20
sbag1
(g15
g3
Ntp7545
Rp7546
(dp7547
g19
(I0
I1
tp7548
sbag1
(g15
g3
Ntp7549
Rp7550
(dp7551
g19
(I1
I1
tp7552
sbag1
(g15
g3
Ntp7553
Rp7554
(dp7555
g19
(I1
I2
tp7556
sbag1
(g15
g3
Ntp7557
Rp7558
(dp7559
g19
(I0
I2
tp7560
sbag1
(g15
g3
Ntp7561
Rp7562
(dp7563
g19
(I0
I3
tp7564
sbag1
(g15
g3
Ntp7565
Rp7566
(dp7567
g19
(I-1
I3
tp7568
sbag1
(g15
g3
Ntp7569
Rp7570
(dp7571
g19
(I-1
I2
tp7572
sbag1
(g15
g3
Ntp7573
Rp7574
(dp7575
g19
(I-2
I2
tp7576
sbag1
(g15
g3
Ntp7577
Rp7578
(dp7579
g19
(I-2
I1
tp7580
sbag1
(g15
g3
Ntp7581
Rp7582
(dp7583
g19
(I-1
I1
tp7584
sbasg65
I11
sg66
g72
sg68
g7389
sg70
Nsg71
S'HHPP'
p7585
sbag1
(g2
g3
Ntp7586
Rp7587
(dp7588
g7
I4
sg8
S'PHHPHPHHPPH'
p7589
sg10
I00
sg11
I36
sg12
I01
sg13
(lp7590
g1
(g15
g3
Ntp7591
Rp7592
(dp7593
g19
g20
sbag1
(g15
g3
Ntp7594
Rp7595
(dp7596
g19
(I0
I1
tp7597
sbag1
(g15
g3
Ntp7598
Rp7599
(dp7600
g19
(I1
I1
tp7601
sbag1
(g15
g3
Ntp7602
Rp7603
(dp7604
g19
(I1
I2
tp7605
sbag1
(g15
g3
Ntp7606
Rp7607
(dp7608
g19
(I0
I2
tp7609
sbag1
(g15
g3
Ntp7610
Rp7611
(dp7612
g19
(I0
I3
tp7613
sbag1
(g15
g3
Ntp7614
Rp7615
(dp7616
g19
(I-1
I3
tp7617
sbag1
(g15
g3
Ntp7618
Rp7619
(dp7620
g19
(I-1
I2
tp7621
sbag1
(g15
g3
Ntp7622
Rp7623
(dp7624
g19
(I-2
I2
tp7625
sbag1
(g15
g3
Ntp7626
Rp7627
(dp7628
g19
(I-2
I1
tp7629
sbag1
(g15
g3
Ntp7630
Rp7631
(dp7632
g19
(I-1
I1
tp7633
sbasg65
I11
sg66
g72
sg68
g7389
sg70
Nsg71
S'HHPH'
p7634
sbag1
(g2
g3
Ntp7635
Rp7636
(dp7637
g7
I4
sg8
S'PHPPHPPHPHH'
p7638
sg10
I01
sg11
I36
sg12
I00
sg13
(lp7639
g1
(g15
g3
Ntp7640
Rp7641
(dp7642
g19
g20
sbag1
(g15
g3
Ntp7643
Rp7644
(dp7645
g19
(I0
I1
tp7646
sbag1
(g15
g3
Ntp7647
Rp7648
(dp7649
g19
(I1
I1
tp7650
sbag1
(g15
g3
Ntp7651
Rp7652
(dp7653
g19
(I1
I2
tp7654
sbag1
(g15
g3
Ntp7655
Rp7656
(dp7657
g19
(I0
I2
tp7658
sbag1
(g15
g3
Ntp7659
Rp7660
(dp7661
g19
(I0
I3
tp7662
sbag1
(g15
g3
Ntp7663
Rp7664
(dp7665
g19
(I-1
I3
tp7666
sbag1
(g15
g3
Ntp7667
Rp7668
(dp7669
g19
(I-1
I2
tp7670
sbag1
(g15
g3
Ntp7671
Rp7672
(dp7673
g19
(I-2
I2
tp7674
sbag1
(g15
g3
Ntp7675
Rp7676
(dp7677
g19
(I-2
I1
tp7678
sbag1
(g15
g3
Ntp7679
Rp7680
(dp7681
g19
(I-1
I1
tp7682
sbasg65
I11
sg66
S'HHPH'
p7683
sg68
g7389
sg70
Nsg71
g72
sbag1
(g2
g3
Ntp7684
Rp7685
(dp7686
g7
I5
sg8
S'HPHPHPPHPPHH'
p7687
sg10
I00
sg11
I36
sg12
I00
sg13
(lp7688
g1
(g15
g3
Ntp7689
Rp7690
(dp7691
g19
g20
sbag1
(g15
g3
Ntp7692
Rp7693
(dp7694
g19
(I0
I1
tp7695
sbag1
(g15
g3
Ntp7696
Rp7697
(dp7698
g19
(I1
I1
tp7699
sbag1
(g15
g3
Ntp7700
Rp7701
(dp7702
g19
(I2
I1
tp7703
sbag1
(g15
g3
Ntp7704
Rp7705
(dp7706
g19
(I2
I0
tp7707
sbag1
(g15
g3
Ntp7708
Rp7709
(dp7710
g19
(I3
I0
tp7711
sbag1
(g15
g3
Ntp7712
Rp7713
(dp7714
g19
(I3
I-1
tp7715
sbag1
(g15
g3
Ntp7716
Rp7717
(dp7718
g19
(I2
I-1
tp7719
sbag1
(g15
g3
Ntp7720
Rp7721
(dp7722
g19
(I2
I-2
tp7723
sbag1
(g15
g3
Ntp7724
Rp7725
(dp7726
g19
(I1
I-2
tp7727
sbag1
(g15
g3
Ntp7728
Rp7729
(dp7730
g19
(I1
I-1
tp7731
sbag1
(g15
g3
Ntp7732
Rp7733
(dp7734
g19
(I1
I0
tp7735
sbasg65
I12
sg66
g72
sg68
S'URRDRDLDLUU'
p7736
sg70
Nsg71
g72
sbag1
(g2
g3
Ntp7737
Rp7738
(dp7739
g7
I5
sg8
S'HPHPHPHHPPHH'
p7740
sg10
I00
sg11
I36
sg12
I01
sg13
(lp7741
g1
(g15
g3
Ntp7742
Rp7743
(dp7744
g19
g20
sbag1
(g15
g3
Ntp7745
Rp7746
(dp7747
g19
(I0
I1
tp7748
sbag1
(g15
g3
Ntp7749
Rp7750
(dp7751
g19
(I1
I1
tp7752
sbag1
(g15
g3
Ntp7753
Rp7754
(dp7755
g19
(I2
I1
tp7756
sbag1
(g15
g3
Ntp7757
Rp7758
(dp7759
g19
(I2
I0
tp7760
sbag1
(g15
g3
Ntp7761
Rp7762
(dp7763
g19
(I3
I0
tp7764
sbag1
(g15
g3
Ntp7765
Rp7766
(dp7767
g19
(I3
I-1
tp7768
sbag1
(g15
g3
Ntp7769
Rp7770
(dp7771
g19
(I2
I-1
tp7772
sbag1
(g15
g3
Ntp7773
Rp7774
(dp7775
g19
(I2
I-2
tp7776
sbag1
(g15
g3
Ntp7777
Rp7778
(dp7779
g19
(I1
I-2
tp7780
sbag1
(g15
g3
Ntp7781
Rp7782
(dp7783
g19
(I1
I-1
tp7784
sbag1
(g15
g3
Ntp7785
Rp7786
(dp7787
g19
(I1
I0
tp7788
sbasg65
I12
sg66
g72
sg68
g7736
sg70
Nsg71
S'HHPP'
p7789
sbag1
(g2
g3
Ntp7790
Rp7791
(dp7792
g7
I3
sg8
S'HPHPHPPH'
p7793
sg10
I00
sg11
I36
sg12
I00
sg13
(lp7794
g1
(g15
g3
Ntp7795
Rp7796
(dp7797
g19
g20
sbag1
(g15
g3
Ntp7798
Rp7799
(dp7800
g19
(I0
I1
tp7801
sbag1
(g15
g3
Ntp7802
Rp7803
(dp7804
g19
(I1
I1
tp7805
sbag1
(g15
g3
Ntp7806
Rp7807
(dp7808
g19
(I2
I1
tp7809
sbag1
(g15
g3
Ntp7810
Rp7811
(dp7812
g19
(I2
I0
tp7813
sbag1
(g15
g3
Ntp7814
Rp7815
(dp7816
g19
(I2
I-1
tp7817
sbag1
(g15
g3
Ntp7818
Rp7819
(dp7820
g19
(I1
I-1
tp7821
sbag1
(g15
g3
Ntp7822
Rp7823
(dp7824
g19
(I1
I0
tp7825
sbasg65
I8
sg66
g72
sg68
S'URRDDLU'
p7826
sg70
Nsg71
g72
sbag1
(g2
g3
Ntp7827
Rp7828
(dp7829
g7
I3
sg8
S'HPHPHPHH'
p7830
sg10
I00
sg11
I36
sg12
I00
sg13
(lp7831
g1
(g15
g3
Ntp7832
Rp7833
(dp7834
g19
g20
sbag1
(g15
g3
Ntp7835
Rp7836
(dp7837
g19
(I0
I1
tp7838
sbag1
(g15
g3
Ntp7839
Rp7840
(dp7841
g19
(I1
I1
tp7842
sbag1
(g15
g3
Ntp7843
Rp7844
(dp7845
g19
(I2
I1
tp7846
sbag1
(g15
g3
Ntp7847
Rp7848
(dp7849
g19
(I2
I0
tp7850
sbag1
(g15
g3
Ntp7851
Rp7852
(dp7853
g19
(I2
I-1
tp7854
sbag1
(g15
g3
Ntp7855
Rp7856
(dp7857
g19
(I1
I-1
tp7858
sbag1
(g15
g3
Ntp7859
Rp7860
(dp7861
g19
(I1
I0
tp7862
sbasg65
I8
sg66
g72
sg68
g7826
sg70
Nsg71
g72
sbag1
(g2
g3
Ntp7863
Rp7864
(dp7865
g7
I2
sg8
S'HPPHPH'
p7866
sg10
I01
sg11
I36
sg12
I00
sg13
(lp7867
g1
(g15
g3
Ntp7868
Rp7869
(dp7870
g19
g20
sbag1
(g15
g3
Ntp7871
Rp7872
(dp7873
g19
(I0
I1
tp7874
sbag1
(g15
g3
Ntp7875
Rp7876
(dp7877
g19
(I1
I1
tp7878
sbag1
(g15
g3
Ntp7879
Rp7880
(dp7881
g19
(I1
I0
tp7882
sbag1
(g15
g3
Ntp7883
Rp7884
(dp7885
g19
(I1
I-1
tp7886
sbag1
(g15
g3
Ntp7887
Rp7888
(dp7889
g19
(I0
I-1
tp7890
sbasg65
I6
sg66
S'HHPH'
p7891
sg68
S'URDDL'
p7892
sg70
Nsg71
g72
sbag1
(g2
g3
Ntp7893
Rp7894
(dp7895
g7
I2
sg8
S'HHPHPH'
p7896
sg10
I01
sg11
I37
sg12
I01
sg13
(lp7897
g1
(g15
g3
Ntp7898
Rp7899
(dp7900
g19
g20
sbag1
(g15
g3
Ntp7901
Rp7902
(dp7903
g19
(I0
I1
tp7904
sbag1
(g15
g3
Ntp7905
Rp7906
(dp7907
g19
(I1
I1
tp7908
sbag1
(g15
g3
Ntp7909
Rp7910
(dp7911
g19
(I1
I0
tp7912
sbag1
(g15
g3
Ntp7913
Rp7914
(dp7915
g19
(I1
I-1
tp7916
sbag1
(g15
g3
Ntp7917
Rp7918
(dp7919
g19
(I0
I-1
tp7920
sbasg65
I6
sg66
S'HHHPH'
p7921
sg68
g7892
sg70
(I6
S'HHPH'
p7922
g7921
tp7923
sg71
g7922
sbag1
(g2
g3
Ntp7924
Rp7925
(dp7926
g7
I2
sg8
S'HPPHHH'
p7927
sg10
I01
sg11
I37
sg12
I00
sg13
(lp7928
g1
(g15
g3
Ntp7929
Rp7930
(dp7931
g19
g20
sbag1
(g15
g3
Ntp7932
Rp7933
(dp7934
g19
(I0
I1
tp7935
sbag1
(g15
g3
Ntp7936
Rp7937
(dp7938
g19
(I1
I1
tp7939
sbag1
(g15
g3
Ntp7940
Rp7941
(dp7942
g19
(I1
I0
tp7943
sbag1
(g15
g3
Ntp7944
Rp7945
(dp7946
g19
(I1
I-1
tp7947
sbag1
(g15
g3
Ntp7948
Rp7949
(dp7950
g19
(I0
I-1
tp7951
sbasg65
I6
sg66
S'HHPHH'
p7952
sg68
g7892
sg70
Nsg71
g72
sbag1
(g2
g3
Ntp7953
Rp7954
(dp7955
g7
I4
sg8
S'HPHPPHPPHHP'
p7956
sg10
I00
sg11
I37
sg12
I00
sg13
(lp7957
g1
(g15
g3
Ntp7958
Rp7959
(dp7960
g19
g20
sbag1
(g15
g3
Ntp7961
Rp7962
(dp7963
g19
(I0
I1
tp7964
sbag1
(g15
g3
Ntp7965
Rp7966
(dp7967
g19
(I1
I1
tp7968
sbag1
(g15
g3
Ntp7969
Rp7970
(dp7971
g19
(I1
I2
tp7972
sbag1
(g15
g3
Ntp7973
Rp7974
(dp7975
g19
(I2
I2
tp7976
sbag1
(g15
g3
Ntp7977
Rp7978
(dp7979
g19
(I2
I1
tp7980
sbag1
(g15
g3
Ntp7981
Rp7982
(dp7983
g19
(I3
I1
tp7984
sbag1
(g15
g3
Ntp7985
Rp7986
(dp7987
g19
(I3
I0
tp7988
sbag1
(g15
g3
Ntp7989
Rp7990
(dp7991
g19
(I2
I0
tp7992
sbag1
(g15
g3
Ntp7993
Rp7994
(dp7995
g19
(I1
I0
tp7996
sbag1
(g15
g3
Ntp7997
Rp7998
(dp7999
g19
(I1
I-1
tp8000
sbasg65
I11
sg66
g72
sg68
S'URURDRDLLD'
p8001
sg70
Nsg71
g72
sbag1
(g2
g3
Ntp8002
Rp8003
(dp8004
g7
I4
sg8
S'HPHPHHPPHHP'
p8005
sg10
I00
sg11
I37
sg12
I01
sg13
(lp8006
g1
(g15
g3
Ntp8007
Rp8008
(dp8009
g19
g20
sbag1
(g15
g3
Ntp8010
Rp8011
(dp8012
g19
(I0
I1
tp8013
sbag1
(g15
g3
Ntp8014
Rp8015
(dp8016
g19
(I1
I1
tp8017
sbag1
(g15
g3
Ntp8018
Rp8019
(dp8020
g19
(I1
I2
tp8021
sbag1
(g15
g3
Ntp8022
Rp8023
(dp8024
g19
(I2
I2
tp8025
sbag1
(g15
g3
Ntp8026
Rp8027
(dp8028
g19
(I2
I1
tp8029
sbag1
(g15
g3
Ntp8030
Rp8031
(dp8032
g19
(I3
I1
tp8033
sbag1
(g15
g3
Ntp8034
Rp8035
(dp8036
g19
(I3
I0
tp8037
sbag1
(g15
g3
Ntp8038
Rp8039
(dp8040
g19
(I2
I0
tp8041
sbag1
(g15
g3
Ntp8042
Rp8043
(dp8044
g19
(I1
I0
tp8045
sbag1
(g15
g3
Ntp8046
Rp8047
(dp8048
g19
(I1
I-1
tp8049
sbasg65
I11
sg66
g72
sg68
g8001
sg70
Nsg71
S'HHPP'
p8050
sbag1
(g2
g3
Ntp8051
Rp8052
(dp8053
g7
I4
sg8
S'HPHPPHPPHHH'
p8054
sg10
I00
sg11
I37
sg12
I00
sg13
(lp8055
g1
(g15
g3
Ntp8056
Rp8057
(dp8058
g19
g20
sbag1
(g15
g3
Ntp8059
Rp8060
(dp8061
g19
(I0
I1
tp8062
sbag1
(g15
g3
Ntp8063
Rp8064
(dp8065
g19
(I1
I1
tp8066
sbag1
(g15
g3
Ntp8067
Rp8068
(dp8069
g19
(I1
I2
tp8070
sbag1
(g15
g3
Ntp8071
Rp8072
(dp8073
g19
(I2
I2
tp8074
sbag1
(g15
g3
Ntp8075
Rp8076
(dp8077
g19
(I2
I1
tp8078
sbag1
(g15
g3
Ntp8079
Rp8080
(dp8081
g19
(I3
I1
tp8082
sbag1
(g15
g3
Ntp8083
Rp8084
(dp8085
g19
(I3
I0
tp8086
sbag1
(g15
g3
Ntp8087
Rp8088
(dp8089
g19
(I2
I0
tp8090
sbag1
(g15
g3
Ntp8091
Rp8092
(dp8093
g19
(I1
I0
tp8094
sbag1
(g15
g3
Ntp8095
Rp8096
(dp8097
g19
(I1
I-1
tp8098
sbasg65
I11
sg66
g72
sg68
g8001
sg70
Nsg71
g72
sbag1
(g2
g3
Ntp8099
Rp8100
(dp8101
g7
I4
sg8
S'HPHPHHPPHHH'
p8102
sg10
I00
sg11
I37
sg12
I01
sg13
(lp8103
g1
(g15
g3
Ntp8104
Rp8105
(dp8106
g19
g20
sbag1
(g15
g3
Ntp8107
Rp8108
(dp8109
g19
(I0
I1
tp8110
sbag1
(g15
g3
Ntp8111
Rp8112
(dp8113
g19
(I1
I1
tp8114
sbag1
(g15
g3
Ntp8115
Rp8116
(dp8117
g19
(I1
I2
tp8118
sbag1
(g15
g3
Ntp8119
Rp8120
(dp8121
g19
(I2
I2
tp8122
sbag1
(g15
g3
Ntp8123
Rp8124
(dp8125
g19
(I2
I1
tp8126
sbag1
(g15
g3
Ntp8127
Rp8128
(dp8129
g19
(I3
I1
tp8130
sbag1
(g15
g3
Ntp8131
Rp8132
(dp8133
g19
(I3
I0
tp8134
sbag1
(g15
g3
Ntp8135
Rp8136
(dp8137
g19
(I2
I0
tp8138
sbag1
(g15
g3
Ntp8139
Rp8140
(dp8141
g19
(I1
I0
tp8142
sbag1
(g15
g3
Ntp8143
Rp8144
(dp8145
g19
(I1
I-1
tp8146
sbasg65
I11
sg66
g72
sg68
g8001
sg70
Nsg71
S'HHPP'
p8147
sbag1
(g2
g3
Ntp8148
Rp8149
(dp8150
g7
I4
sg8
S'HHHPPPHHPPPH'
p8151
sg10
I01
sg11
I38
sg12
I01
sg13
(lp8152
g1
(g15
g3
Ntp8153
Rp8154
(dp8155
g19
g20
sbag1
(g15
g3
Ntp8156
Rp8157
(dp8158
g19
(I0
I1
tp8159
sbag1
(g15
g3
Ntp8160
Rp8161
(dp8162
g19
(I1
I1
tp8163
sbag1
(g15
g3
Ntp8164
Rp8165
(dp8166
g19
(I1
I2
tp8167
sbag1
(g15
g3
Ntp8168
Rp8169
(dp8170
g19
(I0
I2
tp8171
sbag1
(g15
g3
Ntp8172
Rp8173
(dp8174
g19
(I-1
I2
tp8175
sbag1
(g15
g3
Ntp8176
Rp8177
(dp8178
g19
(I-1
I1
tp8179
sbag1
(g15
g3
Ntp8180
Rp8181
(dp8182
g19
(I-1
I0
tp8183
sbag1
(g15
g3
Ntp8184
Rp8185
(dp8186
g19
(I-1
I-1
tp8187
sbag1
(g15
g3
Ntp8188
Rp8189
(dp8190
g19
(I0
I-1
tp8191
sbag1
(g15
g3
Ntp8192
Rp8193
(dp8194
g19
(I1
I-1
tp8195
sbag1
(g15
g3
Ntp8196
Rp8197
(dp8198
g19
(I1
I0
tp8199
sbasg65
I12
sg66
S'HHPP'
p8200
sg68
S'URULLDDDRRU'
p8201
sg70
(I12
S'HHHPP'
p8202
g8200
tp8203
sg71
g8202
sbag1
(g2
g3
Ntp8204
Rp8205
(dp8206
g7
I5
sg8
S'HHHPHPHHPPPH'
p8207
sg10
I01
sg11
I39
sg12
I01
sg13
(lp8208
g1
(g15
g3
Ntp8209
Rp8210
(dp8211
g19
g20
sbag1
(g15
g3
Ntp8212
Rp8213
(dp8214
g19
(I0
I1
tp8215
sbag1
(g15
g3
Ntp8216
Rp8217
(dp8218
g19
(I1
I1
tp8219
sbag1
(g15
g3
Ntp8220
Rp8221
(dp8222
g19
(I1
I2
tp8223
sbag1
(g15
g3
Ntp8224
Rp8225
(dp8226
g19
(I0
I2
tp8227
sbag1
(g15
g3
Ntp8228
Rp8229
(dp8230
g19
(I-1
I2
tp8231
sbag1
(g15
g3
Ntp8232
Rp8233
(dp8234
g19
(I-1
I1
tp8235
sbag1
(g15
g3
Ntp8236
Rp8237
(dp8238
g19
(I-1
I0
tp8239
sbag1
(g15
g3
Ntp8240
Rp8241
(dp8242
g19
(I-1
I-1
tp8243
sbag1
(g15
g3
Ntp8244
Rp8245
(dp8246
g19
(I0
I-1
tp8247
sbag1
(g15
g3
Ntp8248
Rp8249
(dp8250
g19
(I1
I-1
tp8251
sbag1
(g15
g3
Ntp8252
Rp8253
(dp8254
g19
(I1
I0
tp8255
sbasg65
I12
sg66
S'HHPP'
p8256
sg68
g8201
sg70
(I12
S'HHHPH'
p8257
g8256
tp8258
sg71
g8257
sbag1
(g2
g3
Ntp8259
Rp8260
(dp8261
g7
I5
sg8
S'HHHHHPHHPPPH'
p8262
sg10
I01
sg11
I40
sg12
I01
sg13
(lp8263
g1
(g15
g3
Ntp8264
Rp8265
(dp8266
g19
g20
sbag1
(g15
g3
Ntp8267
Rp8268
(dp8269
g19
(I0
I1
tp8270
sbag1
(g15
g3
Ntp8271
Rp8272
(dp8273
g19
(I1
I1
tp8274
sbag1
(g15
g3
Ntp8275
Rp8276
(dp8277
g19
(I1
I2
tp8278
sbag1
(g15
g3
Ntp8279
Rp8280
(dp8281
g19
(I0
I2
tp8282
sbag1
(g15
g3
Ntp8283
Rp8284
(dp8285
g19
(I-1
I2
tp8286
sbag1
(g15
g3
Ntp8287
Rp8288
(dp8289
g19
(I-1
I1
tp8290
sbag1
(g15
g3
Ntp8291
Rp8292
(dp8293
g19
(I-1
I0
tp8294
sbag1
(g15
g3
Ntp8295
Rp8296
(dp8297
g19
(I-1
I-1
tp8298
sbag1
(g15
g3
Ntp8299
Rp8300
(dp8301
g19
(I0
I-1
tp8302
sbag1
(g15
g3
Ntp8303
Rp8304
(dp8305
g19
(I1
I-1
tp8306
sbag1
(g15
g3
Ntp8307
Rp8308
(dp8309
g19
(I1
I0
tp8310
sbasg65
I12
sg66
S'HHHPP'
p8311
sg68
g8201
sg70
(I12
S'HHHHPHH'
p8312
g8311
tp8313
sg71
g8312
sbag1
(g2
g3
Ntp8314
Rp8315
(dp8316
g7
I5
sg8
S'HHHPPPHHPHPH'
p8317
sg10
I01
sg11
I41
sg12
I01
sg13
(lp8318
g1
(g15
g3
Ntp8319
Rp8320
(dp8321
g19
g20
sbag1
(g15
g3
Ntp8322
Rp8323
(dp8324
g19
(I0
I1
tp8325
sbag1
(g15
g3
Ntp8326
Rp8327
(dp8328
g19
(I1
I1
tp8329
sbag1
(g15
g3
Ntp8330
Rp8331
(dp8332
g19
(I1
I2
tp8333
sbag1
(g15
g3
Ntp8334
Rp8335
(dp8336
g19
(I0
I2
tp8337
sbag1
(g15
g3
Ntp8338
Rp8339
(dp8340
g19
(I-1
I2
tp8341
sbag1
(g15
g3
Ntp8342
Rp8343
(dp8344
g19
(I-1
I1
tp8345
sbag1
(g15
g3
Ntp8346
Rp8347
(dp8348
g19
(I-1
I0
tp8349
sbag1
(g15
g3
Ntp8350
Rp8351
(dp8352
g19
(I-1
I-1
tp8353
sbag1
(g15
g3
Ntp8354
Rp8355
(dp8356
g19
(I0
I-1
tp8357
sbag1
(g15
g3
Ntp8358
Rp8359
(dp8360
g19
(I1
I-1
tp8361
sbag1
(g15
g3
Ntp8362
Rp8363
(dp8364
g19
(I1
I0
tp8365
sbasg65
I12
sg66
S'HHPP'
p8366
sg68
g8201
sg70
(I12
S'HHHPP'
p8367
g8366
tp8368
sg71
g8367
sbag1
(g2
g3
Ntp8369
Rp8370
(dp8371
g7
I6
sg8
S'HHHPHPHHPHPH'
p8372
sg10
I01
sg11
I42
sg12
I01
sg13
(lp8373
g1
(g15
g3
Ntp8374
Rp8375
(dp8376
g19
g20
sbag1
(g15
g3
Ntp8377
Rp8378
(dp8379
g19
(I0
I1
tp8380
sbag1
(g15
g3
Ntp8381
Rp8382
(dp8383
g19
(I1
I1
tp8384
sbag1
(g15
g3
Ntp8385
Rp8386
(dp8387
g19
(I1
I2
tp8388
sbag1
(g15
g3
Ntp8389
Rp8390
(dp8391
g19
(I0
I2
tp8392
sbag1
(g15
g3
Ntp8393
Rp8394
(dp8395
g19
(I-1
I2
tp8396
sbag1
(g15
g3
Ntp8397
Rp8398
(dp8399
g19
(I-1
I1
tp8400
sbag1
(g15
g3
Ntp8401
Rp8402
(dp8403
g19
(I-1
I0
tp8404
sbag1
(g15
g3
Ntp8405
Rp8406
(dp8407
g19
(I-1
I-1
tp8408
sbag1
(g15
g3
Ntp8409
Rp8410
(dp8411
g19
(I0
I-1
tp8412
sbag1
(g15
g3
Ntp8413
Rp8414
(dp8415
g19
(I1
I-1
tp8416
sbag1
(g15
g3
Ntp8417
Rp8418
(dp8419
g19
(I1
I0
tp8420
sbasg65
I12
sg66
S'HHPP'
p8421
sg68
g8201
sg70
(I12
S'HHHPH'
p8422
g8421
tp8423
sg71
g8422
sbag1
(g2
g3
Ntp8424
Rp8425
(dp8426
g7
I6
sg8
S'HHHHHPHHPHPH'
p8427
sg10
I01
sg11
I43
sg12
I01
sg13
(lp8428
g1
(g15
g3
Ntp8429
Rp8430
(dp8431
g19
g20
sbag1
(g15
g3
Ntp8432
Rp8433
(dp8434
g19
(I0
I1
tp8435
sbag1
(g15
g3
Ntp8436
Rp8437
(dp8438
g19
(I1
I1
tp8439
sbag1
(g15
g3
Ntp8440
Rp8441
(dp8442
g19
(I1
I2
tp8443
sbag1
(g15
g3
Ntp8444
Rp8445
(dp8446
g19
(I0
I2
tp8447
sbag1
(g15
g3
Ntp8448
Rp8449
(dp8450
g19
(I-1
I2
tp8451
sbag1
(g15
g3
Ntp8452
Rp8453
(dp8454
g19
(I-1
I1
tp8455
sbag1
(g15
g3
Ntp8456
Rp8457
(dp8458
g19
(I-1
I0
tp8459
sbag1
(g15
g3
Ntp8460
Rp8461
(dp8462
g19
(I-1
I-1
tp8463
sbag1
(g15
g3
Ntp8464
Rp8465
(dp8466
g19
(I0
I-1
tp8467
sbag1
(g15
g3
Ntp8468
Rp8469
(dp8470
g19
(I1
I-1
tp8471
sbag1
(g15
g3
Ntp8472
Rp8473
(dp8474
g19
(I1
I0
tp8475
sbasg65
I12
sg66
S'HHHPP'
p8476
sg68
g8201
sg70
(I12
S'HHHHPHH'
p8477
g8476
tp8478
sg71
g8477
sbag1
(g2
g3
Ntp8479
Rp8480
(dp8481
g7
I3
sg8
S'HPPHPHPH'
p8482
sg10
I00
sg11
I43
sg12
I00
sg13
(lp8483
g1
(g15
g3
Ntp8484
Rp8485
(dp8486
g19
g20
sbag1
(g15
g3
Ntp8487
Rp8488
(dp8489
g19
(I0
I1
tp8490
sbag1
(g15
g3
Ntp8491
Rp8492
(dp8493
g19
(I1
I1
tp8494
sbag1
(g15
g3
Ntp8495
Rp8496
(dp8497
g19
(I1
I0
tp8498
sbag1
(g15
g3
Ntp8499
Rp8500
(dp8501
g19
(I1
I-1
tp8502
sbag1
(g15
g3
Ntp8503
Rp8504
(dp8505
g19
(I0
I-1
tp8506
sbag1
(g15
g3
Ntp8507
Rp8508
(dp8509
g19
(I-1
I-1
tp8510
sbag1
(g15
g3
Ntp8511
Rp8512
(dp8513
g19
(I-1
I0
tp8514
sbasg65
I8
sg66
g72
sg68
S'URDDLLU'
p8515
sg70
Nsg71
g72
sbag1
(g2
g3
Ntp8516
Rp8517
(dp8518
g7
I3
sg8
S'HHPHPHPH'
p8519
sg10
I00
sg11
I43
sg12
I01
sg13
(lp8520
g1
(g15
g3
Ntp8521
Rp8522
(dp8523
g19
g20
sbag1
(g15
g3
Ntp8524
Rp8525
(dp8526
g19
(I0
I1
tp8527
sbag1
(g15
g3
Ntp8528
Rp8529
(dp8530
g19
(I1
I1
tp8531
sbag1
(g15
g3
Ntp8532
Rp8533
(dp8534
g19
(I1
I0
tp8535
sbag1
(g15
g3
Ntp8536
Rp8537
(dp8538
g19
(I1
I-1
tp8539
sbag1
(g15
g3
Ntp8540
Rp8541
(dp8542
g19
(I0
I-1
tp8543
sbag1
(g15
g3
Ntp8544
Rp8545
(dp8546
g19
(I-1
I-1
tp8547
sbag1
(g15
g3
Ntp8548
Rp8549
(dp8550
g19
(I-1
I0
tp8551
sbasg65
I8
sg66
g72
sg68
g8515
sg70
Nsg71
S'HHPH'
p8552
sbag1
(g2
g3
Ntp8553
Rp8554
(dp8555
g7
I4
sg8
S'PHPPHPHPPHH'
p8556
sg10
I00
sg11
I43
sg12
I00
sg13
(lp8557
g1
(g15
g3
Ntp8558
Rp8559
(dp8560
g19
g20
sbag1
(g15
g3
Ntp8561
Rp8562
(dp8563
g19
(I0
I1
tp8564
sbag1
(g15
g3
Ntp8565
Rp8566
(dp8567
g19
(I1
I1
tp8568
sbag1
(g15
g3
Ntp8569
Rp8570
(dp8571
g19
(I1
I2
tp8572
sbag1
(g15
g3
Ntp8573
Rp8574
(dp8575
g19
(I0
I2
tp8576
sbag1
(g15
g3
Ntp8577
Rp8578
(dp8579
g19
(I0
I3
tp8580
sbag1
(g15
g3
Ntp8581
Rp8582
(dp8583
g19
(I-1
I3
tp8584
sbag1
(g15
g3
Ntp8585
Rp8586
(dp8587
g19
(I-2
I3
tp8588
sbag1
(g15
g3
Ntp8589
Rp8590
(dp8591
g19
(I-2
I2
tp8592
sbag1
(g15
g3
Ntp8593
Rp8594
(dp8595
g19
(I-1
I2
tp8596
sbag1
(g15
g3
Ntp8597
Rp8598
(dp8599
g19
(I-1
I1
tp8600
sbasg65
I11
sg66
g72
sg68
S'URULULLDRD'
p8601
sg70
Nsg71
g72
sbag1
(g2
g3
Ntp8602
Rp8603
(dp8604
g7
I4
sg8
S'PHHPHPHPPHH'
p8605
sg10
I00
sg11
I43
sg12
I01
sg13
(lp8606
g1
(g15
g3
Ntp8607
Rp8608
(dp8609
g19
g20
sbag1
(g15
g3
Ntp8610
Rp8611
(dp8612
g19
(I0
I1
tp8613
sbag1
(g15
g3
Ntp8614
Rp8615
(dp8616
g19
(I1
I1
tp8617
sbag1
(g15
g3
Ntp8618
Rp8619
(dp8620
g19
(I1
I2
tp8621
sbag1
(g15
g3
Ntp8622
Rp8623
(dp8624
g19
(I0
I2
tp8625
sbag1
(g15
g3
Ntp8626
Rp8627
(dp8628
g19
(I0
I3
tp8629
sbag1
(g15
g3
Ntp8630
Rp8631
(dp8632
g19
(I-1
I3
tp8633
sbag1
(g15
g3
Ntp8634
Rp8635
(dp8636
g19
(I-2
I3
tp8637
sbag1
(g15
g3
Ntp8638
Rp8639
(dp8640
g19
(I-2
I2
tp8641
sbag1
(g15
g3
Ntp8642
Rp8643
(dp8644
g19
(I-1
I2
tp8645
sbag1
(g15
g3
Ntp8646
Rp8647
(dp8648
g19
(I-1
I1
tp8649
sbasg65
I11
sg66
g72
sg68
g8601
sg70
Nsg71
S'HHPH'
p8650
sbag1
(g2
g3
Ntp8651
Rp8652
(dp8653
g7
I4
sg8
S'PHPPHPHPHHH'
p8654
sg10
I00
sg11
I43
sg12
I00
sg13
(lp8655
g1
(g15
g3
Ntp8656
Rp8657
(dp8658
g19
g20
sbag1
(g15
g3
Ntp8659
Rp8660
(dp8661
g19
(I0
I1
tp8662
sbag1
(g15
g3
Ntp8663
Rp8664
(dp8665
g19
(I1
I1
tp8666
sbag1
(g15
g3
Ntp8667
Rp8668
(dp8669
g19
(I1
I2
tp8670
sbag1
(g15
g3
Ntp8671
Rp8672
(dp8673
g19
(I0
I2
tp8674
sbag1
(g15
g3
Ntp8675
Rp8676
(dp8677
g19
(I0
I3
tp8678
sbag1
(g15
g3
Ntp8679
Rp8680
(dp8681
g19
(I-1
I3
tp8682
sbag1
(g15
g3
Ntp8683
Rp8684
(dp8685
g19
(I-2
I3
tp8686
sbag1
(g15
g3
Ntp8687
Rp8688
(dp8689
g19
(I-2
I2
tp8690
sbag1
(g15
g3
Ntp8691
Rp8692
(dp8693
g19
(I-1
I2
tp8694
sbag1
(g15
g3
Ntp8695
Rp8696
(dp8697
g19
(I-1
I1
tp8698
sbasg65
I11
sg66
g72
sg68
g8601
sg70
Nsg71
g72
sbag1
(g2
g3
Ntp8699
Rp8700
(dp8701
g7
I4
sg8
S'PHHPHPHPHHH'
p8702
sg10
I00
sg11
I43
sg12
I01
sg13
(lp8703
g1
(g15
g3
Ntp8704
Rp8705
(dp8706
g19
g20
sbag1
(g15
g3
Ntp8707
Rp8708
(dp8709
g19
(I0
I1
tp8710
sbag1
(g15
g3
Ntp8711
Rp8712
(dp8713
g19
(I1
I1
tp8714
sbag1
(g15
g3
Ntp8715
Rp8716
(dp8717
g19
(I1
I2
tp8718
sbag1
(g15
g3
Ntp8719
Rp8720
(dp8721
g19
(I0
I2
tp8722
sbag1
(g15
g3
Ntp8723
Rp8724
(dp8725
g19
(I0
I3
tp8726
sbag1
(g15
g3
Ntp8727
Rp8728
(dp8729
g19
(I-1
I3
tp8730
sbag1
(g15
g3
Ntp8731
Rp8732
(dp8733
g19
(I-2
I3
tp8734
sbag1
(g15
g3
Ntp8735
Rp8736
(dp8737
g19
(I-2
I2
tp8738
sbag1
(g15
g3
Ntp8739
Rp8740
(dp8741
g19
(I-1
I2
tp8742
sbag1
(g15
g3
Ntp8743
Rp8744
(dp8745
g19
(I-1
I1
tp8746
sbasg65
I11
sg66
g72
sg68
g8601
sg70
Nsg71
S'HHPH'
p8747
sbag1
(g2
g3
Ntp8748
Rp8749
(dp8750
g7
I2
sg8
S'HPHPPH'
p8751
sg10
I01
sg11
I43
sg12
I00
sg13
(lp8752
g1
(g15
g3
Ntp8753
Rp8754
(dp8755
g19
g20
sbag1
(g15
g3
Ntp8756
Rp8757
(dp8758
g19
(I0
I1
tp8759
sbag1
(g15
g3
Ntp8760
Rp8761
(dp8762
g19
(I1
I1
tp8763
sbag1
(g15
g3
Ntp8764
Rp8765
(dp8766
g19
(I2
I1
tp8767
sbag1
(g15
g3
Ntp8768
Rp8769
(dp8770
g19
(I2
I0
tp8771
sbag1
(g15
g3
Ntp8772
Rp8773
(dp8774
g19
(I1
I0
tp8775
sbasg65
I6
sg66
S'HHPH'
p8776
sg68
S'URRDL'
p8777
sg70
Nsg71
g72
sbag1
(g2
g3
Ntp8778
Rp8779
(dp8780
g7
I2
sg8
S'HHHPPH'
p8781
sg10
I01
sg11
I44
sg12
I01
sg13
(lp8782
g1
(g15
g3
Ntp8783
Rp8784
(dp8785
g19
g20
sbag1
(g15
g3
Ntp8786
Rp8787
(dp8788
g19
(I0
I1
tp8789
sbag1
(g15
g3
Ntp8790
Rp8791
(dp8792
g19
(I1
I1
tp8793
sbag1
(g15
g3
Ntp8794
Rp8795
(dp8796
g19
(I2
I1
tp8797
sbag1
(g15
g3
Ntp8798
Rp8799
(dp8800
g19
(I2
I0
tp8801
sbag1
(g15
g3
Ntp8802
Rp8803
(dp8804
g19
(I1
I0
tp8805
sbasg65
I6
sg66
S'HHPHH'
p8806
sg68
g8777
sg70
(I6
S'HHHPP'
p8807
g8806
tp8808
sg71
g8807
sbag1
(g2
g3
Ntp8809
Rp8810
(dp8811
g7
I2
sg8
S'HPHPHH'
p8812
sg10
I01
sg11
I44
sg12
I00
sg13
(lp8813
g1
(g15
g3
Ntp8814
Rp8815
(dp8816
g19
g20
sbag1
(g15
g3
Ntp8817
Rp8818
(dp8819
g19
(I0
I1
tp8820
sbag1
(g15
g3
Ntp8821
Rp8822
(dp8823
g19
(I1
I1
tp8824
sbag1
(g15
g3
Ntp8825
Rp8826
(dp8827
g19
(I2
I1
tp8828
sbag1
(g15
g3
Ntp8829
Rp8830
(dp8831
g19
(I2
I0
tp8832
sbag1
(g15
g3
Ntp8833
Rp8834
(dp8835
g19
(I1
I0
tp8836
sbasg65
I6
sg66
S'HHHPH'
p8837
sg68
g8777
sg70
Nsg71
g72
sbag1
(g2
g3
Ntp8838
Rp8839
(dp8840
g7
I3
sg8
S'PHPPHHPPHP'
p8841
sg10
I01
sg11
I45
sg12
I01
sg13
(lp8842
g1
(g15
g3
Ntp8843
Rp8844
(dp8845
g19
g20
sbag1
(g15
g3
Ntp8846
Rp8847
(dp8848
g19
(I0
I1
tp8849
sbag1
(g15
g3
Ntp8850
Rp8851
(dp8852
g19
(I1
I1
tp8853
sbag1
(g15
g3
Ntp8854
Rp8855
(dp8856
g19
(I1
I2
tp8857
sbag1
(g15
g3
Ntp8858
Rp8859
(dp8860
g19
(I0
I2
tp8861
sbag1
(g15
g3
Ntp8862
Rp8863
(dp8864
g19
(I-1
I2
tp8865
sbag1
(g15
g3
Ntp8866
Rp8867
(dp8868
g19
(I-2
I2
tp8869
sbag1
(g15
g3
Ntp8870
Rp8871
(dp8872
g19
(I-2
I1
tp8873
sbag1
(g15
g3
Ntp8874
Rp8875
(dp8876
g19
(I-1
I1
tp8877
sbag1
(g15
g3
Ntp8878
Rp8879
(dp8880
g19
(I-1
I0
tp8881
sbasg65
I10
sg66
S'HHPP'
p8882
sg68
S'URULLLDRD'
p8883
sg70
(I10
S'HHPP'
p8884
g8882
tp8885
sg71
g8884
sbag1
(g2
g3
Ntp8886
Rp8887
(dp8888
g7
I4
sg8
S'HHPPHPHPPHP'
p8889
sg10
I00
sg11
I45
sg12
I01
sg13
(lp8890
g1
(g15
g3
Ntp8891
Rp8892
(dp8893
g19
g20
sbag1
(g15
g3
Ntp8894
Rp8895
(dp8896
g19
(I0
I1
tp8897
sbag1
(g15
g3
Ntp8898
Rp8899
(dp8900
g19
(I1
I1
tp8901
sbag1
(g15
g3
Ntp8902
Rp8903
(dp8904
g19
(I1
I2
tp8905
sbag1
(g15
g3
Ntp8906
Rp8907
(dp8908
g19
(I0
I2
tp8909
sbag1
(g15
g3
Ntp8910
Rp8911
(dp8912
g19
(I-1
I2
tp8913
sbag1
(g15
g3
Ntp8914
Rp8915
(dp8916
g19
(I-1
I1
tp8917
sbag1
(g15
g3
Ntp8918
Rp8919
(dp8920
g19
(I-2
I1
tp8921
sbag1
(g15
g3
Ntp8922
Rp8923
(dp8924
g19
(I-2
I0
tp8925
sbag1
(g15
g3
Ntp8926
Rp8927
(dp8928
g19
(I-1
I0
tp8929
sbag1
(g15
g3
Ntp8930
Rp8931
(dp8932
g19
(I-1
I-1
tp8933
sbasg65
I11
sg66
g72
sg68
S'URULLDLDRD'
p8934
sg70
Nsg71
S'HHPP'
p8935
sbag1
(g2
g3
Ntp8936
Rp8937
(dp8938
g7
I4
sg8
S'HHHPHPHPPHP'
p8939
sg10
I00
sg11
I45
sg12
I01
sg13
(lp8940
g1
(g15
g3
Ntp8941
Rp8942
(dp8943
g19
g20
sbag1
(g15
g3
Ntp8944
Rp8945
(dp8946
g19
(I0
I1
tp8947
sbag1
(g15
g3
Ntp8948
Rp8949
(dp8950
g19
(I1
I1
tp8951
sbag1
(g15
g3
Ntp8952
Rp8953
(dp8954
g19
(I1
I2
tp8955
sbag1
(g15
g3
Ntp8956
Rp8957
(dp8958
g19
(I0
I2
tp8959
sbag1
(g15
g3
Ntp8960
Rp8961
(dp8962
g19
(I-1
I2
tp8963
sbag1
(g15
g3
Ntp8964
Rp8965
(dp8966
g19
(I-1
I1
tp8967
sbag1
(g15
g3
Ntp8968
Rp8969
(dp8970
g19
(I-2
I1
tp8971
sbag1
(g15
g3
Ntp8972
Rp8973
(dp8974
g19
(I-2
I0
tp8975
sbag1
(g15
g3
Ntp8976
Rp8977
(dp8978
g19
(I-1
I0
tp8979
sbag1
(g15
g3
Ntp8980
Rp8981
(dp8982
g19
(I-1
I-1
tp8983
sbasg65
I11
sg66
g72
sg68
g8934
sg70
Nsg71
S'HHHPH'
p8984
sbag1
(g2
g3
Ntp8985
Rp8986
(dp8987
g7
I4
sg8
S'HHPPHPHPHHP'
p8988
sg10
I00
sg11
I45
sg12
I01
sg13
(lp8989
g1
(g15
g3
Ntp8990
Rp8991
(dp8992
g19
g20
sbag1
(g15
g3
Ntp8993
Rp8994
(dp8995
g19
(I0
I1
tp8996
sbag1
(g15
g3
Ntp8997
Rp8998
(dp8999
g19
(I1
I1
tp9000
sbag1
(g15
g3
Ntp9001
Rp9002
(dp9003
g19
(I1
I2
tp9004
sbag1
(g15
g3
Ntp9005
Rp9006
(dp9007
g19
(I0
I2
tp9008
sbag1
(g15
g3
Ntp9009
Rp9010
(dp9011
g19
(I-1
I2
tp9012
sbag1
(g15
g3
Ntp9013
Rp9014
(dp9015
g19
(I-1
I1
tp9016
sbag1
(g15
g3
Ntp9017
Rp9018
(dp9019
g19
(I-2
I1
tp9020
sbag1
(g15
g3
Ntp9021
Rp9022
(dp9023
g19
(I-2
I0
tp9024
sbag1
(g15
g3
Ntp9025
Rp9026
(dp9027
g19
(I-1
I0
tp9028
sbag1
(g15
g3
Ntp9029
Rp9030
(dp9031
g19
(I-1
I-1
tp9032
sbasg65
I11
sg66
g72
sg68
g8934
sg70
Nsg71
S'HHPP'
p9033
sbag1
(g2
g3
Ntp9034
Rp9035
(dp9036
g7
I4
sg8
S'HHHPHPHPHHP'
p9037
sg10
I00
sg11
I45
sg12
I01
sg13
(lp9038
g1
(g15
g3
Ntp9039
Rp9040
(dp9041
g19
g20
sbag1
(g15
g3
Ntp9042
Rp9043
(dp9044
g19
(I0
I1
tp9045
sbag1
(g15
g3
Ntp9046
Rp9047
(dp9048
g19
(I1
I1
tp9049
sbag1
(g15
g3
Ntp9050
Rp9051
(dp9052
g19
(I1
I2
tp9053
sbag1
(g15
g3
Ntp9054
Rp9055
(dp9056
g19
(I0
I2
tp9057
sbag1
(g15
g3
Ntp9058
Rp9059
(dp9060
g19
(I-1
I2
tp9061
sbag1
(g15
g3
Ntp9062
Rp9063
(dp9064
g19
(I-1
I1
tp9065
sbag1
(g15
g3
Ntp9066
Rp9067
(dp9068
g19
(I-2
I1
tp9069
sbag1
(g15
g3
Ntp9070
Rp9071
(dp9072
g19
(I-2
I0
tp9073
sbag1
(g15
g3
Ntp9074
Rp9075
(dp9076
g19
(I-1
I0
tp9077
sbag1
(g15
g3
Ntp9078
Rp9079
(dp9080
g19
(I-1
I-1
tp9081
sbasg65
I11
sg66
g72
sg68
g8934
sg70
Nsg71
S'HHHPH'
p9082
sbag1
(g2
g3
Ntp9083
Rp9084
(dp9085
g7
I3
sg8
S'PHPPHHPPH'
p9086
sg10
I01
sg11
I46
sg12
I01
sg13
(lp9087
g1
(g15
g3
Ntp9088
Rp9089
(dp9090
g19
g20
sbag1
(g15
g3
Ntp9091
Rp9092
(dp9093
g19
(I0
I1
tp9094
sbag1
(g15
g3
Ntp9095
Rp9096
(dp9097
g19
(I1
I1
tp9098
sbag1
(g15
g3
Ntp9099
Rp9100
(dp9101
g19
(I1
I2
tp9102
sbag1
(g15
g3
Ntp9103
Rp9104
(dp9105
g19
(I0
I2
tp9106
sbag1
(g15
g3
Ntp9107
Rp9108
(dp9109
g19
(I-1
I2
tp9110
sbag1
(g15
g3
Ntp9111
Rp9112
(dp9113
g19
(I-2
I2
tp9114
sbag1
(g15
g3
Ntp9115
Rp9116
(dp9117
g19
(I-2
I1
tp9118
sbag1
(g15
g3
Ntp9119
Rp9120
(dp9121
g19
(I-1
I1
tp9122
sbasg65
I9
sg66
S'HHPP'
p9123
sg68
S'URULLLDR'
p9124
sg70
(I9
S'HHPP'
p9125
g9123
tp9126
sg71
g9125
sbag1
(g2
g3
Ntp9127
Rp9128
(dp9129
g7
I3
sg8
S'HPPHHPPH'
p9130
sg10
I01
sg11
I47
sg12
I01
sg13
(lp9131
g1
(g15
g3
Ntp9132
Rp9133
(dp9134
g19
g20
sbag1
(g15
g3
Ntp9135
Rp9136
(dp9137
g19
(I0
I1
tp9138
sbag1
(g15
g3
Ntp9139
Rp9140
(dp9141
g19
(I1
I1
tp9142
sbag1
(g15
g3
Ntp9143
Rp9144
(dp9145
g19
(I1
I0
tp9146
sbag1
(g15
g3
Ntp9147
Rp9148
(dp9149
g19
(I1
I-1
tp9150
sbag1
(g15
g3
Ntp9151
Rp9152
(dp9153
g19
(I1
I-2
tp9154
sbag1
(g15
g3
Ntp9155
Rp9156
(dp9157
g19
(I0
I-2
tp9158
sbag1
(g15
g3
Ntp9159
Rp9160
(dp9161
g19
(I0
I-1
tp9162
sbasg65
I8
sg66
S'HHPP'
p9163
sg68
S'URDDDLU'
p9164
sg70
(I8
S'HHPP'
p9165
g9163
tp9166
sg71
g9165
sba.