(lp0
ccopy_reg
_reconstructor
p1
(cnativeChain
NativeChain
p2
c__builtin__
object
p3
Ntp4
Rp5
(dp6
S'nativeEnergy'
p7
I1
sS'hpstring'
p8
S'HPPH'
p9
sS'ifCat'
p10
I01
sS'generatedNumber'
p11
I0
sS'ifSub'
p12
I00
sS'coordinates'
p13
(lp14
g1
(ccoordinate
Coordinate
p15
g3
Ntp16
Rp17
(dp18
S'coordTuple'
p19
(I0
I0
tp20
sbag1
(g15
g3
Ntp21
Rp22
(dp23
g19
(I0
I1
tp24
sbag1
(g15
g3
Ntp25
Rp26
(dp27
g19
(I1
I1
tp28
sbag1
(g15
g3
Ntp29
Rp30
(dp31
g19
(I1
I0
tp32
sbasS'n'
p33
I4
sS'catalystPattern'
p34
S'HHPH'
p35
sS'vec'
p36
S'URD'
p37
sS'Type'
p38
NsS'substratePattern'
p39
S''
p40
sbag1
(g2
g3
Ntp41
Rp42
(dp43
g7
I1
sg8
S'HHPH'
p44
sg10
I01
sg11
I1
sg12
I01
sg13
(lp45
g1
(g15
g3
Ntp46
Rp47
(dp48
g19
g20
sbag1
(g15
g3
Ntp49
Rp50
(dp51
g19
(I0
I1
tp52
sbag1
(g15
g3
Ntp53
Rp54
(dp55
g19
(I1
I1
tp56
sbag1
(g15
g3
Ntp57
Rp58
(dp59
g19
(I1
I0
tp60
sbasg33
I4
sg34
S'HHPHH'
p61
sg36
g37
sg38
(I4
S'HHPH'
p62
g61
tp63
sg39
g62
sbag1
(g2
g3
Ntp64
Rp65
(dp66
g7
I1
sg8
S'HPHH'
p67
sg10
I01
sg11
I1
sg12
I00
sg13
(lp68
g1
(g15
g3
Ntp69
Rp70
(dp71
g19
g20
sbag1
(g15
g3
Ntp72
Rp73
(dp74
g19
(I0
I1
tp75
sbag1
(g15
g3
Ntp76
Rp77
(dp78
g19
(I1
I1
tp79
sbag1
(g15
g3
Ntp80
Rp81
(dp82
g19
(I1
I0
tp83
sbasg33
I4
sg34
S'HHPHH'
p84
sg36
g37
sg38
Nsg39
g40
sbag1
(g2
g3
Ntp85
Rp86
(dp87
g7
I1
sg8
S'HHHH'
p88
sg10
I01
sg11
I1
sg12
I00
sg13
(lp89
g1
(g15
g3
Ntp90
Rp91
(dp92
g19
g20
sbag1
(g15
g3
Ntp93
Rp94
(dp95
g19
(I0
I1
tp96
sbag1
(g15
g3
Ntp97
Rp98
(dp99
g19
(I1
I1
tp100
sbag1
(g15
g3
Ntp101
Rp102
(dp103
g19
(I1
I0
tp104
sbasg33
I4
sg34
S'HHPHH'
p105
sg36
g37
sg38
Nsg39
g40
sbag1
(g2
g3
Ntp106
Rp107
(dp108
g7
I2
sg8
S'HHPPHH'
p109
sg10
I01
sg11
I2
sg12
I01
sg13
(lp110
g1
(g15
g3
Ntp111
Rp112
(dp113
g19
g20
sbag1
(g15
g3
Ntp114
Rp115
(dp116
g19
(I0
I1
tp117
sbag1
(g15
g3
Ntp118
Rp119
(dp120
g19
(I0
I2
tp121
sbag1
(g15
g3
Ntp122
Rp123
(dp124
g19
(I1
I2
tp125
sbag1
(g15
g3
Ntp126
Rp127
(dp128
g19
(I1
I1
tp129
sbag1
(g15
g3
Ntp130
Rp131
(dp132
g19
(I1
I0
tp133
sbasg33
I6
sg34
S'HHPHH'
p134
sg36
S'UURDD'
p135
sg38
(I6
S'HHPP'
p136
g134
tp137
sg39
g136
sbag1
(g2
g3
Ntp138
Rp139
(dp140
g7
I2
sg8
S'HPHPPH'
p141
sg10
I01
sg11
I2
sg12
I00
sg13
(lp142
g1
(g15
g3
Ntp143
Rp144
(dp145
g19
g20
sbag1
(g15
g3
Ntp146
Rp147
(dp148
g19
(I0
I1
tp149
sbag1
(g15
g3
Ntp150
Rp151
(dp152
g19
(I1
I1
tp153
sbag1
(g15
g3
Ntp154
Rp155
(dp156
g19
(I2
I1
tp157
sbag1
(g15
g3
Ntp158
Rp159
(dp160
g19
(I2
I0
tp161
sbag1
(g15
g3
Ntp162
Rp163
(dp164
g19
(I1
I0
tp165
sbasg33
I6
sg34
S'HHPH'
p166
sg36
S'URRDL'
p167
sg38
Nsg39
g40
sbag1
(g2
g3
Ntp168
Rp169
(dp170
g7
I2
sg8
S'HHHPPH'
p171
sg10
I01
sg11
I3
sg12
I01
sg13
(lp172
g1
(g15
g3
Ntp173
Rp174
(dp175
g19
g20
sbag1
(g15
g3
Ntp176
Rp177
(dp178
g19
(I0
I1
tp179
sbag1
(g15
g3
Ntp180
Rp181
(dp182
g19
(I1
I1
tp183
sbag1
(g15
g3
Ntp184
Rp185
(dp186
g19
(I2
I1
tp187
sbag1
(g15
g3
Ntp188
Rp189
(dp190
g19
(I2
I0
tp191
sbag1
(g15
g3
Ntp192
Rp193
(dp194
g19
(I1
I0
tp195
sbasg33
I6
sg34
S'HHPHH'
p196
sg36
g167
sg38
(I6
S'HHHPP'
p197
g196
tp198
sg39
g197
sbag1
(g2
g3
Ntp199
Rp200
(dp201
g7
I2
sg8
S'HPHPHH'
p202
sg10
I01
sg11
I3
sg12
I00
sg13
(lp203
g1
(g15
g3
Ntp204
Rp205
(dp206
g19
g20
sbag1
(g15
g3
Ntp207
Rp208
(dp209
g19
(I0
I1
tp210
sbag1
(g15
g3
Ntp211
Rp212
(dp213
g19
(I1
I1
tp214
sbag1
(g15
g3
Ntp215
Rp216
(dp217
g19
(I2
I1
tp218
sbag1
(g15
g3
Ntp219
Rp220
(dp221
g19
(I2
I0
tp222
sbag1
(g15
g3
Ntp223
Rp224
(dp225
g19
(I1
I0
tp226
sbasg33
I6
sg34
S'HHHPH'
p227
sg36
g167
sg38
Nsg39
g40
sbag1
(g2
g3
Ntp228
Rp229
(dp230
g7
I2
sg8
S'HPPHPH'
p231
sg10
I01
sg11
I3
sg12
I00
sg13
(lp232
g1
(g15
g3
Ntp233
Rp234
(dp235
g19
g20
sbag1
(g15
g3
Ntp236
Rp237
(dp238
g19
(I0
I1
tp239
sbag1
(g15
g3
Ntp240
Rp241
(dp242
g19
(I1
I1
tp243
sbag1
(g15
g3
Ntp244
Rp245
(dp246
g19
(I1
I0
tp247
sbag1
(g15
g3
Ntp248
Rp249
(dp250
g19
(I1
I-1
tp251
sbag1
(g15
g3
Ntp252
Rp253
(dp254
g19
(I0
I-1
tp255
sbasg33
I6
sg34
S'HHPH'
p256
sg36
S'URDDL'
p257
sg38
Nsg39
g40
sbag1
(g2
g3
Ntp258
Rp259
(dp260
g7
I2
sg8
S'HHPHPH'
p261
sg10
I01
sg11
I4
sg12
I01
sg13
(lp262
g1
(g15
g3
Ntp263
Rp264
(dp265
g19
g20
sbag1
(g15
g3
Ntp266
Rp267
(dp268
g19
(I0
I1
tp269
sbag1
(g15
g3
Ntp270
Rp271
(dp272
g19
(I1
I1
tp273
sbag1
(g15
g3
Ntp274
Rp275
(dp276
g19
(I1
I0
tp277
sbag1
(g15
g3
Ntp278
Rp279
(dp280
g19
(I1
I-1
tp281
sbag1
(g15
g3
Ntp282
Rp283
(dp284
g19
(I0
I-1
tp285
sbasg33
I6
sg34
S'HHHPH'
p286
sg36
g257
sg38
(I6
S'HHPH'
p287
g286
tp288
sg39
g287
sbag1
(g2
g3
Ntp289
Rp290
(dp291
g7
I2
sg8
S'HPPHHH'
p292
sg10
I01
sg11
I4
sg12
I00
sg13
(lp293
g1
(g15
g3
Ntp294
Rp295
(dp296
g19
g20
sbag1
(g15
g3
Ntp297
Rp298
(dp299
g19
(I0
I1
tp300
sbag1
(g15
g3
Ntp301
Rp302
(dp303
g19
(I1
I1
tp304
sbag1
(g15
g3
Ntp305
Rp306
(dp307
g19
(I1
I0
tp308
sbag1
(g15
g3
Ntp309
Rp310
(dp311
g19
(I1
I-1
tp312
sbag1
(g15
g3
Ntp313
Rp314
(dp315
g19
(I0
I-1
tp316
sbasg33
I6
sg34
S'HHPHH'
p317
sg36
g257
sg38
Nsg39
g40
sba.