(lp0
ccopy_reg
_reconstructor
p1
(cnativeChain
NativeChain
p2
c__builtin__
object
p3
Ntp4
Rp5
(dp6
S'nativeEnergy'
p7
I1
sS'hpstring'
p8
S'HPPH'
p9
sS'ifCat'
p10
NsS'generatedNumber'
p11
I0
sS'ifSub'
p12
NsS'coordinates'
p13
(lp14
g1
(ccoordinate
Coordinate
p15
g3
Ntp16
Rp17
(dp18
S'coordTuple'
p19
(I0
I0
tp20
sbag1
(g15
g3
Ntp21
Rp22
(dp23
g19
(I0
I1
tp24
sbag1
(g15
g3
Ntp25
Rp26
(dp27
g19
(I1
I1
tp28
sbag1
(g15
g3
Ntp29
Rp30
(dp31
g19
(I1
I0
tp32
sbasS'n'
p33
I4
sS'catalystPattern'
p34
NsS'vec'
p35
S'URD'
p36
sS'hpbinary'
p37
S'1001'
p38
sS'Type'
p39
NsS'substratePattern'
p40
Nsbag1
(g2
g3
Ntp41
Rp42
(dp43
g7
I1
sg8
S'HHPH'
p44
sg10
Nsg11
I0
sg12
Nsg13
(lp45
g1
(g15
g3
Ntp46
Rp47
(dp48
g19
g20
sbag1
(g15
g3
Ntp49
Rp50
(dp51
g19
(I0
I1
tp52
sbag1
(g15
g3
Ntp53
Rp54
(dp55
g19
(I1
I1
tp56
sbag1
(g15
g3
Ntp57
Rp58
(dp59
g19
(I1
I0
tp60
sbasg33
I4
sg34
Nsg35
g36
sg37
S'1101'
p61
sg39
Nsg40
Nsbag1
(g2
g3
Ntp62
Rp63
(dp64
g7
I1
sg8
S'HPHH'
p65
sg10
Nsg11
I0
sg12
Nsg13
(lp66
g1
(g15
g3
Ntp67
Rp68
(dp69
g19
g20
sbag1
(g15
g3
Ntp70
Rp71
(dp72
g19
(I0
I1
tp73
sbag1
(g15
g3
Ntp74
Rp75
(dp76
g19
(I1
I1
tp77
sbag1
(g15
g3
Ntp78
Rp79
(dp80
g19
(I1
I0
tp81
sbasg33
I4
sg34
Nsg35
g36
sg37
S'1011'
p82
sg39
Nsg40
Nsbag1
(g2
g3
Ntp83
Rp84
(dp85
g7
I1
sg8
S'HHHH'
p86
sg10
Nsg11
I0
sg12
Nsg13
(lp87
g1
(g15
g3
Ntp88
Rp89
(dp90
g19
g20
sbag1
(g15
g3
Ntp91
Rp92
(dp93
g19
(I0
I1
tp94
sbag1
(g15
g3
Ntp95
Rp96
(dp97
g19
(I1
I1
tp98
sbag1
(g15
g3
Ntp99
Rp100
(dp101
g19
(I1
I0
tp102
sbasg33
I4
sg34
Nsg35
g36
sg37
S'1111'
p103
sg39
Nsg40
Nsbag1
(g2
g3
Ntp104
Rp105
(dp106
g7
I2
sg8
S'HHPPHH'
p107
sg10
Nsg11
I0
sg12
Nsg13
(lp108
g1
(g15
g3
Ntp109
Rp110
(dp111
g19
g20
sbag1
(g15
g3
Ntp112
Rp113
(dp114
g19
(I0
I1
tp115
sbag1
(g15
g3
Ntp116
Rp117
(dp118
g19
(I0
I2
tp119
sbag1
(g15
g3
Ntp120
Rp121
(dp122
g19
(I1
I2
tp123
sbag1
(g15
g3
Ntp124
Rp125
(dp126
g19
(I1
I1
tp127
sbag1
(g15
g3
Ntp128
Rp129
(dp130
g19
(I1
I0
tp131
sbasg33
I6
sg34
Nsg35
S'UURDD'
p132
sg37
S'110011'
p133
sg39
Nsg40
Nsbag1
(g2
g3
Ntp134
Rp135
(dp136
g7
I2
sg8
S'HPHPPH'
p137
sg10
Nsg11
I0
sg12
Nsg13
(lp138
g1
(g15
g3
Ntp139
Rp140
(dp141
g19
g20
sbag1
(g15
g3
Ntp142
Rp143
(dp144
g19
(I0
I1
tp145
sbag1
(g15
g3
Ntp146
Rp147
(dp148
g19
(I1
I1
tp149
sbag1
(g15
g3
Ntp150
Rp151
(dp152
g19
(I2
I1
tp153
sbag1
(g15
g3
Ntp154
Rp155
(dp156
g19
(I2
I0
tp157
sbag1
(g15
g3
Ntp158
Rp159
(dp160
g19
(I1
I0
tp161
sbasg33
I6
sg34
Nsg35
S'URRDL'
p162
sg37
S'101001'
p163
sg39
Nsg40
Nsbag1
(g2
g3
Ntp164
Rp165
(dp166
g7
I2
sg8
S'HHHPPH'
p167
sg10
Nsg11
I0
sg12
Nsg13
(lp168
g1
(g15
g3
Ntp169
Rp170
(dp171
g19
g20
sbag1
(g15
g3
Ntp172
Rp173
(dp174
g19
(I0
I1
tp175
sbag1
(g15
g3
Ntp176
Rp177
(dp178
g19
(I1
I1
tp179
sbag1
(g15
g3
Ntp180
Rp181
(dp182
g19
(I2
I1
tp183
sbag1
(g15
g3
Ntp184
Rp185
(dp186
g19
(I2
I0
tp187
sbag1
(g15
g3
Ntp188
Rp189
(dp190
g19
(I1
I0
tp191
sbasg33
I6
sg34
Nsg35
g162
sg37
S'111001'
p192
sg39
Nsg40
Nsbag1
(g2
g3
Ntp193
Rp194
(dp195
g7
I2
sg8
S'HPHPHH'
p196
sg10
Nsg11
I0
sg12
Nsg13
(lp197
g1
(g15
g3
Ntp198
Rp199
(dp200
g19
g20
sbag1
(g15
g3
Ntp201
Rp202
(dp203
g19
(I0
I1
tp204
sbag1
(g15
g3
Ntp205
Rp206
(dp207
g19
(I1
I1
tp208
sbag1
(g15
g3
Ntp209
Rp210
(dp211
g19
(I2
I1
tp212
sbag1
(g15
g3
Ntp213
Rp214
(dp215
g19
(I2
I0
tp216
sbag1
(g15
g3
Ntp217
Rp218
(dp219
g19
(I1
I0
tp220
sbasg33
I6
sg34
Nsg35
g162
sg37
S'101011'
p221
sg39
Nsg40
Nsbag1
(g2
g3
Ntp222
Rp223
(dp224
g7
I2
sg8
S'HPPHPH'
p225
sg10
Nsg11
I0
sg12
Nsg13
(lp226
g1
(g15
g3
Ntp227
Rp228
(dp229
g19
g20
sbag1
(g15
g3
Ntp230
Rp231
(dp232
g19
(I0
I1
tp233
sbag1
(g15
g3
Ntp234
Rp235
(dp236
g19
(I1
I1
tp237
sbag1
(g15
g3
Ntp238
Rp239
(dp240
g19
(I1
I0
tp241
sbag1
(g15
g3
Ntp242
Rp243
(dp244
g19
(I1
I-1
tp245
sbag1
(g15
g3
Ntp246
Rp247
(dp248
g19
(I0
I-1
tp249
sbasg33
I6
sg34
Nsg35
S'URDDL'
p250
sg37
S'100101'
p251
sg39
Nsg40
Nsbag1
(g2
g3
Ntp252
Rp253
(dp254
g7
I2
sg8
S'HHPHPH'
p255
sg10
Nsg11
I0
sg12
Nsg13
(lp256
g1
(g15
g3
Ntp257
Rp258
(dp259
g19
g20
sbag1
(g15
g3
Ntp260
Rp261
(dp262
g19
(I0
I1
tp263
sbag1
(g15
g3
Ntp264
Rp265
(dp266
g19
(I1
I1
tp267
sbag1
(g15
g3
Ntp268
Rp269
(dp270
g19
(I1
I0
tp271
sbag1
(g15
g3
Ntp272
Rp273
(dp274
g19
(I1
I-1
tp275
sbag1
(g15
g3
Ntp276
Rp277
(dp278
g19
(I0
I-1
tp279
sbasg33
I6
sg34
Nsg35
g250
sg37
S'110101'
p280
sg39
Nsg40
Nsbag1
(g2
g3
Ntp281
Rp282
(dp283
g7
I2
sg8
S'HPPHHH'
p284
sg10
Nsg11
I0
sg12
Nsg13
(lp285
g1
(g15
g3
Ntp286
Rp287
(dp288
g19
g20
sbag1
(g15
g3
Ntp289
Rp290
(dp291
g19
(I0
I1
tp292
sbag1
(g15
g3
Ntp293
Rp294
(dp295
g19
(I1
I1
tp296
sbag1
(g15
g3
Ntp297
Rp298
(dp299
g19
(I1
I0
tp300
sbag1
(g15
g3
Ntp301
Rp302
(dp303
g19
(I1
I-1
tp304
sbag1
(g15
g3
Ntp305
Rp306
(dp307
g19
(I0
I-1
tp308
sbasg33
I6
sg34
Nsg35
g250
sg37
S'100111'
p309
sg39
Nsg40
Nsba.